
/Users/chipmc/Documents/Maker/Particle/Projects/AquaMaster-Garden/target/2.1.0/boron/AquaMaster-Garden.elf:     file format elf32-littlearm

Sections:
Idx Name          Size      VMA       LMA       File off  Algn
  0 .module_info  00000018  000d4000  000d4000  00004000  2**0
                  CONTENTS, ALLOC, LOAD, READONLY, DATA
  1 .dynalib      00000004  000d4018  000d4018  00004018  2**2
                  CONTENTS, ALLOC, LOAD, READONLY, DATA
  2 .text         0000acc0  000d4020  000d4020  00004020  2**3
                  CONTENTS, ALLOC, LOAD, READONLY, CODE
  3 .backup       00000804  2003f400  000dece0  0000f400  2**2
                  CONTENTS, ALLOC, LOAD, DATA
  4 .data         000002e4  2003e0d8  000df4e4  0001e0d8  2**3
                  CONTENTS, ALLOC, LOAD, DATA
  5 .bss          00000438  2003e3c0  2003e3c0  0002e3c0  2**3
                  ALLOC
  6 .module_info_suffix 0000002c  000df7c8  000df7c8  0001f7c8  2**1
                  CONTENTS, ALLOC, LOAD, DATA
  7 .module_info_crc 00000004  000df7f4  000df7f4  0001f7f4  2**0
                  CONTENTS, ALLOC, LOAD, READONLY, DATA
  8 .debug_info   001d01b1  00000000  00000000  0001f7f8  2**0
                  CONTENTS, READONLY, DEBUGGING
  9 .debug_abbrev 0001d91d  00000000  00000000  001ef9a9  2**0
                  CONTENTS, READONLY, DEBUGGING
 10 .debug_loc    00039e8a  00000000  00000000  0020d2c6  2**0
                  CONTENTS, READONLY, DEBUGGING
 11 .debug_aranges 00003440  00000000  00000000  00247150  2**0
                  CONTENTS, READONLY, DEBUGGING
 12 .debug_ranges 00009dd8  00000000  00000000  0024a590  2**0
                  CONTENTS, READONLY, DEBUGGING
 13 .debug_macro  0003f0ef  00000000  00000000  00254368  2**0
                  CONTENTS, READONLY, DEBUGGING
 14 .debug_line   0004b937  00000000  00000000  00293457  2**0
                  CONTENTS, READONLY, DEBUGGING
 15 .debug_str    00117c17  00000000  00000000  002ded8e  2**0
                  CONTENTS, READONLY, DEBUGGING
 16 .debug_frame  00009ac0  00000000  00000000  003f69a8  2**2
                  CONTENTS, READONLY, DEBUGGING

Disassembly of section .text:

000d4020 <module_user_pre_init>:
/**
 * Initializes this user module. Returns the start of the heap.
 */
void* module_user_pre_init() {

    if ( (&link_global_data_start!=&link_global_data_initial_values) && (link_global_data_size != 0))
   d4020:	4809      	ldr	r0, [pc, #36]	; (d4048 <module_user_pre_init+0x28>)
   d4022:	490a      	ldr	r1, [pc, #40]	; (d404c <module_user_pre_init+0x2c>)
   d4024:	4288      	cmp	r0, r1
void* module_user_pre_init() {
   d4026:	b508      	push	{r3, lr}
    if ( (&link_global_data_start!=&link_global_data_initial_values) && (link_global_data_size != 0))
   d4028:	d005      	beq.n	d4036 <module_user_pre_init+0x16>
   d402a:	4a09      	ldr	r2, [pc, #36]	; (d4050 <module_user_pre_init+0x30>)
   d402c:	4282      	cmp	r2, r0
   d402e:	d002      	beq.n	d4036 <module_user_pre_init+0x16>
    {
        memcpy(&link_global_data_start, &link_global_data_initial_values, link_global_data_size);
   d4030:	1a12      	subs	r2, r2, r0
   d4032:	f007 fdfb 	bl	dbc2c <memcpy>
    }

    memset(&link_bss_location, 0, link_bss_size );
   d4036:	4807      	ldr	r0, [pc, #28]	; (d4054 <module_user_pre_init+0x34>)
   d4038:	4a07      	ldr	r2, [pc, #28]	; (d4058 <module_user_pre_init+0x38>)
   d403a:	2100      	movs	r1, #0
   d403c:	1a12      	subs	r2, r2, r0
   d403e:	f007 fe1d 	bl	dbc7c <memset>
    return &link_global_data_start;
}
   d4042:	4801      	ldr	r0, [pc, #4]	; (d4048 <module_user_pre_init+0x28>)
   d4044:	bd08      	pop	{r3, pc}
   d4046:	bf00      	nop
   d4048:	2003e0d8 	.word	0x2003e0d8
   d404c:	000df4e4 	.word	0x000df4e4
   d4050:	2003e3bc 	.word	0x2003e3bc
   d4054:	2003e3c0 	.word	0x2003e3c0
   d4058:	2003e7f8 	.word	0x2003e7f8

000d405c <module_user_init>:
extern constructor_ptr_t link_constructors_location[];
extern constructor_ptr_t link_constructors_end;
#define link_constructors_size   ((unsigned long)&link_constructors_end  -  (unsigned long)&link_constructors_location )

void module_user_init()
{
   d405c:	b570      	push	{r4, r5, r6, lr}
    module_user_init_hook();

    // invoke constructors
    int ctor_num;
    for (ctor_num=0; ctor_num < link_constructors_size/sizeof(constructor_ptr_t); ctor_num++ )
   d405e:	4e07      	ldr	r6, [pc, #28]	; (d407c <module_user_init+0x20>)
   d4060:	4c07      	ldr	r4, [pc, #28]	; (d4080 <module_user_init+0x24>)
    module_user_init_hook();
   d4062:	f006 fed9 	bl	dae18 <module_user_init_hook>
    for (ctor_num=0; ctor_num < link_constructors_size/sizeof(constructor_ptr_t); ctor_num++ )
   d4066:	1ba4      	subs	r4, r4, r6
   d4068:	08a4      	lsrs	r4, r4, #2
   d406a:	2500      	movs	r5, #0
   d406c:	42a5      	cmp	r5, r4
   d406e:	d100      	bne.n	d4072 <module_user_init+0x16>
    {
        link_constructors_location[ctor_num]();
    }
}
   d4070:	bd70      	pop	{r4, r5, r6, pc}
        link_constructors_location[ctor_num]();
   d4072:	f856 3b04 	ldr.w	r3, [r6], #4
   d4076:	4798      	blx	r3
    for (ctor_num=0; ctor_num < link_constructors_size/sizeof(constructor_ptr_t); ctor_num++ )
   d4078:	3501      	adds	r5, #1
   d407a:	e7f7      	b.n	d406c <module_user_init+0x10>
   d407c:	000deca4 	.word	0x000deca4
   d4080:	000decd4 	.word	0x000decd4

000d4084 <module_user_setup>:

/**
 * Export these functions with a fuller name so they don't clash with the setup/loop wrappers in the system module.
 */
void module_user_setup() {
    setup();
   d4084:	f001 b84c 	b.w	d5120 <setup>

000d4088 <module_user_loop>:
}

void module_user_loop() {
   d4088:	b508      	push	{r3, lr}
    loop();
   d408a:	f001 fc7d 	bl	d5988 <loop>
    _post_loop();
}
   d408e:	e8bd 4008 	ldmia.w	sp!, {r3, lr}
    _post_loop();
   d4092:	f006 be83 	b.w	dad9c <_post_loop>

000d4096 <_Znwj>:
 * Implement C++ new/delete operators using the heap
 */

void *operator new(size_t size)
{
	return malloc(size);
   d4096:	f003 bed1 	b.w	d7e3c <malloc>

000d409a <_Znaj>:
   d409a:	f003 becf 	b.w	d7e3c <malloc>

000d409e <_ZdlPv>:
	return malloc(size);
}

void operator delete(void *p)
{
	free(p);
   d409e:	f003 bed5 	b.w	d7e4c <free>
	...

000d40a4 <__cxa_pure_virtual>:
char* strerror(int errnum) {
    return (char*)"";
}

/* Default implementation for call made to pure virtual function. */
void __cxa_pure_virtual() {
   d40a4:	b508      	push	{r3, lr}
  PANIC(PureVirtualCall,"Call on pure virtual");
   d40a6:	4a03      	ldr	r2, [pc, #12]	; (d40b4 <__cxa_pure_virtual+0x10>)
   d40a8:	2100      	movs	r1, #0
   d40aa:	200c      	movs	r0, #12
   d40ac:	f003 fd4a 	bl	d7b44 <panic_>
  while (1);
   d40b0:	e7fe      	b.n	d40b0 <__cxa_pure_virtual+0xc>
   d40b2:	bf00      	nop
   d40b4:	000d7845 	.word	0x000d7845

000d40b8 <__cxa_guard_acquire>:

/* Provide default implemenation for __cxa_guard_acquire() and
 * __cxa_guard_release(). Note: these must be revisited if a multitasking
 * OS is ported to this platform. */
__extension__ typedef int __guard __attribute__((mode (__DI__)));
int __cxa_guard_acquire(__guard *g) {return !*(char *)(g);};
   d40b8:	7800      	ldrb	r0, [r0, #0]
   d40ba:	fab0 f080 	clz	r0, r0
   d40be:	0940      	lsrs	r0, r0, #5
   d40c0:	4770      	bx	lr

000d40c2 <__cxa_guard_release>:
void __cxa_guard_release (__guard *g) {*(char *)g = 1;};
   d40c2:	2301      	movs	r3, #1
   d40c4:	7003      	strb	r3, [r0, #0]
   d40c6:	4770      	bx	lr

000d40c8 <_ZN5spark10LogHandler5writeEPKcj>:
    }
}

inline void spark::LogHandler::write(const char *data, size_t size) {
    // Default implementation does nothing
}
   d40c8:	4770      	bx	lr

000d40ca <_ZN5spark16StreamLogHandler5writeEPKcj>:
inline Print* spark::StreamLogHandler::stream() const {
    return stream_;
}

inline void spark::StreamLogHandler::write(const char *data, size_t size) {
    stream_->write((const uint8_t*)data, size);
   d40ca:	6a00      	ldr	r0, [r0, #32]
   d40cc:	6803      	ldr	r3, [r0, #0]
   d40ce:	68db      	ldr	r3, [r3, #12]
   d40d0:	4718      	bx	r3
	...

000d40d4 <_Z18outOfMemoryHandleryi>:
}


// Here are the various hardware and timer interrupt service routines
void outOfMemoryHandler(system_event_t event, int param) {
    outOfMemory = param;
   d40d4:	4b01      	ldr	r3, [pc, #4]	; (d40dc <_Z18outOfMemoryHandleryi+0x8>)
   d40d6:	601a      	str	r2, [r3, #0]
}
   d40d8:	4770      	bx	lr
   d40da:	bf00      	nop
   d40dc:	2003e110 	.word	0x2003e110

000d40e0 <_Z13awakeTimerISRv>:
void wateringTimerISR() {
  wateringTimerFlag = true;
}

void awakeTimerISR() {
  sysStatus.lowPowerMode = true;
   d40e0:	4a02      	ldr	r2, [pc, #8]	; (d40ec <_Z13awakeTimerISRv+0xc>)
   d40e2:	2301      	movs	r3, #1
   d40e4:	7193      	strb	r3, [r2, #6]
  systemStatusWriteNeeded = true;
   d40e6:	4a02      	ldr	r2, [pc, #8]	; (d40f0 <_Z13awakeTimerISRv+0x10>)
   d40e8:	7013      	strb	r3, [r2, #0]
}
   d40ea:	4770      	bx	lr
   d40ec:	2003e534 	.word	0x2003e534
   d40f0:	2003e568 	.word	0x2003e568

000d40f4 <_ZNSt17_Function_handlerIFvvEPS0_E9_M_invokeERKSt9_Any_data>:

     public:
      static void
      _M_invoke(const _Any_data& __functor, _ArgTypes&&... __args)
      {
	(*_Base::_M_get_pointer(__functor))(
   d40f4:	6803      	ldr	r3, [r0, #0]
   d40f6:	4718      	bx	r3

000d40f8 <_ZNSt14_Function_base13_Base_managerIPFvvEE10_M_managerERSt9_Any_dataRKS4_St18_Manager_operation>:
	  switch (__op)
   d40f8:	2a01      	cmp	r2, #1
   d40fa:	d003      	beq.n	d4104 <_ZNSt14_Function_base13_Base_managerIPFvvEE10_M_managerERSt9_Any_dataRKS4_St18_Manager_operation+0xc>
   d40fc:	2a02      	cmp	r2, #2
   d40fe:	d003      	beq.n	d4108 <_ZNSt14_Function_base13_Base_managerIPFvvEE10_M_managerERSt9_Any_dataRKS4_St18_Manager_operation+0x10>
	}
   d4100:	2000      	movs	r0, #0
   d4102:	4770      	bx	lr
	      __dest._M_access<_Functor*>() = _M_get_pointer(__source);
   d4104:	6001      	str	r1, [r0, #0]
	      break;
   d4106:	e7fb      	b.n	d4100 <_ZNSt14_Function_base13_Base_managerIPFvvEE10_M_managerERSt9_Any_dataRKS4_St18_Manager_operation+0x8>
	  ::new (__dest._M_access()) _Functor(__source._M_access<_Functor>());
   d4108:	680b      	ldr	r3, [r1, #0]
   d410a:	6003      	str	r3, [r0, #0]
	}
   d410c:	e7f8      	b.n	d4100 <_ZNSt14_Function_base13_Base_managerIPFvvEE10_M_managerERSt9_Any_dataRKS4_St18_Manager_operation+0x8>
	...

000d4110 <_Z21batteryContextMessagev>:
/**
 * @brief Returns a string describing the battery state.
 * 
 * @return String describing battery state.
 */
String batteryContextMessage() {
   d4110:	b510      	push	{r4, lr}
  return batteryContext[sysStatus.batteryState];
   d4112:	4b05      	ldr	r3, [pc, #20]	; (d4128 <_Z21batteryContextMessagev+0x18>)
   d4114:	7b1a      	ldrb	r2, [r3, #12]
   d4116:	4b05      	ldr	r3, [pc, #20]	; (d412c <_Z21batteryContextMessagev+0x1c>)
String batteryContextMessage() {
   d4118:	4604      	mov	r4, r0
  return batteryContext[sysStatus.batteryState];
   d411a:	f853 1022 	ldr.w	r1, [r3, r2, lsl #2]
   d411e:	f006 f970 	bl	da402 <_ZN6StringC1EPKc>
}
   d4122:	4620      	mov	r0, r4
   d4124:	bd10      	pop	{r4, pc}
   d4126:	bf00      	nop
   d4128:	2003e534 	.word	0x2003e534
   d412c:	2003e0d8 	.word	0x2003e0d8

000d4130 <_ZN8particle24SystemSleepConfigurationD1Ev>:
        config.config_.wakeup_sources = nullptr;
        return *this;
    }

    // Destructor
    ~SystemSleepConfiguration() {
   d4130:	b538      	push	{r3, r4, r5, lr}
   d4132:	4604      	mov	r4, r0
        // Free memory
        auto wakeupSource = config_.wakeup_sources;
   d4134:	6900      	ldr	r0, [r0, #16]
        while (wakeupSource) {
   d4136:	b128      	cbz	r0, d4144 <_ZN8particle24SystemSleepConfigurationD1Ev+0x14>
            auto next = wakeupSource->next;
   d4138:	6885      	ldr	r5, [r0, #8]
            delete wakeupSource;
   d413a:	210c      	movs	r1, #12
   d413c:	f006 ffcd 	bl	db0da <_ZdlPvj>
            wakeupSource = next;
   d4140:	4628      	mov	r0, r5
        while (wakeupSource) {
   d4142:	e7f8      	b.n	d4136 <_ZN8particle24SystemSleepConfigurationD1Ev+0x6>
        }
    }
   d4144:	4620      	mov	r0, r4
   d4146:	bd38      	pop	{r3, r4, r5, pc}

000d4148 <_Z7sendNow6String>:
{
   d4148:	b508      	push	{r3, lr}
	operator StringIfHelperType() const { return buffer ? &String::StringIfHelper : 0; }
	int compareTo(const String &s) const;
	unsigned char equals(const String &s) const;
	unsigned char equals(const char *cstr) const;
	unsigned char operator == (const String &rhs) const {return equals(rhs);}
	unsigned char operator == (const char *cstr) const {return equals(cstr);}
   d414a:	4904      	ldr	r1, [pc, #16]	; (d415c <_Z7sendNow6String+0x14>)
   d414c:	f006 f9af 	bl	da4ae <_ZNK6String6equalsEPKc>
  if (command == "1")
   d4150:	b118      	cbz	r0, d415a <_Z7sendNow6String+0x12>
    state = MEASURING_STATE;
   d4152:	4b03      	ldr	r3, [pc, #12]	; (d4160 <_Z7sendNow6String+0x18>)
   d4154:	2203      	movs	r2, #3
   d4156:	701a      	strb	r2, [r3, #0]
    return 1;
   d4158:	2001      	movs	r0, #1
}
   d415a:	bd08      	pop	{r3, pc}
   d415c:	000ddc30 	.word	0x000ddc30
   d4160:	2003e528 	.word	0x2003e528

000d4164 <_ZN5Timer7timeoutEv>:
     * Subclasses can either provide a callback function, or override
     * this timeout method.
     */
    virtual void timeout()
    {
        if (callback) {
   d4164:	6943      	ldr	r3, [r0, #20]
   d4166:	b113      	cbz	r3, d416e <_ZN5Timer7timeoutEv+0xa>
    function<_Res(_ArgTypes...)>::
    operator()(_ArgTypes... __args) const
    {
      if (_M_empty())
	__throw_bad_function_call();
      return _M_invoker(_M_functor, std::forward<_ArgTypes>(__args)...);
   d4168:	6983      	ldr	r3, [r0, #24]
   d416a:	300c      	adds	r0, #12
   d416c:	4718      	bx	r3
            callback();
        }
    }
   d416e:	4770      	bx	lr

000d4170 <_ZN17PublishQueueAsyncD1Ev>:
	PublishQueueAsync(uint8_t *retainedBuffer, uint16_t retainedBufferSize) : PublishQueueAsyncRetained(retainedBuffer, retainedBufferSize) {};

	/**
	 * @brief You normally allocate this as a global object and never delete it
	 */
	virtual ~PublishQueueAsync() {};
   d4170:	b510      	push	{r4, lr}
   d4172:	4b03      	ldr	r3, [pc, #12]	; (d4180 <_ZN17PublishQueueAsyncD1Ev+0x10>)
   d4174:	6003      	str	r3, [r0, #0]
   d4176:	4604      	mov	r4, r0
   d4178:	f003 f81c 	bl	d71b4 <_ZN25PublishQueueAsyncRetainedD1Ev>
   d417c:	4620      	mov	r0, r4
   d417e:	bd10      	pop	{r4, pc}
   d4180:	000de188 	.word	0x000de188

000d4184 <_ZN17PublishQueueAsyncD0Ev>:
   d4184:	b510      	push	{r4, lr}
   d4186:	4604      	mov	r4, r0
   d4188:	f7ff fff2 	bl	d4170 <_ZN17PublishQueueAsyncD1Ev>
   d418c:	4620      	mov	r0, r4
   d418e:	2138      	movs	r1, #56	; 0x38
   d4190:	f006 ffa3 	bl	db0da <_ZdlPvj>
   d4194:	4620      	mov	r0, r4
   d4196:	bd10      	pop	{r4, pc}

000d4198 <_ZN8MB85RC64D1Ev>:
	size_t memorySize;
	int addr; // This is just 0-7, the (0b1010000 of the 7-bit address is ORed in later)

};

class MB85RC64 : public MB85RC {
   d4198:	b510      	push	{r4, lr}
   d419a:	4b03      	ldr	r3, [pc, #12]	; (d41a8 <_ZN8MB85RC64D1Ev+0x10>)
   d419c:	6003      	str	r3, [r0, #0]
   d419e:	4604      	mov	r4, r0
   d41a0:	f002 fe16 	bl	d6dd0 <_ZN6MB85RCD1Ev>
   d41a4:	4620      	mov	r0, r4
   d41a6:	bd10      	pop	{r4, pc}
   d41a8:	000de16c 	.word	0x000de16c

000d41ac <_ZN8MB85RC64D0Ev>:
   d41ac:	b510      	push	{r4, lr}
   d41ae:	4604      	mov	r4, r0
   d41b0:	f7ff fff2 	bl	d4198 <_ZN8MB85RC64D1Ev>
   d41b4:	4620      	mov	r0, r4
   d41b6:	2110      	movs	r1, #16
   d41b8:	f006 ff8f 	bl	db0da <_ZdlPvj>
   d41bc:	4620      	mov	r0, r4
   d41be:	bd10      	pop	{r4, pc}

000d41c0 <_ZN5Timer12invoke_timerEPv>:
private:
	volatile bool running;
    os_timer_t handle;
    timer_callback_fn callback;

    static void invoke_timer(os_timer_t timer)
   d41c0:	b513      	push	{r0, r1, r4, lr}
typedef std::function<os_thread_return_t(void)> wiring_thread_fn_t;

class SingleThreadedSection {
public:
    SingleThreadedSection() {
        os_thread_scheduling(false, NULL);
   d41c2:	2100      	movs	r1, #0
   d41c4:	4604      	mov	r4, r0
   d41c6:	4608      	mov	r0, r1
   d41c8:	f003 faac 	bl	d7724 <os_thread_scheduling>
    {
        Timer* t = nullptr;
        SINGLE_THREADED_BLOCK() {
            void* id = nullptr;
   d41cc:	2300      	movs	r3, #0
            os_timer_get_id(timer, &id);
   d41ce:	4620      	mov	r0, r4
   d41d0:	a901      	add	r1, sp, #4
            void* id = nullptr;
   d41d2:	9301      	str	r3, [sp, #4]
            os_timer_get_id(timer, &id);
   d41d4:	f003 fabe 	bl	d7754 <os_timer_get_id>
            t = static_cast<Timer*>(id);
   d41d8:	9c01      	ldr	r4, [sp, #4]
            if (t) {
   d41da:	b10c      	cbz	r4, d41e0 <_ZN5Timer12invoke_timerEPv+0x20>
                t->running = true;
   d41dc:	2301      	movs	r3, #1
   d41de:	7123      	strb	r3, [r4, #4]
    }

    ~SingleThreadedSection() {
        os_thread_scheduling(true, NULL);
   d41e0:	2100      	movs	r1, #0
   d41e2:	2001      	movs	r0, #1
   d41e4:	f003 fa9e 	bl	d7724 <os_thread_scheduling>
            }
        }
        if (t) {
   d41e8:	b12c      	cbz	r4, d41f6 <_ZN5Timer12invoke_timerEPv+0x36>
            t->timeout();
   d41ea:	6823      	ldr	r3, [r4, #0]
   d41ec:	4620      	mov	r0, r4
   d41ee:	689b      	ldr	r3, [r3, #8]
   d41f0:	4798      	blx	r3
            t->running = false;
   d41f2:	2300      	movs	r3, #0
   d41f4:	7123      	strb	r3, [r4, #4]
        }
    }
   d41f6:	b002      	add	sp, #8
   d41f8:	bd10      	pop	{r4, pc}
	...

000d41fc <_Z11resetCounts6String>:
{
   d41fc:	b508      	push	{r3, lr}
   d41fe:	4908      	ldr	r1, [pc, #32]	; (d4220 <_Z11resetCounts6String+0x24>)
   d4200:	f006 f955 	bl	da4ae <_ZNK6String6equalsEPKc>
   d4204:	2300      	movs	r3, #0
  if (command == "1")
   d4206:	b150      	cbz	r0, d421e <_Z11resetCounts6String+0x22>
    sysStatus.resetCount = 0;                                            // If so, store incremented number - watchdog must have done This
   d4208:	4a06      	ldr	r2, [pc, #24]	; (d4224 <_Z11resetCounts6String+0x28>)
   d420a:	6113      	str	r3, [r2, #16]
    current.alertCount = 0;                                           // Reset count variables
   d420c:	4a06      	ldr	r2, [pc, #24]	; (d4228 <_Z11resetCounts6String+0x2c>)
   d420e:	6113      	str	r3, [r2, #16]
    dataInFlight = false;
   d4210:	4a06      	ldr	r2, [pc, #24]	; (d422c <_Z11resetCounts6String+0x30>)
   d4212:	7013      	strb	r3, [r2, #0]
    currentCountsWriteNeeded = true;                                  // Make sure we write to FRAM back in the main loop
   d4214:	4b06      	ldr	r3, [pc, #24]	; (d4230 <_Z11resetCounts6String+0x34>)
   d4216:	2001      	movs	r0, #1
   d4218:	7018      	strb	r0, [r3, #0]
    systemStatusWriteNeeded = true;
   d421a:	4b06      	ldr	r3, [pc, #24]	; (d4234 <_Z11resetCounts6String+0x38>)
   d421c:	7018      	strb	r0, [r3, #0]
}
   d421e:	bd08      	pop	{r3, pc}
   d4220:	000ddc30 	.word	0x000ddc30
   d4224:	2003e534 	.word	0x2003e534
   d4228:	2003e46c 	.word	0x2003e46c
   d422c:	2003e497 	.word	0x2003e497
   d4230:	2003e48c 	.word	0x2003e48c
   d4234:	2003e568 	.word	0x2003e568

000d4238 <_ZN17SystemSleepResult22freeWakeupSourceMemoryEv.isra.0>:
    operator SleepResult() {
        return toSleepResult();
    }

private:
    void freeWakeupSourceMemory() {
   d4238:	b510      	push	{r4, lr}
   d423a:	4604      	mov	r4, r0
        if (wakeupSource_) {
   d423c:	6800      	ldr	r0, [r0, #0]
   d423e:	b118      	cbz	r0, d4248 <_ZN17SystemSleepResult22freeWakeupSourceMemoryEv.isra.0+0x10>
            free(wakeupSource_);
   d4240:	f003 fe04 	bl	d7e4c <free>
            wakeupSource_ = nullptr;
   d4244:	2300      	movs	r3, #0
   d4246:	6023      	str	r3, [r4, #0]
        }
    }
   d4248:	bd10      	pop	{r4, pc}

000d424a <_ZN11SystemClassD1Ev>:
    system_error_t error_;
    SleepResult compatResult_;
};


class SystemClass {
   d424a:	b510      	push	{r4, lr}
   d424c:	4604      	mov	r4, r0
        freeWakeupSourceMemory();
   d424e:	f7ff fff3 	bl	d4238 <_ZN17SystemSleepResult22freeWakeupSourceMemoryEv.isra.0>
class SystemClass {
   d4252:	4620      	mov	r0, r4
   d4254:	bd10      	pop	{r4, pc}

000d4256 <_ZN10CloudClass12syncTimeDoneEv.isra.0>:
    bool syncTimePending(void)
    {
        return connected() && spark_sync_time_pending(nullptr);
    }

    bool syncTimeDone(void)
   d4256:	b508      	push	{r3, lr}
    {
        return !spark_sync_time_pending(nullptr) || disconnected();
   d4258:	2000      	movs	r0, #0
   d425a:	f003 fd67 	bl	d7d2c <spark_sync_time_pending>
   d425e:	b128      	cbz	r0, d426c <_ZN10CloudClass12syncTimeDoneEv.isra.0+0x16>
    static void sleep(Spark_Sleep_TypeDef sleepMode, long seconds=0) __attribute__ ((deprecated("Please use System.sleep() instead.")))
    { SystemClass::sleep(sleepMode, seconds); }
    static void sleep(uint16_t wakeUpPin, InterruptMode edgeTriggerMode, long seconds=0) __attribute__ ((deprecated("Please use System.sleep() instead.")))
    { SystemClass::sleep(wakeUpPin, edgeTriggerMode, seconds); }

    static bool connected(void) { return spark_cloud_flag_connected(); }
   d4260:	f003 fd3c 	bl	d7cdc <spark_cloud_flag_connected>
        return !spark_sync_time_pending(nullptr) || disconnected();
   d4264:	f080 0001 	eor.w	r0, r0, #1
   d4268:	b2c0      	uxtb	r0, r0
    }
   d426a:	bd08      	pop	{r3, pc}
        return !spark_sync_time_pending(nullptr) || disconnected();
   d426c:	2001      	movs	r0, #1
   d426e:	e7fc      	b.n	d426a <_ZN10CloudClass12syncTimeDoneEv.isra.0+0x14>

000d4270 <_ZN10CloudClass9_variableI17CloudVariableTypeIPKcvEEEbS3_NT_11PointerTypeERKS5_.isra.0>:
        return spark_variable(varKey, (const void*)userVar, T::TYPE_ID, NULL);
   d4270:	2300      	movs	r3, #0
   d4272:	2204      	movs	r2, #4
   d4274:	f003 bd12 	b.w	d7c9c <spark_variable>

000d4278 <_ZZN10CloudClass20register_variable_fnIF6StringvELDn0EEEbPKcRKT_ENUlPKvPPvPjE_4_FUNES9_SB_SC_>:
    template<typename T, std::enable_if_t<std::is_function<T>::value, std::nullptr_t> = nullptr>
    static bool register_variable_fn(const char* varKey, const T& fn) {
        using VariableType = CloudVariableType<typename std::result_of<T&()>::type>;
        spark_variable_t extra = {};
        extra.size = sizeof(extra);
        extra.copy = [](const void* var, void** data, size_t* size) {
   d4278:	b530      	push	{r4, r5, lr}
   d427a:	b085      	sub	sp, #20
   d427c:	4603      	mov	r3, r0
   d427e:	4614      	mov	r4, r2
            const auto fn = (const T*)var;
            const typename VariableType::ValueType val = fn();
   d4280:	4668      	mov	r0, sp
        extra.copy = [](const void* var, void** data, size_t* size) {
   d4282:	460d      	mov	r5, r1
            const typename VariableType::ValueType val = fn();
   d4284:	4798      	blx	r3
        size = str.length();
   d4286:	9802      	ldr	r0, [sp, #8]
   d4288:	6020      	str	r0, [r4, #0]
        data = malloc(size);
   d428a:	f003 fdd7 	bl	d7e3c <malloc>
   d428e:	6028      	str	r0, [r5, #0]
        if (!data) {
   d4290:	b150      	cbz	r0, d42a8 <_ZZN10CloudClass20register_variable_fnIF6StringvELDn0EEEbPKcRKT_ENUlPKvPPvPjE_4_FUNES9_SB_SC_+0x30>
        memcpy(data, str.c_str(), size);
   d4292:	6822      	ldr	r2, [r4, #0]
   d4294:	9900      	ldr	r1, [sp, #0]
   d4296:	f007 fcc9 	bl	dbc2c <memcpy>
        return 0;
   d429a:	2400      	movs	r4, #0
            const typename VariableType::ValueType val = fn();
   d429c:	4668      	mov	r0, sp
   d429e:	f006 f865 	bl	da36c <_ZN6StringD1Ev>
        extra.copy = [](const void* var, void** data, size_t* size) {
   d42a2:	4620      	mov	r0, r4
   d42a4:	b005      	add	sp, #20
   d42a6:	bd30      	pop	{r4, r5, pc}
            return SYSTEM_ERROR_NO_MEMORY;
   d42a8:	4c00      	ldr	r4, [pc, #0]	; (d42ac <_ZZN10CloudClass20register_variable_fnIF6StringvELDn0EEEbPKcRKT_ENUlPKvPPvPjE_4_FUNES9_SB_SC_+0x34>)
   d42aa:	e7f7      	b.n	d429c <_ZZN10CloudClass20register_variable_fnIF6StringvELDn0EEEbPKcRKT_ENUlPKvPPvPjE_4_FUNES9_SB_SC_+0x24>
   d42ac:	fffffefc 	.word	0xfffffefc

000d42b0 <_ZN5spark16SerialLogHandlerD1Ev>:
            StreamLogHandler(Serial, level, filters) {
        Serial.begin(baud);
        LogManager::instance()->addHandler(this);
    }

    virtual ~SerialLogHandler() {
   d42b0:	4b0a      	ldr	r3, [pc, #40]	; (d42dc <_ZN5spark16SerialLogHandlerD1Ev+0x2c>)
   d42b2:	b510      	push	{r4, lr}
   d42b4:	4604      	mov	r4, r0
   d42b6:	6003      	str	r3, [r0, #0]
        LogManager::instance()->removeHandler(this);
   d42b8:	f004 ffe0 	bl	d927c <_ZN5spark10LogManager8instanceEv>
   d42bc:	4621      	mov	r1, r4
   d42be:	f005 f9e2 	bl	d9686 <_ZN5spark10LogManager13removeHandlerEPNS_10LogHandlerE>
        Serial.end();
   d42c2:	f006 fd1f 	bl	dad04 <_Z16_fetch_usbserialv>
   d42c6:	f006 fd11 	bl	dacec <_ZN9USBSerial3endEv>
    virtual ~LogHandler() = default;
   d42ca:	4620      	mov	r0, r4
   d42cc:	4b04      	ldr	r3, [pc, #16]	; (d42e0 <_ZN5spark16SerialLogHandlerD1Ev+0x30>)
   d42ce:	f840 3b04 	str.w	r3, [r0], #4
   d42d2:	f005 f8c5 	bl	d9460 <_ZN5spark6detail9LogFilterD1Ev>
    }
   d42d6:	4620      	mov	r0, r4
   d42d8:	bd10      	pop	{r4, pc}
   d42da:	bf00      	nop
   d42dc:	000de154 	.word	0x000de154
   d42e0:	000de13c 	.word	0x000de13c

000d42e4 <_ZN5spark16SerialLogHandlerD0Ev>:
    virtual ~SerialLogHandler() {
   d42e4:	b510      	push	{r4, lr}
   d42e6:	4604      	mov	r4, r0
    }
   d42e8:	f7ff ffe2 	bl	d42b0 <_ZN5spark16SerialLogHandlerD1Ev>
   d42ec:	4620      	mov	r0, r4
   d42ee:	2124      	movs	r1, #36	; 0x24
   d42f0:	f006 fef3 	bl	db0da <_ZdlPvj>
   d42f4:	4620      	mov	r0, r4
   d42f6:	bd10      	pop	{r4, pc}

000d42f8 <_ZN5spark13CellularClass3offEv>:
    }
    void on() {
        network_on(*this, 0, 0, NULL);
    }
    void off() {
        network_off(*this, 0, 0, NULL);
   d42f8:	2300      	movs	r3, #0
   d42fa:	6840      	ldr	r0, [r0, #4]
   d42fc:	461a      	mov	r2, r3
   d42fe:	4619      	mov	r1, r3
   d4300:	f003 bd64 	b.w	d7dcc <network_off>

000d4304 <_ZNSt14_Function_baseD1Ev>:
    ~_Function_base()
   d4304:	b510      	push	{r4, lr}
      if (_M_manager)
   d4306:	6883      	ldr	r3, [r0, #8]
    ~_Function_base()
   d4308:	4604      	mov	r4, r0
      if (_M_manager)
   d430a:	b113      	cbz	r3, d4312 <_ZNSt14_Function_baseD1Ev+0xe>
	_M_manager(_M_functor, _M_functor, __destroy_functor);
   d430c:	2203      	movs	r2, #3
   d430e:	4601      	mov	r1, r0
   d4310:	4798      	blx	r3
    }
   d4312:	4620      	mov	r0, r4
   d4314:	bd10      	pop	{r4, pc}
	...

000d4318 <_ZN5TimerD1Ev>:
    virtual ~Timer() {
   d4318:	b537      	push	{r0, r1, r2, r4, r5, lr}
   d431a:	4b13      	ldr	r3, [pc, #76]	; (d4368 <_ZN5TimerD1Ev+0x50>)
   d431c:	6003      	str	r3, [r0, #0]
   d431e:	4604      	mov	r4, r0
        if (handle) {
   d4320:	6880      	ldr	r0, [r0, #8]
   d4322:	b1c8      	cbz	r0, d4358 <_ZN5TimerD1Ev+0x40>
        return handle ? !os_timer_change(handle, OS_TIMER_CHANGE_STOP, fromISR, 0, block, nullptr) : false;
   d4324:	2500      	movs	r5, #0
   d4326:	f06f 4300 	mvn.w	r3, #2147483648	; 0x80000000
   d432a:	e9cd 3500 	strd	r3, r5, [sp]
   d432e:	2102      	movs	r1, #2
   d4330:	462b      	mov	r3, r5
   d4332:	462a      	mov	r2, r5
   d4334:	f003 fa16 	bl	d7764 <os_timer_change>
            os_timer_set_id(handle, nullptr);
   d4338:	68a0      	ldr	r0, [r4, #8]
   d433a:	4629      	mov	r1, r5
   d433c:	f003 fa5a 	bl	d77f4 <os_timer_set_id>
            while (running) {
   d4340:	7923      	ldrb	r3, [r4, #4]
   d4342:	f003 05ff 	and.w	r5, r3, #255	; 0xff
   d4346:	b113      	cbz	r3, d434e <_ZN5TimerD1Ev+0x36>
                os_thread_yield();
   d4348:	f003 f9e4 	bl	d7714 <os_thread_yield>
            while (running) {
   d434c:	e7f8      	b.n	d4340 <_ZN5TimerD1Ev+0x28>
            os_timer_destroy(handle, nullptr);
   d434e:	68a0      	ldr	r0, [r4, #8]
   d4350:	4629      	mov	r1, r5
   d4352:	f003 f9f7 	bl	d7744 <os_timer_destroy>
            handle = nullptr;
   d4356:	60a5      	str	r5, [r4, #8]
    class function<_Res(_ArgTypes...)>
   d4358:	f104 000c 	add.w	r0, r4, #12
   d435c:	f7ff ffd2 	bl	d4304 <_ZNSt14_Function_baseD1Ev>
    }
   d4360:	4620      	mov	r0, r4
   d4362:	b003      	add	sp, #12
   d4364:	bd30      	pop	{r4, r5, pc}
   d4366:	bf00      	nop
   d4368:	000de128 	.word	0x000de128

000d436c <_ZN5TimerD0Ev>:
    virtual ~Timer() {
   d436c:	b510      	push	{r4, lr}
   d436e:	4604      	mov	r4, r0
    }
   d4370:	f7ff ffd2 	bl	d4318 <_ZN5TimerD1Ev>
   d4374:	4620      	mov	r0, r4
   d4376:	211c      	movs	r1, #28
   d4378:	f006 feaf 	bl	db0da <_ZdlPvj>
   d437c:	4620      	mov	r0, r4
   d437e:	bd10      	pop	{r4, pc}

000d4380 <_ZN8particle24SystemPowerConfigurationC1Ev>:
};

class SystemPowerConfiguration {
public:

    SystemPowerConfiguration()
   d4380:	b538      	push	{r3, r4, r5, lr}
   d4382:	4604      	mov	r4, r0
            : conf_{} {
   d4384:	2520      	movs	r5, #32
   d4386:	462a      	mov	r2, r5
   d4388:	2100      	movs	r1, #0
   d438a:	f007 fc77 	bl	dbc7c <memset>
        conf_.size = sizeof(conf_);
   d438e:	7165      	strb	r5, [r4, #5]
    }
   d4390:	4620      	mov	r0, r4
   d4392:	bd38      	pop	{r3, r4, r5, pc}

000d4394 <_ZN8particle24SystemSleepConfiguration4gpioEt13InterruptMode>:
            config_.flags |= f.value();
        }
        return *this;
    }

    SystemSleepConfiguration& gpio(pin_t pin, InterruptMode mode) {
   d4394:	b5f8      	push	{r3, r4, r5, r6, r7, lr}
        if (valid_) {
   d4396:	7d03      	ldrb	r3, [r0, #20]
    SystemSleepConfiguration& gpio(pin_t pin, InterruptMode mode) {
   d4398:	4605      	mov	r5, r0
   d439a:	460f      	mov	r7, r1
   d439c:	4616      	mov	r6, r2
        if (valid_) {
   d439e:	b18b      	cbz	r3, d43c4 <_ZN8particle24SystemSleepConfiguration4gpioEt13InterruptMode+0x30>
        return wakeupSourceFeatured(type, config_->wakeup_sources);
   d43a0:	6803      	ldr	r3, [r0, #0]
   d43a2:	68db      	ldr	r3, [r3, #12]
        if (!start) {
   d43a4:	b183      	cbz	r3, d43c8 <_ZN8particle24SystemSleepConfiguration4gpioEt13InterruptMode+0x34>
            if (start->type == type) {
   d43a6:	889a      	ldrh	r2, [r3, #4]
   d43a8:	2a01      	cmp	r2, #1
   d43aa:	d006      	beq.n	d43ba <_ZN8particle24SystemSleepConfiguration4gpioEt13InterruptMode+0x26>
            start = start->next;
   d43ac:	689b      	ldr	r3, [r3, #8]
        while (start) {
   d43ae:	e7f9      	b.n	d43a4 <_ZN8particle24SystemSleepConfiguration4gpioEt13InterruptMode+0x10>
                auto gpioWakeup = reinterpret_cast<hal_wakeup_source_gpio_t*>(wakeup);
                if (gpioWakeup->pin == pin) {
                    gpioWakeup->mode = mode;
                    return *this;
                }
                wakeup = wakeupSourceFeatured(HAL_WAKEUP_SOURCE_TYPE_GPIO, wakeup->next);
   d43b0:	689b      	ldr	r3, [r3, #8]
        if (!start) {
   d43b2:	b14b      	cbz	r3, d43c8 <_ZN8particle24SystemSleepConfiguration4gpioEt13InterruptMode+0x34>
            if (start->type == type) {
   d43b4:	889a      	ldrh	r2, [r3, #4]
   d43b6:	2a01      	cmp	r2, #1
   d43b8:	d1fa      	bne.n	d43b0 <_ZN8particle24SystemSleepConfiguration4gpioEt13InterruptMode+0x1c>
            while (wakeup) {
   d43ba:	b12b      	cbz	r3, d43c8 <_ZN8particle24SystemSleepConfiguration4gpioEt13InterruptMode+0x34>
                if (gpioWakeup->pin == pin) {
   d43bc:	899a      	ldrh	r2, [r3, #12]
   d43be:	42ba      	cmp	r2, r7
   d43c0:	d1f6      	bne.n	d43b0 <_ZN8particle24SystemSleepConfiguration4gpioEt13InterruptMode+0x1c>
                    gpioWakeup->mode = mode;
   d43c2:	739e      	strb	r6, [r3, #14]
            wakeupSource->pin = pin;
            wakeupSource->mode = mode;
            config_.wakeup_sources = reinterpret_cast<hal_wakeup_source_base_t*>(wakeupSource);
        }
        return *this;
    }
   d43c4:	4628      	mov	r0, r5
   d43c6:	bdf8      	pop	{r3, r4, r5, r6, r7, pc}
            auto wakeupSource = new(std::nothrow) hal_wakeup_source_gpio_t();
   d43c8:	490a      	ldr	r1, [pc, #40]	; (d43f4 <_ZN8particle24SystemSleepConfiguration4gpioEt13InterruptMode+0x60>)
   d43ca:	2010      	movs	r0, #16
   d43cc:	f006 fe87 	bl	db0de <_ZnwjRKSt9nothrow_t>
   d43d0:	4604      	mov	r4, r0
   d43d2:	b168      	cbz	r0, d43f0 <_ZN8particle24SystemSleepConfiguration4gpioEt13InterruptMode+0x5c>
   d43d4:	2210      	movs	r2, #16
   d43d6:	2100      	movs	r1, #0
   d43d8:	f007 fc50 	bl	dbc7c <memset>
            wakeupSource->base.size = sizeof(hal_wakeup_source_gpio_t);
   d43dc:	4b06      	ldr	r3, [pc, #24]	; (d43f8 <_ZN8particle24SystemSleepConfiguration4gpioEt13InterruptMode+0x64>)
   d43de:	6023      	str	r3, [r4, #0]
            wakeupSource->base.type = HAL_WAKEUP_SOURCE_TYPE_GPIO;
   d43e0:	2301      	movs	r3, #1
   d43e2:	80a3      	strh	r3, [r4, #4]
            wakeupSource->base.next = config_.wakeup_sources;
   d43e4:	692b      	ldr	r3, [r5, #16]
   d43e6:	60a3      	str	r3, [r4, #8]
            wakeupSource->pin = pin;
   d43e8:	81a7      	strh	r7, [r4, #12]
            wakeupSource->mode = mode;
   d43ea:	73a6      	strb	r6, [r4, #14]
            config_.wakeup_sources = reinterpret_cast<hal_wakeup_source_base_t*>(wakeupSource);
   d43ec:	612c      	str	r4, [r5, #16]
   d43ee:	e7e9      	b.n	d43c4 <_ZN8particle24SystemSleepConfiguration4gpioEt13InterruptMode+0x30>
                valid_ = false;
   d43f0:	7528      	strb	r0, [r5, #20]
                return *this;
   d43f2:	e7e7      	b.n	d43c4 <_ZN8particle24SystemSleepConfiguration4gpioEt13InterruptMode+0x30>
   d43f4:	000de9d4 	.word	0x000de9d4
   d43f8:	00030010 	.word	0x00030010

000d43fc <_ZN8particle24SystemSleepConfiguration8durationEm>:

    SystemSleepConfiguration& duration(system_tick_t ms) {
   d43fc:	b570      	push	{r4, r5, r6, lr}
        if (valid_) {
   d43fe:	7d03      	ldrb	r3, [r0, #20]
    SystemSleepConfiguration& duration(system_tick_t ms) {
   d4400:	4605      	mov	r5, r0
   d4402:	460e      	mov	r6, r1
        if (valid_) {
   d4404:	b1cb      	cbz	r3, d443a <_ZN8particle24SystemSleepConfiguration8durationEm+0x3e>
        return wakeupSourceFeatured(type, config_->wakeup_sources);
   d4406:	6803      	ldr	r3, [r0, #0]
   d4408:	68db      	ldr	r3, [r3, #12]
        if (!start) {
   d440a:	b123      	cbz	r3, d4416 <_ZN8particle24SystemSleepConfiguration8durationEm+0x1a>
            if (start->type == type) {
   d440c:	889a      	ldrh	r2, [r3, #4]
   d440e:	2a04      	cmp	r2, #4
   d4410:	d017      	beq.n	d4442 <_ZN8particle24SystemSleepConfiguration8durationEm+0x46>
            start = start->next;
   d4412:	689b      	ldr	r3, [r3, #8]
        while (start) {
   d4414:	e7f9      	b.n	d440a <_ZN8particle24SystemSleepConfiguration8durationEm+0xe>
            if (wakeup) {
                reinterpret_cast<hal_wakeup_source_rtc_t*>(wakeup)->ms = ms;
                return *this;
            }
            // Otherwise, configure RTC as wakeup source.
            auto wakeupSource = new(std::nothrow) hal_wakeup_source_rtc_t();
   d4416:	490c      	ldr	r1, [pc, #48]	; (d4448 <_ZN8particle24SystemSleepConfiguration8durationEm+0x4c>)
   d4418:	2010      	movs	r0, #16
   d441a:	f006 fe60 	bl	db0de <_ZnwjRKSt9nothrow_t>
   d441e:	4604      	mov	r4, r0
   d4420:	b168      	cbz	r0, d443e <_ZN8particle24SystemSleepConfiguration8durationEm+0x42>
   d4422:	2210      	movs	r2, #16
   d4424:	2100      	movs	r1, #0
   d4426:	f007 fc29 	bl	dbc7c <memset>
            if (!wakeupSource) {
                valid_ = false;
                return *this;
            }
            wakeupSource->base.size = sizeof(hal_wakeup_source_rtc_t);
   d442a:	4b08      	ldr	r3, [pc, #32]	; (d444c <_ZN8particle24SystemSleepConfiguration8durationEm+0x50>)
   d442c:	6023      	str	r3, [r4, #0]
            wakeupSource->base.version = HAL_SLEEP_VERSION;
            wakeupSource->base.type = HAL_WAKEUP_SOURCE_TYPE_RTC;
   d442e:	2304      	movs	r3, #4
   d4430:	80a3      	strh	r3, [r4, #4]
            wakeupSource->base.next = config_.wakeup_sources;
   d4432:	692b      	ldr	r3, [r5, #16]
            wakeupSource->ms = ms;
            config_.wakeup_sources = reinterpret_cast<hal_wakeup_source_base_t*>(wakeupSource);
   d4434:	612c      	str	r4, [r5, #16]
            wakeupSource->ms = ms;
   d4436:	e9c4 3602 	strd	r3, r6, [r4, #8]
        }
        return *this;
    }
   d443a:	4628      	mov	r0, r5
   d443c:	bd70      	pop	{r4, r5, r6, pc}
                valid_ = false;
   d443e:	7528      	strb	r0, [r5, #20]
                return *this;
   d4440:	e7fb      	b.n	d443a <_ZN8particle24SystemSleepConfiguration8durationEm+0x3e>
                reinterpret_cast<hal_wakeup_source_rtc_t*>(wakeup)->ms = ms;
   d4442:	60de      	str	r6, [r3, #12]
                return *this;
   d4444:	e7f9      	b.n	d443a <_ZN8particle24SystemSleepConfiguration8durationEm+0x3e>
   d4446:	bf00      	nop
   d4448:	000de9d4 	.word	0x000de9d4
   d444c:	00030010 	.word	0x00030010

000d4450 <_ZN11SystemClass6millisEv>:
        HAL_Core_Button_Mirror_Pin_Disable((uint8_t)bootloader, 0, NULL);
    }

    // This function is similar to the global millis() but returns a 64-bit value
    static uint64_t millis() {
        return hal_timer_millis(nullptr);
   d4450:	2000      	movs	r0, #0
   d4452:	f003 ba0f 	b.w	d7874 <hal_timer_millis>
	...

000d4458 <_ZN10CloudClass9_functionEPKcPFi6StringE>:
    static bool _function(const char *funcKey, user_function_int_str_t* func)
   d4458:	4602      	mov	r2, r0
        return register_function(call_raw_user_function, (void*)func, funcKey);
   d445a:	4801      	ldr	r0, [pc, #4]	; (d4460 <_ZN10CloudClass9_functionEPKcPFi6StringE+0x8>)
   d445c:	f003 bf16 	b.w	d828c <_ZN10CloudClass17register_functionEPFiPvPKcS0_ES0_S2_>
   d4460:	000d8261 	.word	0x000d8261

000d4464 <_ZNK5spark6Logger4infoEPKcz>:
    va_start(args, fmt);
    log(LOG_LEVEL_TRACE, fmt, args);
    va_end(args);
}

inline void spark::Logger::info(const char *fmt, ...) const {
   d4464:	b40e      	push	{r1, r2, r3}
   d4466:	b510      	push	{r4, lr}
   d4468:	b08d      	sub	sp, #52	; 0x34
   d446a:	aa0f      	add	r2, sp, #60	; 0x3c
    va_list args;
    va_start(args, fmt);
    log(LOG_LEVEL_INFO, fmt, args);
   d446c:	6801      	ldr	r1, [r0, #0]
inline void spark::Logger::info(const char *fmt, ...) const {
   d446e:	f852 4b04 	ldr.w	r4, [r2], #4
    va_start(args, fmt);
   d4472:	9203      	str	r2, [sp, #12]
}

inline void spark::Logger::log(LogLevel level, const char *fmt, va_list args) const {
    LogAttributes attr;
    attr.size = sizeof(LogAttributes);
    attr.flags = 0;
   d4474:	2300      	movs	r3, #0
   d4476:	2020      	movs	r0, #32
   d4478:	e9cd 0304 	strd	r0, r3, [sp, #16]
    log_message_v(level, name_, &attr, nullptr, fmt, args);
   d447c:	e9cd 4200 	strd	r4, r2, [sp]
   d4480:	201e      	movs	r0, #30
   d4482:	aa04      	add	r2, sp, #16
   d4484:	f003 fb6e 	bl	d7b64 <log_message_v>
}
   d4488:	b00d      	add	sp, #52	; 0x34
   d448a:	e8bd 4010 	ldmia.w	sp!, {r4, lr}
   d448e:	b003      	add	sp, #12
   d4490:	4770      	bx	lr

000d4492 <_ZNK5spark6Logger5errorEPKcz>:
inline void spark::Logger::error(const char *fmt, ...) const {
   d4492:	b40e      	push	{r1, r2, r3}
   d4494:	b510      	push	{r4, lr}
   d4496:	b08d      	sub	sp, #52	; 0x34
   d4498:	aa0f      	add	r2, sp, #60	; 0x3c
    log(LOG_LEVEL_ERROR, fmt, args);
   d449a:	6801      	ldr	r1, [r0, #0]
inline void spark::Logger::error(const char *fmt, ...) const {
   d449c:	f852 4b04 	ldr.w	r4, [r2], #4
    va_start(args, fmt);
   d44a0:	9203      	str	r2, [sp, #12]
    attr.flags = 0;
   d44a2:	2300      	movs	r3, #0
   d44a4:	2020      	movs	r0, #32
   d44a6:	e9cd 0304 	strd	r0, r3, [sp, #16]
    log_message_v(level, name_, &attr, nullptr, fmt, args);
   d44aa:	e9cd 4200 	strd	r4, r2, [sp]
   d44ae:	2032      	movs	r0, #50	; 0x32
   d44b0:	aa04      	add	r2, sp, #16
   d44b2:	f003 fb57 	bl	d7b64 <log_message_v>
}
   d44b6:	b00d      	add	sp, #52	; 0x34
   d44b8:	e8bd 4010 	ldmia.w	sp!, {r4, lr}
   d44bc:	b003      	add	sp, #12
   d44be:	4770      	bx	lr

000d44c0 <_ZN21PublishQueueAsyncBase7publishEPKcS1_N8particle5FlagsI15PublishFlagTypehEES5_>:
	inline  bool publish(const char *eventName, const char *data, PublishFlags flags1, PublishFlags flags2 = PublishFlags()) {
   d44c0:	b537      	push	{r0, r1, r2, r4, r5, lr}
		return publishCommon(eventName, data, 60, flags1, flags2);
   d44c2:	6804      	ldr	r4, [r0, #0]
	inline  bool publish(const char *eventName, const char *data, PublishFlags flags1, PublishFlags flags2 = PublishFlags()) {
   d44c4:	f89d 5018 	ldrb.w	r5, [sp, #24]
		return publishCommon(eventName, data, 60, flags1, flags2);
   d44c8:	f88d 3000 	strb.w	r3, [sp]
   d44cc:	f88d 5004 	strb.w	r5, [sp, #4]
   d44d0:	68e4      	ldr	r4, [r4, #12]
   d44d2:	233c      	movs	r3, #60	; 0x3c
   d44d4:	47a0      	blx	r4
	}
   d44d6:	b003      	add	sp, #12
   d44d8:	bd30      	pop	{r4, r5, pc}
	...

000d44dc <_Z14UbidotsHandlerPKcS0_>:
void UbidotsHandler(const char *event, const char *data) {            // Looks at the response from Ubidots - Will reset Photon if no successful response
   d44dc:	b530      	push	{r4, r5, lr}
  if (!strlen(data)) {                                                // No data in response - Error
   d44de:	780b      	ldrb	r3, [r1, #0]
   d44e0:	4d1c      	ldr	r5, [pc, #112]	; (d4554 <_Z14UbidotsHandlerPKcS0_+0x78>)
void UbidotsHandler(const char *event, const char *data) {            // Looks at the response from Ubidots - Will reset Photon if no successful response
   d44e2:	b093      	sub	sp, #76	; 0x4c
   d44e4:	460c      	mov	r4, r1
  if (!strlen(data)) {                                                // No data in response - Error
   d44e6:	b993      	cbnz	r3, d450e <_Z14UbidotsHandlerPKcS0_+0x32>
    snprintf(responseString, sizeof(responseString),"No Data");
   d44e8:	491b      	ldr	r1, [pc, #108]	; (d4558 <_Z14UbidotsHandlerPKcS0_+0x7c>)
   d44ea:	a802      	add	r0, sp, #8
   d44ec:	f007 fc13 	bl	dbd16 <strcpy>
  if (sysStatus.verboseMode) publishQueue.publish("Ubidots Hook", responseString, PRIVATE, WITH_ACK);
   d44f0:	792b      	ldrb	r3, [r5, #4]
   d44f2:	b153      	cbz	r3, d450a <_Z14UbidotsHandlerPKcS0_+0x2e>
inline particle::Flag<TagT, ValueT>::operator ValueT() const {
    return val_;
}

template<typename TagT, typename ValueT>
inline ValueT particle::Flag<TagT, ValueT>::value() const {
   d44f4:	4b19      	ldr	r3, [pc, #100]	; (d455c <_Z14UbidotsHandlerPKcS0_+0x80>)
   d44f6:	491a      	ldr	r1, [pc, #104]	; (d4560 <_Z14UbidotsHandlerPKcS0_+0x84>)
   d44f8:	781b      	ldrb	r3, [r3, #0]
   d44fa:	f88d 3000 	strb.w	r3, [sp]
   d44fe:	4b19      	ldr	r3, [pc, #100]	; (d4564 <_Z14UbidotsHandlerPKcS0_+0x88>)
   d4500:	4819      	ldr	r0, [pc, #100]	; (d4568 <_Z14UbidotsHandlerPKcS0_+0x8c>)
   d4502:	781b      	ldrb	r3, [r3, #0]
   d4504:	aa02      	add	r2, sp, #8
   d4506:	f7ff ffdb 	bl	d44c0 <_ZN21PublishQueueAsyncBase7publishEPKcS1_N8particle5FlagsI15PublishFlagTypehEES5_>
}
   d450a:	b013      	add	sp, #76	; 0x4c
   d450c:	bd30      	pop	{r4, r5, pc}
  else if (atoi(data) == 200 || atoi(data) == 201) {
   d450e:	4608      	mov	r0, r1
   d4510:	f007 fb68 	bl	dbbe4 <atoi>
   d4514:	28c8      	cmp	r0, #200	; 0xc8
   d4516:	d10d      	bne.n	d4534 <_Z14UbidotsHandlerPKcS0_+0x58>
    snprintf(responseString, sizeof(responseString),"Response Received");
   d4518:	4914      	ldr	r1, [pc, #80]	; (d456c <_Z14UbidotsHandlerPKcS0_+0x90>)
   d451a:	a802      	add	r0, sp, #8
   d451c:	f007 fbfb 	bl	dbd16 <strcpy>
    sysStatus.lastHookResponse = Time.now();                          // Record the last successful Webhook Response
   d4520:	f006 fab5 	bl	daa8e <_ZN9TimeClass3nowEv>
    systemStatusWriteNeeded = true;
   d4524:	4b12      	ldr	r3, [pc, #72]	; (d4570 <_Z14UbidotsHandlerPKcS0_+0x94>)
    sysStatus.lastHookResponse = Time.now();                          // Record the last successful Webhook Response
   d4526:	6228      	str	r0, [r5, #32]
    systemStatusWriteNeeded = true;
   d4528:	2201      	movs	r2, #1
   d452a:	701a      	strb	r2, [r3, #0]
    dataInFlight = false;                                             // Data has been received
   d452c:	4b11      	ldr	r3, [pc, #68]	; (d4574 <_Z14UbidotsHandlerPKcS0_+0x98>)
   d452e:	2200      	movs	r2, #0
   d4530:	701a      	strb	r2, [r3, #0]
   d4532:	e7dd      	b.n	d44f0 <_Z14UbidotsHandlerPKcS0_+0x14>
  else if (atoi(data) == 200 || atoi(data) == 201) {
   d4534:	4620      	mov	r0, r4
   d4536:	f007 fb55 	bl	dbbe4 <atoi>
   d453a:	28c9      	cmp	r0, #201	; 0xc9
   d453c:	d0ec      	beq.n	d4518 <_Z14UbidotsHandlerPKcS0_+0x3c>
    snprintf(responseString, sizeof(responseString), "Unknown response recevied %i",atoi(data));
   d453e:	4620      	mov	r0, r4
   d4540:	f007 fb50 	bl	dbbe4 <atoi>
   d4544:	4a0c      	ldr	r2, [pc, #48]	; (d4578 <_Z14UbidotsHandlerPKcS0_+0x9c>)
   d4546:	4603      	mov	r3, r0
   d4548:	2140      	movs	r1, #64	; 0x40
   d454a:	a802      	add	r0, sp, #8
   d454c:	f003 fc96 	bl	d7e7c <snprintf>
   d4550:	e7ce      	b.n	d44f0 <_Z14UbidotsHandlerPKcS0_+0x14>
   d4552:	bf00      	nop
   d4554:	2003e534 	.word	0x2003e534
   d4558:	000ddc65 	.word	0x000ddc65
   d455c:	2003e411 	.word	0x2003e411
   d4560:	000ddc9c 	.word	0x000ddc9c
   d4564:	2003e410 	.word	0x2003e410
   d4568:	2003e4ec 	.word	0x2003e4ec
   d456c:	000ddc6d 	.word	0x000ddc6d
   d4570:	2003e568 	.word	0x2003e568
   d4574:	2003e497 	.word	0x2003e497
   d4578:	000ddc7f 	.word	0x000ddc7f

000d457c <_Z12hardResetNow6String>:
{
   d457c:	b507      	push	{r0, r1, r2, lr}
   d457e:	490b      	ldr	r1, [pc, #44]	; (d45ac <_Z12hardResetNow6String+0x30>)
   d4580:	f005 ff95 	bl	da4ae <_ZNK6String6equalsEPKc>
  if (command == "1")
   d4584:	b170      	cbz	r0, d45a4 <_Z12hardResetNow6String+0x28>
    publishQueue.publish("Reset","Hard Reset in 2 seconds",PRIVATE);
   d4586:	2300      	movs	r3, #0
   d4588:	f88d 3000 	strb.w	r3, [sp]
   d458c:	4b08      	ldr	r3, [pc, #32]	; (d45b0 <_Z12hardResetNow6String+0x34>)
   d458e:	4a09      	ldr	r2, [pc, #36]	; (d45b4 <_Z12hardResetNow6String+0x38>)
   d4590:	781b      	ldrb	r3, [r3, #0]
   d4592:	4909      	ldr	r1, [pc, #36]	; (d45b8 <_Z12hardResetNow6String+0x3c>)
   d4594:	4809      	ldr	r0, [pc, #36]	; (d45bc <_Z12hardResetNow6String+0x40>)
   d4596:	f7ff ff93 	bl	d44c0 <_ZN21PublishQueueAsyncBase7publishEPKcS1_N8particle5FlagsI15PublishFlagTypehEES5_>
    ab1805.deepPowerDown(10);
   d459a:	4809      	ldr	r0, [pc, #36]	; (d45c0 <_Z12hardResetNow6String+0x44>)
   d459c:	210a      	movs	r1, #10
   d459e:	f002 f921 	bl	d67e4 <_ZN6AB180513deepPowerDownEi>
   d45a2:	2001      	movs	r0, #1
}
   d45a4:	b003      	add	sp, #12
   d45a6:	f85d fb04 	ldr.w	pc, [sp], #4
   d45aa:	bf00      	nop
   d45ac:	000ddc30 	.word	0x000ddc30
   d45b0:	2003e410 	.word	0x2003e410
   d45b4:	000ddca9 	.word	0x000ddca9
   d45b8:	000de0d0 	.word	0x000de0d0
   d45bc:	2003e4ec 	.word	0x2003e4ec
   d45c0:	2003e418 	.word	0x2003e418

000d45c4 <_Z14setVerboseMode6String>:
{
   d45c4:	b537      	push	{r0, r1, r2, r4, r5, lr}
   d45c6:	4919      	ldr	r1, [pc, #100]	; (d462c <_Z14setVerboseMode6String+0x68>)
   d45c8:	4605      	mov	r5, r0
   d45ca:	f005 ff70 	bl	da4ae <_ZNK6String6equalsEPKc>
  if (command == "1")
   d45ce:	4604      	mov	r4, r0
   d45d0:	b1b0      	cbz	r0, d4600 <_Z14setVerboseMode6String+0x3c>
    sysStatus.verboseMode = true;
   d45d2:	4b17      	ldr	r3, [pc, #92]	; (d4630 <_Z14setVerboseMode6String+0x6c>)
    systemStatusWriteNeeded = true;
   d45d4:	4a17      	ldr	r2, [pc, #92]	; (d4634 <_Z14setVerboseMode6String+0x70>)
    sysStatus.verboseMode = true;
   d45d6:	2401      	movs	r4, #1
   d45d8:	711c      	strb	r4, [r3, #4]
    if (sysStatus.connectedStatus) publishQueue.publish("Mode","Set Verbose Mode", PRIVATE, WITH_ACK);
   d45da:	78db      	ldrb	r3, [r3, #3]
    systemStatusWriteNeeded = true;
   d45dc:	7014      	strb	r4, [r2, #0]
    if (sysStatus.connectedStatus) publishQueue.publish("Mode","Set Verbose Mode", PRIVATE, WITH_ACK);
   d45de:	b913      	cbnz	r3, d45e6 <_Z14setVerboseMode6String+0x22>
    return 1;
   d45e0:	2001      	movs	r0, #1
}
   d45e2:	b003      	add	sp, #12
   d45e4:	bd30      	pop	{r4, r5, pc}
   d45e6:	4b14      	ldr	r3, [pc, #80]	; (d4638 <_Z14setVerboseMode6String+0x74>)
    if (sysStatus.connectedStatus) publishQueue.publish("Mode","Set Verbose Mode", PRIVATE, WITH_ACK);
   d45e8:	4a14      	ldr	r2, [pc, #80]	; (d463c <_Z14setVerboseMode6String+0x78>)
   d45ea:	781b      	ldrb	r3, [r3, #0]
   d45ec:	f88d 3000 	strb.w	r3, [sp]
   d45f0:	4b13      	ldr	r3, [pc, #76]	; (d4640 <_Z14setVerboseMode6String+0x7c>)
   d45f2:	781b      	ldrb	r3, [r3, #0]
    if (sysStatus.connectedStatus) publishQueue.publish("Mode","Cleared Verbose Mode", PRIVATE, WITH_ACK);
   d45f4:	4913      	ldr	r1, [pc, #76]	; (d4644 <_Z14setVerboseMode6String+0x80>)
   d45f6:	4814      	ldr	r0, [pc, #80]	; (d4648 <_Z14setVerboseMode6String+0x84>)
   d45f8:	f7ff ff62 	bl	d44c0 <_ZN21PublishQueueAsyncBase7publishEPKcS1_N8particle5FlagsI15PublishFlagTypehEES5_>
   d45fc:	4620      	mov	r0, r4
   d45fe:	e7f0      	b.n	d45e2 <_Z14setVerboseMode6String+0x1e>
   d4600:	4912      	ldr	r1, [pc, #72]	; (d464c <_Z14setVerboseMode6String+0x88>)
   d4602:	4628      	mov	r0, r5
   d4604:	f005 ff53 	bl	da4ae <_ZNK6String6equalsEPKc>
  else if (command == "0")
   d4608:	2800      	cmp	r0, #0
   d460a:	d0ea      	beq.n	d45e2 <_Z14setVerboseMode6String+0x1e>
    sysStatus.verboseMode = false;
   d460c:	4b08      	ldr	r3, [pc, #32]	; (d4630 <_Z14setVerboseMode6String+0x6c>)
    systemStatusWriteNeeded = true;
   d460e:	4a09      	ldr	r2, [pc, #36]	; (d4634 <_Z14setVerboseMode6String+0x70>)
    sysStatus.verboseMode = false;
   d4610:	711c      	strb	r4, [r3, #4]
    if (sysStatus.connectedStatus) publishQueue.publish("Mode","Cleared Verbose Mode", PRIVATE, WITH_ACK);
   d4612:	78db      	ldrb	r3, [r3, #3]
    systemStatusWriteNeeded = true;
   d4614:	2401      	movs	r4, #1
   d4616:	7014      	strb	r4, [r2, #0]
    if (sysStatus.connectedStatus) publishQueue.publish("Mode","Cleared Verbose Mode", PRIVATE, WITH_ACK);
   d4618:	2b00      	cmp	r3, #0
   d461a:	d0e1      	beq.n	d45e0 <_Z14setVerboseMode6String+0x1c>
   d461c:	4b06      	ldr	r3, [pc, #24]	; (d4638 <_Z14setVerboseMode6String+0x74>)
   d461e:	4a0c      	ldr	r2, [pc, #48]	; (d4650 <_Z14setVerboseMode6String+0x8c>)
   d4620:	781b      	ldrb	r3, [r3, #0]
   d4622:	f88d 3000 	strb.w	r3, [sp]
   d4626:	4b06      	ldr	r3, [pc, #24]	; (d4640 <_Z14setVerboseMode6String+0x7c>)
   d4628:	781b      	ldrb	r3, [r3, #0]
   d462a:	e7e3      	b.n	d45f4 <_Z14setVerboseMode6String+0x30>
   d462c:	000ddc30 	.word	0x000ddc30
   d4630:	2003e534 	.word	0x2003e534
   d4634:	2003e568 	.word	0x2003e568
   d4638:	2003e411 	.word	0x2003e411
   d463c:	000ddcc1 	.word	0x000ddcc1
   d4640:	2003e410 	.word	0x2003e410
   d4644:	000dde27 	.word	0x000dde27
   d4648:	2003e4ec 	.word	0x2003e4ec
   d464c:	000dde33 	.word	0x000dde33
   d4650:	000ddcd2 	.word	0x000ddcd2

000d4654 <_Z11setOpenTime6String.part.0>:
 * @param command A string indicating what the closing hour of the facility is in 24-hour time.
 * Inputs outside of "0" - "24" will cause the function to return 0 to indicate an invalid entry.
 * 
 * @return 1 if able to successfully take action, 0 if invalid command
 */
int setOpenTime(String command)
   d4654:	b500      	push	{lr}
  if ((tempTime < 0) || (tempTime > 23)) return 0;                            // Make sure it falls in a valid range or send a "fail" result
  sysStatus.openTime = tempTime;
  makeUpParkHourStrings();                                                    // Create the strings for the console
  systemStatusWriteNeeded = true;                                            // Need to store to FRAM back in the main loop
  if (sysStatus.connectedStatus) {
    snprintf(data, sizeof(data), "Open time set to %i",sysStatus.openTime);
   d4656:	4b0c      	ldr	r3, [pc, #48]	; (d4688 <_Z11setOpenTime6String.part.0+0x34>)
   d4658:	4a0c      	ldr	r2, [pc, #48]	; (d468c <_Z11setOpenTime6String.part.0+0x38>)
   d465a:	7f1b      	ldrb	r3, [r3, #28]
int setOpenTime(String command)
   d465c:	b0c3      	sub	sp, #268	; 0x10c
    snprintf(data, sizeof(data), "Open time set to %i",sysStatus.openTime);
   d465e:	f44f 7180 	mov.w	r1, #256	; 0x100
   d4662:	a802      	add	r0, sp, #8
   d4664:	f003 fc0a 	bl	d7e7c <snprintf>
   d4668:	4b09      	ldr	r3, [pc, #36]	; (d4690 <_Z11setOpenTime6String.part.0+0x3c>)
    publishQueue.publish("Time",data, PRIVATE, WITH_ACK);
   d466a:	490a      	ldr	r1, [pc, #40]	; (d4694 <_Z11setOpenTime6String.part.0+0x40>)
   d466c:	781b      	ldrb	r3, [r3, #0]
   d466e:	f88d 3000 	strb.w	r3, [sp]
   d4672:	4b09      	ldr	r3, [pc, #36]	; (d4698 <_Z11setOpenTime6String.part.0+0x44>)
   d4674:	4809      	ldr	r0, [pc, #36]	; (d469c <_Z11setOpenTime6String.part.0+0x48>)
   d4676:	781b      	ldrb	r3, [r3, #0]
   d4678:	aa02      	add	r2, sp, #8
   d467a:	f7ff ff21 	bl	d44c0 <_ZN21PublishQueueAsyncBase7publishEPKcS1_N8particle5FlagsI15PublishFlagTypehEES5_>
  }
  return 1;
}
   d467e:	2001      	movs	r0, #1
   d4680:	b043      	add	sp, #268	; 0x10c
   d4682:	f85d fb04 	ldr.w	pc, [sp], #4
   d4686:	bf00      	nop
   d4688:	2003e534 	.word	0x2003e534
   d468c:	000ddce7 	.word	0x000ddce7
   d4690:	2003e411 	.word	0x2003e411
   d4694:	000ddf01 	.word	0x000ddf01
   d4698:	2003e410 	.word	0x2003e410
   d469c:	2003e4ec 	.word	0x2003e4ec

000d46a0 <_Z15setLowPowerMode6String>:
 * will cause the function to return 0 to indicate an invalid entry.
 * 
 * @return 1 if able to successfully take action, 0 if invalid command
 */
int setLowPowerMode(String command)                                   // This is where we can put the device into low power mode if needed
{
   d46a0:	b513      	push	{r0, r1, r4, lr}
	unsigned char operator != (const String &rhs) const {return !equals(rhs);}
	unsigned char operator != (const char *cstr) const {return !equals(cstr);}
   d46a2:	4925      	ldr	r1, [pc, #148]	; (d4738 <_Z15setLowPowerMode6String+0x98>)
   d46a4:	4604      	mov	r4, r0
   d46a6:	f005 ff02 	bl	da4ae <_ZNK6String6equalsEPKc>
  if (command != "1" && command != "0") return 0;                     // Before we begin, let's make sure we have a valid input
   d46aa:	b320      	cbz	r0, d46f6 <_Z15setLowPowerMode6String+0x56>
	unsigned char operator == (const char *cstr) const {return equals(cstr);}
   d46ac:	4922      	ldr	r1, [pc, #136]	; (d4738 <_Z15setLowPowerMode6String+0x98>)
   d46ae:	4620      	mov	r0, r4
   d46b0:	f005 fefd 	bl	da4ae <_ZNK6String6equalsEPKc>
  if (command == "1")                                                 // Command calls for setting lowPowerMode
   d46b4:	bb38      	cbnz	r0, d4706 <_Z15setLowPowerMode6String+0x66>
   d46b6:	4921      	ldr	r1, [pc, #132]	; (d473c <_Z15setLowPowerMode6String+0x9c>)
   d46b8:	4620      	mov	r0, r4
   d46ba:	f005 fef8 	bl	da4ae <_ZNK6String6equalsEPKc>
      publishQueue.publish("Mode","Low Power Mode", PRIVATE, WITH_ACK);
    }
    sysStatus.lowPowerMode = true;
    strncpy(lowPowerModeStr,"Low Power", sizeof(lowPowerModeStr));
  }
  else if (command == "0")                                            // Command calls for clearing lowPowerMode
   d46be:	2800      	cmp	r0, #0
   d46c0:	d036      	beq.n	d4730 <_Z15setLowPowerMode6String+0x90>
  {
    if (!sysStatus.connectedStatus) {                                      // In case we are not connected, we will do so now.
   d46c2:	4c1f      	ldr	r4, [pc, #124]	; (d4740 <_Z15setLowPowerMode6String+0xa0>)
   d46c4:	78e2      	ldrb	r2, [r4, #3]
   d46c6:	b912      	cbnz	r2, d46ce <_Z15setLowPowerMode6String+0x2e>
      particleConnectionNeeded = true;
   d46c8:	4b1e      	ldr	r3, [pc, #120]	; (d4744 <_Z15setLowPowerMode6String+0xa4>)
   d46ca:	2201      	movs	r2, #1
   d46cc:	701a      	strb	r2, [r3, #0]
   d46ce:	4b1e      	ldr	r3, [pc, #120]	; (d4748 <_Z15setLowPowerMode6String+0xa8>)
    }
    publishQueue.publish("Mode","Normal Operations", PRIVATE, WITH_ACK);
   d46d0:	4a1e      	ldr	r2, [pc, #120]	; (d474c <_Z15setLowPowerMode6String+0xac>)
   d46d2:	781b      	ldrb	r3, [r3, #0]
   d46d4:	f88d 3000 	strb.w	r3, [sp]
   d46d8:	4b1d      	ldr	r3, [pc, #116]	; (d4750 <_Z15setLowPowerMode6String+0xb0>)
   d46da:	491e      	ldr	r1, [pc, #120]	; (d4754 <_Z15setLowPowerMode6String+0xb4>)
   d46dc:	781b      	ldrb	r3, [r3, #0]
   d46de:	481e      	ldr	r0, [pc, #120]	; (d4758 <_Z15setLowPowerMode6String+0xb8>)
   d46e0:	f7ff feee 	bl	d44c0 <_ZN21PublishQueueAsyncBase7publishEPKcS1_N8particle5FlagsI15PublishFlagTypehEES5_>
    delay(1000);                                                      // Need to make sure the message gets out.
   d46e4:	f44f 707a 	mov.w	r0, #1000	; 0x3e8
   d46e8:	f003 fc1c 	bl	d7f24 <delay>
    sysStatus.lowPowerMode = false;                                   // update the variable used for console status
   d46ec:	2300      	movs	r3, #0
    strncpy(lowPowerModeStr,"Not Low Power", sizeof(lowPowerModeStr));        // Use capitalization so we know that we set this.
   d46ee:	491b      	ldr	r1, [pc, #108]	; (d475c <_Z15setLowPowerMode6String+0xbc>)
    sysStatus.lowPowerMode = false;                                   // update the variable used for console status
   d46f0:	71a3      	strb	r3, [r4, #6]
    strncpy(lowPowerModeStr,"Not Low Power", sizeof(lowPowerModeStr));        // Use capitalization so we know that we set this.
   d46f2:	2210      	movs	r2, #16
   d46f4:	e019      	b.n	d472a <_Z15setLowPowerMode6String+0x8a>
	unsigned char operator != (const char *cstr) const {return !equals(cstr);}
   d46f6:	4911      	ldr	r1, [pc, #68]	; (d473c <_Z15setLowPowerMode6String+0x9c>)
   d46f8:	4620      	mov	r0, r4
   d46fa:	f005 fed8 	bl	da4ae <_ZNK6String6equalsEPKc>
  if (command != "1" && command != "0") return 0;                     // Before we begin, let's make sure we have a valid input
   d46fe:	2800      	cmp	r0, #0
   d4700:	d1d4      	bne.n	d46ac <_Z15setLowPowerMode6String+0xc>
  }
  systemStatusWriteNeeded = true;
  return 1;
}
   d4702:	b002      	add	sp, #8
   d4704:	bd10      	pop	{r4, pc}
    if (sysStatus.connectedStatus) {
   d4706:	4c0e      	ldr	r4, [pc, #56]	; (d4740 <_Z15setLowPowerMode6String+0xa0>)
   d4708:	78e2      	ldrb	r2, [r4, #3]
   d470a:	b152      	cbz	r2, d4722 <_Z15setLowPowerMode6String+0x82>
   d470c:	4b0e      	ldr	r3, [pc, #56]	; (d4748 <_Z15setLowPowerMode6String+0xa8>)
      publishQueue.publish("Mode","Low Power Mode", PRIVATE, WITH_ACK);
   d470e:	4a14      	ldr	r2, [pc, #80]	; (d4760 <_Z15setLowPowerMode6String+0xc0>)
   d4710:	781b      	ldrb	r3, [r3, #0]
   d4712:	f88d 3000 	strb.w	r3, [sp]
   d4716:	4b0e      	ldr	r3, [pc, #56]	; (d4750 <_Z15setLowPowerMode6String+0xb0>)
   d4718:	490e      	ldr	r1, [pc, #56]	; (d4754 <_Z15setLowPowerMode6String+0xb4>)
   d471a:	781b      	ldrb	r3, [r3, #0]
   d471c:	480e      	ldr	r0, [pc, #56]	; (d4758 <_Z15setLowPowerMode6String+0xb8>)
   d471e:	f7ff fecf 	bl	d44c0 <_ZN21PublishQueueAsyncBase7publishEPKcS1_N8particle5FlagsI15PublishFlagTypehEES5_>
    sysStatus.lowPowerMode = true;
   d4722:	2301      	movs	r3, #1
    strncpy(lowPowerModeStr,"Low Power", sizeof(lowPowerModeStr));
   d4724:	490f      	ldr	r1, [pc, #60]	; (d4764 <_Z15setLowPowerMode6String+0xc4>)
    sysStatus.lowPowerMode = true;
   d4726:	71a3      	strb	r3, [r4, #6]
    strncpy(lowPowerModeStr,"Low Power", sizeof(lowPowerModeStr));
   d4728:	2210      	movs	r2, #16
    strncpy(lowPowerModeStr,"Not Low Power", sizeof(lowPowerModeStr));        // Use capitalization so we know that we set this.
   d472a:	480f      	ldr	r0, [pc, #60]	; (d4768 <_Z15setLowPowerMode6String+0xc8>)
   d472c:	f007 fb33 	bl	dbd96 <strncpy>
  systemStatusWriteNeeded = true;
   d4730:	4b0e      	ldr	r3, [pc, #56]	; (d476c <_Z15setLowPowerMode6String+0xcc>)
   d4732:	2001      	movs	r0, #1
   d4734:	7018      	strb	r0, [r3, #0]
  return 1;
   d4736:	e7e4      	b.n	d4702 <_Z15setLowPowerMode6String+0x62>
   d4738:	000ddc30 	.word	0x000ddc30
   d473c:	000dde33 	.word	0x000dde33
   d4740:	2003e534 	.word	0x2003e534
   d4744:	2003e4e9 	.word	0x2003e4e9
   d4748:	2003e411 	.word	0x2003e411
   d474c:	000ddd0a 	.word	0x000ddd0a
   d4750:	2003e410 	.word	0x2003e410
   d4754:	000dde27 	.word	0x000dde27
   d4758:	2003e4ec 	.word	0x2003e4ec
   d475c:	000ddd1c 	.word	0x000ddd1c
   d4760:	000ddcfb 	.word	0x000ddcfb
   d4764:	000ddd20 	.word	0x000ddd20
   d4768:	2003e4d8 	.word	0x2003e4d8
   d476c:	2003e568 	.word	0x2003e568

000d4770 <_Z17setWaterThreshold6String>:
 * will cause the function to return 0 to indicate an invalid entry.
 * 
 * @return 1 if able to successfully take action, 0 if invalid command
 */
int setWaterThreshold(String command)                                       // This is the amount of time in seconds we will wait before starting a new session
{
   d4770:	b57f      	push	{r0, r1, r2, r3, r4, r5, r6, lr}
  char * pEND;
  float tempThreshold = strtof(command,&pEND);                        // Looks for the first float and interprets it
   d4772:	6800      	ldr	r0, [r0, #0]
   d4774:	a903      	add	r1, sp, #12
   d4776:	f008 f95d 	bl	dca34 <strtof>
  if ((tempThreshold < 0.0) | (tempThreshold > 100.0)) return 0;        // Make sure it falls in a valid range or send a "fail" result
   d477a:	eeb5 0ac0 	vcmpe.f32	s0, #0.0
   d477e:	eef1 fa10 	vmrs	APSR_nzcv, fpscr
   d4782:	d42a      	bmi.n	d47da <_Z17setWaterThreshold6String+0x6a>
   d4784:	eddf 7a16 	vldr	s15, [pc, #88]	; d47e0 <_Z17setWaterThreshold6String+0x70>
   d4788:	eeb4 0ae7 	vcmpe.f32	s0, s15
   d478c:	eef1 fa10 	vmrs	APSR_nzcv, fpscr
   d4790:	bfcc      	ite	gt
   d4792:	2601      	movgt	r6, #1
   d4794:	2600      	movle	r6, #0
   d4796:	dc20      	bgt.n	d47da <_Z17setWaterThreshold6String+0x6a>
  sysStatus.wateringThresholdPct = tempThreshold;                          // debounce is how long we must space events to prevent overcounting
  systemStatusWriteNeeded = true;
   d4798:	4b12      	ldr	r3, [pc, #72]	; (d47e4 <_Z17setWaterThreshold6String+0x74>)
  sysStatus.wateringThresholdPct = tempThreshold;                          // debounce is how long we must space events to prevent overcounting
   d479a:	4d13      	ldr	r5, [pc, #76]	; (d47e8 <_Z17setWaterThreshold6String+0x78>)
  systemStatusWriteNeeded = true;
   d479c:	2401      	movs	r4, #1
   d479e:	701c      	strb	r4, [r3, #0]
  snprintf(wateringThresholdPctStr,sizeof(wateringThresholdPctStr),"%2.1f %%",sysStatus.wateringThresholdPct);
   d47a0:	ee10 0a10 	vmov	r0, s0
  sysStatus.wateringThresholdPct = tempThreshold;                          // debounce is how long we must space events to prevent overcounting
   d47a4:	ed85 0a0b 	vstr	s0, [r5, #44]	; 0x2c
  snprintf(wateringThresholdPctStr,sizeof(wateringThresholdPctStr),"%2.1f %%",sysStatus.wateringThresholdPct);
   d47a8:	f006 fe04 	bl	db3b4 <__aeabi_f2d>
   d47ac:	4a0f      	ldr	r2, [pc, #60]	; (d47ec <_Z17setWaterThreshold6String+0x7c>)
   d47ae:	e9cd 0100 	strd	r0, r1, [sp]
   d47b2:	480f      	ldr	r0, [pc, #60]	; (d47f0 <_Z17setWaterThreshold6String+0x80>)
   d47b4:	2108      	movs	r1, #8
   d47b6:	f003 fb61 	bl	d7e7c <snprintf>
  if (sysStatus.verboseMode && sysStatus.connectedStatus) {                                                  // Publish result if feeling verbose
   d47ba:	792b      	ldrb	r3, [r5, #4]
   d47bc:	b153      	cbz	r3, d47d4 <_Z17setWaterThreshold6String+0x64>
   d47be:	78eb      	ldrb	r3, [r5, #3]
   d47c0:	b143      	cbz	r3, d47d4 <_Z17setWaterThreshold6String+0x64>
    publishQueue.publish("Threshold",wateringThresholdPctStr, PRIVATE);
   d47c2:	4b0c      	ldr	r3, [pc, #48]	; (d47f4 <_Z17setWaterThreshold6String+0x84>)
   d47c4:	f88d 6000 	strb.w	r6, [sp]
   d47c8:	781b      	ldrb	r3, [r3, #0]
   d47ca:	4a09      	ldr	r2, [pc, #36]	; (d47f0 <_Z17setWaterThreshold6String+0x80>)
   d47cc:	490a      	ldr	r1, [pc, #40]	; (d47f8 <_Z17setWaterThreshold6String+0x88>)
   d47ce:	480b      	ldr	r0, [pc, #44]	; (d47fc <_Z17setWaterThreshold6String+0x8c>)
   d47d0:	f7ff fe76 	bl	d44c0 <_ZN21PublishQueueAsyncBase7publishEPKcS1_N8particle5FlagsI15PublishFlagTypehEES5_>
  }
  return 1;                                                           // Returns 1 to let the user know if was reset
}
   d47d4:	4620      	mov	r0, r4
   d47d6:	b004      	add	sp, #16
   d47d8:	bd70      	pop	{r4, r5, r6, pc}
  if ((tempThreshold < 0.0) | (tempThreshold > 100.0)) return 0;        // Make sure it falls in a valid range or send a "fail" result
   d47da:	2400      	movs	r4, #0
   d47dc:	e7fa      	b.n	d47d4 <_Z17setWaterThreshold6String+0x64>
   d47de:	bf00      	nop
   d47e0:	42c80000 	.word	0x42c80000
   d47e4:	2003e568 	.word	0x2003e568
   d47e8:	2003e534 	.word	0x2003e534
   d47ec:	000ddd2a 	.word	0x000ddd2a
   d47f0:	2003e579 	.word	0x2003e579
   d47f4:	2003e410 	.word	0x2003e410
   d47f8:	000ddfc1 	.word	0x000ddfc1
   d47fc:	2003e4ec 	.word	0x2003e4ec

000d4800 <_Z16setWaterDuration6String>:
 * @param Pass the wating duration in seconds.
 * 
 * @return 1 if able to successfully take action, 0 if invalid command
 */
int setWaterDuration(String command)                                       // This is the amount of time in seconds we will wait before starting a new session
{
   d4800:	b57f      	push	{r0, r1, r2, r3, r4, r5, r6, lr}
  char * pEND;
  float tempValue = strtol(command,&pEND,10);                        // Looks for the first float and interprets it
   d4802:	220a      	movs	r2, #10
   d4804:	6800      	ldr	r0, [r0, #0]
   d4806:	a903      	add	r1, sp, #12
   d4808:	f008 f9e8 	bl	dcbdc <strtol>
   d480c:	ee07 0a90 	vmov	s15, r0
   d4810:	eef8 7ae7 	vcvt.f32.s32	s15, s15
  if ((tempValue < 0) | (tempValue > 1000)) return 0;        // Make sure it falls in a valid range or send a "fail" result
   d4814:	eef5 7ac0 	vcmpe.f32	s15, #0.0
   d4818:	eef1 fa10 	vmrs	APSR_nzcv, fpscr
   d481c:	d428      	bmi.n	d4870 <_Z16setWaterDuration6String+0x70>
   d481e:	ed9f 7a15 	vldr	s14, [pc, #84]	; d4874 <_Z16setWaterDuration6String+0x74>
   d4822:	eef4 7ac7 	vcmpe.f32	s15, s14
   d4826:	eef1 fa10 	vmrs	APSR_nzcv, fpscr
   d482a:	bfcc      	ite	gt
   d482c:	2601      	movgt	r6, #1
   d482e:	2600      	movle	r6, #0
   d4830:	dc1e      	bgt.n	d4870 <_Z16setWaterDuration6String+0x70>
  sysStatus.wateringDuration = tempValue;                          // debounce is how long we must space events to prevent overcounting
   d4832:	eefd 7ae7 	vcvt.s32.f32	s15, s15
  systemStatusWriteNeeded = true;
   d4836:	4a10      	ldr	r2, [pc, #64]	; (d4878 <_Z16setWaterDuration6String+0x78>)
  sysStatus.wateringDuration = tempValue;                          // debounce is how long we must space events to prevent overcounting
   d4838:	4d10      	ldr	r5, [pc, #64]	; (d487c <_Z16setWaterDuration6String+0x7c>)
  snprintf(wateringDurationStr,sizeof(wateringDurationStr),"%i seconds",sysStatus.wateringDuration);
   d483a:	4811      	ldr	r0, [pc, #68]	; (d4880 <_Z16setWaterDuration6String+0x80>)
  sysStatus.wateringDuration = tempValue;                          // debounce is how long we must space events to prevent overcounting
   d483c:	edc5 7a0c 	vstr	s15, [r5, #48]	; 0x30
  systemStatusWriteNeeded = true;
   d4840:	2401      	movs	r4, #1
  sysStatus.wateringDuration = tempValue;                          // debounce is how long we must space events to prevent overcounting
   d4842:	ee17 3a90 	vmov	r3, s15
  systemStatusWriteNeeded = true;
   d4846:	7014      	strb	r4, [r2, #0]
  snprintf(wateringDurationStr,sizeof(wateringDurationStr),"%i seconds",sysStatus.wateringDuration);
   d4848:	2110      	movs	r1, #16
   d484a:	4a0e      	ldr	r2, [pc, #56]	; (d4884 <_Z16setWaterDuration6String+0x84>)
   d484c:	f003 fb16 	bl	d7e7c <snprintf>
  if (sysStatus.verboseMode && sysStatus.connectedStatus) {                                                  // Publish result if feeling verbose
   d4850:	792b      	ldrb	r3, [r5, #4]
   d4852:	b153      	cbz	r3, d486a <_Z16setWaterDuration6String+0x6a>
   d4854:	78eb      	ldrb	r3, [r5, #3]
   d4856:	b143      	cbz	r3, d486a <_Z16setWaterDuration6String+0x6a>
    publishQueue.publish("Duration",wateringDurationStr, PRIVATE);
   d4858:	4b0b      	ldr	r3, [pc, #44]	; (d4888 <_Z16setWaterDuration6String+0x88>)
   d485a:	f88d 6000 	strb.w	r6, [sp]
   d485e:	781b      	ldrb	r3, [r3, #0]
   d4860:	4a07      	ldr	r2, [pc, #28]	; (d4880 <_Z16setWaterDuration6String+0x80>)
   d4862:	490a      	ldr	r1, [pc, #40]	; (d488c <_Z16setWaterDuration6String+0x8c>)
   d4864:	480a      	ldr	r0, [pc, #40]	; (d4890 <_Z16setWaterDuration6String+0x90>)
   d4866:	f7ff fe2b 	bl	d44c0 <_ZN21PublishQueueAsyncBase7publishEPKcS1_N8particle5FlagsI15PublishFlagTypehEES5_>
  }
  return 1;                                                           // Returns 1 to let the user know if was reset
}
   d486a:	4620      	mov	r0, r4
   d486c:	b004      	add	sp, #16
   d486e:	bd70      	pop	{r4, r5, r6, pc}
  if ((tempValue < 0) | (tempValue > 1000)) return 0;        // Make sure it falls in a valid range or send a "fail" result
   d4870:	2400      	movs	r4, #0
   d4872:	e7fa      	b.n	d486a <_Z16setWaterDuration6String+0x6a>
   d4874:	447a0000 	.word	0x447a0000
   d4878:	2003e568 	.word	0x2003e568
   d487c:	2003e534 	.word	0x2003e534
   d4880:	2003e569 	.word	0x2003e569
   d4884:	000ddd33 	.word	0x000ddd33
   d4888:	2003e410 	.word	0x2003e410
   d488c:	000ddf3b 	.word	0x000ddf3b
   d4890:	2003e4ec 	.word	0x2003e4ec

000d4894 <_Z9sendEventv>:
void sendEvent() {
   d4894:	b500      	push	{lr}
   d4896:	b0c9      	sub	sp, #292	; 0x124
  unsigned long timeStampValue = Time.now();                                       // Going to start sending timestamps - and will modify for midnight to fix reporting issue
   d4898:	f006 f8f9 	bl	daa8e <_ZN9TimeClass3nowEv>
  snprintf(data, sizeof(data), "{\"soilMoisture\":%i, \"watering\":%i, \"battery\":%i,\"key1\":\"%s\",\"temp\":%i, \"resets\":%i, \"alerts\":%i, \"connecttime\":%i,\"timestamp\":%lu000}",current.soilMoisture, current.solenoidState, sysStatus.stateOfCharge, batteryContext[sysStatus.batteryState], current.temperature, sysStatus.resetCount, current.alertCount, sysStatus.lastConnectionDuration, timeStampValue);
   d489c:	4a15      	ldr	r2, [pc, #84]	; (d48f4 <_Z9sendEventv+0x60>)
   d489e:	9007      	str	r0, [sp, #28]
   d48a0:	8d11      	ldrh	r1, [r2, #40]	; 0x28
   d48a2:	4b15      	ldr	r3, [pc, #84]	; (d48f8 <_Z9sendEventv+0x64>)
   d48a4:	9106      	str	r1, [sp, #24]
   d48a6:	6919      	ldr	r1, [r3, #16]
   d48a8:	9105      	str	r1, [sp, #20]
   d48aa:	6911      	ldr	r1, [r2, #16]
   d48ac:	9104      	str	r1, [sp, #16]
   d48ae:	68d9      	ldr	r1, [r3, #12]
   d48b0:	9103      	str	r1, [sp, #12]
   d48b2:	7b10      	ldrb	r0, [r2, #12]
   d48b4:	4911      	ldr	r1, [pc, #68]	; (d48fc <_Z9sendEventv+0x68>)
   d48b6:	f851 1020 	ldr.w	r1, [r1, r0, lsl #2]
   d48ba:	9102      	str	r1, [sp, #8]
   d48bc:	6892      	ldr	r2, [r2, #8]
   d48be:	9201      	str	r2, [sp, #4]
   d48c0:	689a      	ldr	r2, [r3, #8]
   d48c2:	9200      	str	r2, [sp, #0]
   d48c4:	685b      	ldr	r3, [r3, #4]
   d48c6:	4a0e      	ldr	r2, [pc, #56]	; (d4900 <_Z9sendEventv+0x6c>)
   d48c8:	f44f 7180 	mov.w	r1, #256	; 0x100
   d48cc:	a808      	add	r0, sp, #32
   d48ce:	f003 fad5 	bl	d7e7c <snprintf>
   d48d2:	4b0c      	ldr	r3, [pc, #48]	; (d4904 <_Z9sendEventv+0x70>)
  publishQueue.publish("Ubidots-AquaMaster-Garden-v1", data, PRIVATE, WITH_ACK);
   d48d4:	490c      	ldr	r1, [pc, #48]	; (d4908 <_Z9sendEventv+0x74>)
   d48d6:	781b      	ldrb	r3, [r3, #0]
   d48d8:	f88d 3000 	strb.w	r3, [sp]
   d48dc:	4b0b      	ldr	r3, [pc, #44]	; (d490c <_Z9sendEventv+0x78>)
   d48de:	480c      	ldr	r0, [pc, #48]	; (d4910 <_Z9sendEventv+0x7c>)
   d48e0:	781b      	ldrb	r3, [r3, #0]
   d48e2:	aa08      	add	r2, sp, #32
   d48e4:	f7ff fdec 	bl	d44c0 <_ZN21PublishQueueAsyncBase7publishEPKcS1_N8particle5FlagsI15PublishFlagTypehEES5_>
  dataInFlight = true;                                                // set the data inflight flag
   d48e8:	4b0a      	ldr	r3, [pc, #40]	; (d4914 <_Z9sendEventv+0x80>)
   d48ea:	2201      	movs	r2, #1
   d48ec:	701a      	strb	r2, [r3, #0]
}
   d48ee:	b049      	add	sp, #292	; 0x124
   d48f0:	f85d fb04 	ldr.w	pc, [sp], #4
   d48f4:	2003e534 	.word	0x2003e534
   d48f8:	2003e46c 	.word	0x2003e46c
   d48fc:	2003e0d8 	.word	0x2003e0d8
   d4900:	000ddd3e 	.word	0x000ddd3e
   d4904:	2003e411 	.word	0x2003e411
   d4908:	000dddc4 	.word	0x000dddc4
   d490c:	2003e410 	.word	0x2003e410
   d4910:	2003e4ec 	.word	0x2003e4ec
   d4914:	2003e497 	.word	0x2003e497

000d4918 <_Z16isItSafeToChargev>:
{         
   d4918:	b513      	push	{r0, r1, r4, lr}
  PMIC pmic(true);                                 
   d491a:	2101      	movs	r1, #1
   d491c:	a801      	add	r0, sp, #4
   d491e:	f005 fbd8 	bl	da0d2 <_ZN4PMICC1Eb>
  if (current.temperature < 36 || current.temperature > 100 )  {      // Reference: https://batteryuniversity.com/learn/article/charging_at_high_and_low_temperatures (32 to 113 but with safety)
   d4922:	4b0b      	ldr	r3, [pc, #44]	; (d4950 <_Z16isItSafeToChargev+0x38>)
   d4924:	68db      	ldr	r3, [r3, #12]
   d4926:	3b24      	subs	r3, #36	; 0x24
   d4928:	2b40      	cmp	r3, #64	; 0x40
    pmic.disableCharging();                                           // It is too cold or too hot to safely charge the battery
   d492a:	a801      	add	r0, sp, #4
   d492c:	f04f 0401 	mov.w	r4, #1
  if (current.temperature < 36 || current.temperature > 100 )  {      // Reference: https://batteryuniversity.com/learn/article/charging_at_high_and_low_temperatures (32 to 113 but with safety)
   d4930:	d90a      	bls.n	d4948 <_Z16isItSafeToChargev+0x30>
    pmic.disableCharging();                                           // It is too cold or too hot to safely charge the battery
   d4932:	f005 fc61 	bl	da1f8 <_ZN4PMIC15disableChargingEv>
    sysStatus.batteryState = 1;                                       // Overwrites the values from the batteryState API to reflect that we are "Not Charging"
   d4936:	4b07      	ldr	r3, [pc, #28]	; (d4954 <_Z16isItSafeToChargev+0x3c>)
   d4938:	731c      	strb	r4, [r3, #12]
    return false;
   d493a:	2400      	movs	r4, #0
  PMIC pmic(true);                                 
   d493c:	a801      	add	r0, sp, #4
   d493e:	f005 fbd7 	bl	da0f0 <_ZN4PMICD1Ev>
}
   d4942:	4620      	mov	r0, r4
   d4944:	b002      	add	sp, #8
   d4946:	bd10      	pop	{r4, pc}
    pmic.enableCharging();                                            // It is safe to charge the battery
   d4948:	f005 fc3f 	bl	da1ca <_ZN4PMIC14enableChargingEv>
    return true;
   d494c:	e7f6      	b.n	d493c <_Z16isItSafeToChargev+0x24>
   d494e:	bf00      	nop
   d4950:	2003e46c 	.word	0x2003e46c
   d4954:	2003e534 	.word	0x2003e534

000d4958 <_Z17getSignalStrengthv>:
void getSignalStrength() {
   d4958:	b530      	push	{r4, r5, lr}
  const char* radioTech[10] = {"Unknown","None","WiFi","GSM","UMTS","CDMA","LTE","IEEE802154","LTE_CAT_M1","LTE_CAT_NB1"};
   d495a:	4d19      	ldr	r5, [pc, #100]	; (d49c0 <_Z17getSignalStrengthv+0x68>)
   d495c:	cd0f      	ldmia	r5!, {r0, r1, r2, r3}
void getSignalStrength() {
   d495e:	b099      	sub	sp, #100	; 0x64
  const char* radioTech[10] = {"Unknown","None","WiFi","GSM","UMTS","CDMA","LTE","IEEE802154","LTE_CAT_M1","LTE_CAT_NB1"};
   d4960:	ac04      	add	r4, sp, #16
   d4962:	c40f      	stmia	r4!, {r0, r1, r2, r3}
   d4964:	cd0f      	ldmia	r5!, {r0, r1, r2, r3}
   d4966:	c40f      	stmia	r4!, {r0, r1, r2, r3}
   d4968:	e895 0003 	ldmia.w	r5, {r0, r1}
   d496c:	e884 0003 	stmia.w	r4, {r0, r1}
  CellularSignal sig = Cellular.RSSI();
   d4970:	4914      	ldr	r1, [pc, #80]	; (d49c4 <_Z17getSignalStrengthv+0x6c>)
   d4972:	a80e      	add	r0, sp, #56	; 0x38
   d4974:	f003 fb3e 	bl	d7ff4 <_ZN5spark13CellularClass4RSSIEv>
  auto rat = sig.getAccessTechnology();
   d4978:	a80e      	add	r0, sp, #56	; 0x38
   d497a:	f003 fb8e 	bl	d809a <_ZNK14CellularSignal19getAccessTechnologyEv>
   d497e:	4604      	mov	r4, r0
  float strengthPercentage = sig.getStrength();
   d4980:	a80e      	add	r0, sp, #56	; 0x38
   d4982:	f003 fb93 	bl	d80ac <_ZNK14CellularSignal11getStrengthEv>
  float qualityPercentage = sig.getQuality();
   d4986:	a80e      	add	r0, sp, #56	; 0x38
  float strengthPercentage = sig.getStrength();
   d4988:	ee10 5a10 	vmov	r5, s0
  float qualityPercentage = sig.getQuality();
   d498c:	f003 fbbe 	bl	d810c <_ZNK14CellularSignal10getQualityEv>
  snprintf(SignalString,sizeof(SignalString), "%s S:%2.0f%%, Q:%2.0f%% ", radioTech[rat], strengthPercentage, qualityPercentage);
   d4990:	ab18      	add	r3, sp, #96	; 0x60
  float qualityPercentage = sig.getQuality();
   d4992:	ee10 0a10 	vmov	r0, s0
  snprintf(SignalString,sizeof(SignalString), "%s S:%2.0f%%, Q:%2.0f%% ", radioTech[rat], strengthPercentage, qualityPercentage);
   d4996:	eb03 0484 	add.w	r4, r3, r4, lsl #2
   d499a:	f006 fd0b 	bl	db3b4 <__aeabi_f2d>
   d499e:	e9cd 0102 	strd	r0, r1, [sp, #8]
   d49a2:	4628      	mov	r0, r5
   d49a4:	f006 fd06 	bl	db3b4 <__aeabi_f2d>
   d49a8:	e9cd 0100 	strd	r0, r1, [sp]
   d49ac:	4a06      	ldr	r2, [pc, #24]	; (d49c8 <_Z17getSignalStrengthv+0x70>)
   d49ae:	f854 3c50 	ldr.w	r3, [r4, #-80]
   d49b2:	4806      	ldr	r0, [pc, #24]	; (d49cc <_Z17getSignalStrengthv+0x74>)
   d49b4:	2140      	movs	r1, #64	; 0x40
   d49b6:	f003 fa61 	bl	d7e7c <snprintf>
}
   d49ba:	b019      	add	sp, #100	; 0x64
   d49bc:	bd30      	pop	{r4, r5, pc}
   d49be:	bf00      	nop
   d49c0:	000de1a8 	.word	0x000de1a8
   d49c4:	2003e59c 	.word	0x2003e59c
   d49c8:	000ddde1 	.word	0x000ddde1
   d49cc:	2003e3c4 	.word	0x2003e3c4

000d49d0 <_Z14getTemperaturev>:
int getTemperature() {                                                // Get temperature and make sure we are not getting a spurrious value
   d49d0:	b508      	push	{r3, lr}
  int reading = analogRead(tmp36Pin);                                 //getting the voltage reading from the temperature sensor
   d49d2:	200f      	movs	r0, #15
   d49d4:	f006 fae5 	bl	dafa2 <analogRead>
  if (reading < 400) {                                                // This ocrresponds to 0 degrees - less than this and we should take another reading to be sure
   d49d8:	f5b0 7fc8 	cmp.w	r0, #400	; 0x190
   d49dc:	da05      	bge.n	d49ea <_Z14getTemperaturev+0x1a>
    delay(50);
   d49de:	2032      	movs	r0, #50	; 0x32
   d49e0:	f003 faa0 	bl	d7f24 <delay>
    reading = analogRead(tmp36Pin);
   d49e4:	200f      	movs	r0, #15
   d49e6:	f006 fadc 	bl	dafa2 <analogRead>
  float voltage = reading * 3.3;                                      // converting that reading to voltage, for 3.3v arduino use 3.3
   d49ea:	f006 fcd1 	bl	db390 <__aeabi_i2d>
   d49ee:	a320      	add	r3, pc, #128	; (adr r3, d4a70 <_Z14getTemperaturev+0xa0>)
   d49f0:	e9d3 2300 	ldrd	r2, r3, [r3]
   d49f4:	f006 fd36 	bl	db464 <__aeabi_dmul>
   d49f8:	f007 f82c 	bl	dba54 <__aeabi_d2f>
  int temperatureC = int(((voltage - 0.5) * 100));                    //converting from 10 mv per degree with 500 mV offset to degrees ((voltage - 500mV) times 100) - 5 degree calibration
   d49fc:	eddf 7a14 	vldr	s15, [pc, #80]	; d4a50 <_Z14getTemperaturev+0x80>
   d4a00:	ee07 0a10 	vmov	s14, r0
   d4a04:	ee67 7a27 	vmul.f32	s15, s14, s15
   d4a08:	ee17 0a90 	vmov	r0, s15
   d4a0c:	f006 fcd2 	bl	db3b4 <__aeabi_f2d>
   d4a10:	4b10      	ldr	r3, [pc, #64]	; (d4a54 <_Z14getTemperaturev+0x84>)
   d4a12:	2200      	movs	r2, #0
   d4a14:	f006 fb6e 	bl	db0f4 <__aeabi_dsub>
   d4a18:	4b0f      	ldr	r3, [pc, #60]	; (d4a58 <_Z14getTemperaturev+0x88>)
   d4a1a:	2200      	movs	r2, #0
   d4a1c:	f006 fd22 	bl	db464 <__aeabi_dmul>
   d4a20:	f006 ffd0 	bl	db9c4 <__aeabi_d2iz>
  current.temperature = int((temperatureC * 9.0 / 5.0) + 32.0);              // now convert to Fahrenheit
   d4a24:	f006 fcb4 	bl	db390 <__aeabi_i2d>
   d4a28:	4b0c      	ldr	r3, [pc, #48]	; (d4a5c <_Z14getTemperaturev+0x8c>)
   d4a2a:	2200      	movs	r2, #0
   d4a2c:	f006 fd1a 	bl	db464 <__aeabi_dmul>
   d4a30:	4b0b      	ldr	r3, [pc, #44]	; (d4a60 <_Z14getTemperaturev+0x90>)
   d4a32:	2200      	movs	r2, #0
   d4a34:	f006 fe40 	bl	db6b8 <__aeabi_ddiv>
   d4a38:	4b0a      	ldr	r3, [pc, #40]	; (d4a64 <_Z14getTemperaturev+0x94>)
   d4a3a:	2200      	movs	r2, #0
   d4a3c:	f006 fb5c 	bl	db0f8 <__adddf3>
   d4a40:	f006 ffc0 	bl	db9c4 <__aeabi_d2iz>
   d4a44:	4b08      	ldr	r3, [pc, #32]	; (d4a68 <_Z14getTemperaturev+0x98>)
   d4a46:	60d8      	str	r0, [r3, #12]
  currentCountsWriteNeeded=true;
   d4a48:	4b08      	ldr	r3, [pc, #32]	; (d4a6c <_Z14getTemperaturev+0x9c>)
   d4a4a:	2201      	movs	r2, #1
   d4a4c:	701a      	strb	r2, [r3, #0]
}
   d4a4e:	bd08      	pop	{r3, pc}
   d4a50:	39800000 	.word	0x39800000
   d4a54:	3fe00000 	.word	0x3fe00000
   d4a58:	40590000 	.word	0x40590000
   d4a5c:	40220000 	.word	0x40220000
   d4a60:	40140000 	.word	0x40140000
   d4a64:	40400000 	.word	0x40400000
   d4a68:	2003e46c 	.word	0x2003e46c
   d4a6c:	2003e48c 	.word	0x2003e48c
   d4a70:	66666666 	.word	0x66666666
   d4a74:	400a6666 	.word	0x400a6666

000d4a78 <_Z14setPowerConfigv>:
int setPowerConfig() {
   d4a78:	b500      	push	{lr}
   d4a7a:	b091      	sub	sp, #68	; 0x44
  SystemPowerConfiguration conf;
   d4a7c:	4668      	mov	r0, sp
   d4a7e:	f7ff fc7f 	bl	d4380 <_ZN8particle24SystemPowerConfigurationC1Ev>
  System.setPowerConfiguration(SystemPowerConfiguration());  // To restore the default configuration
   d4a82:	a808      	add	r0, sp, #32
   d4a84:	f7ff fc7c 	bl	d4380 <_ZN8particle24SystemPowerConfigurationC1Ev>
        return (hal_timer_millis(nullptr) / 1000);
    }

#if HAL_PLATFORM_POWER_MANAGEMENT
    int setPowerConfiguration(const particle::SystemPowerConfiguration& conf) {
        return system_power_management_set_config(conf.config(), nullptr);
   d4a88:	2100      	movs	r1, #0
   d4a8a:	a808      	add	r0, sp, #32
   d4a8c:	f003 f8e8 	bl	d7c60 <system_power_management_set_config>
  if (sysStatus.solarPowerMode) {
   d4a90:	4b13      	ldr	r3, [pc, #76]	; (d4ae0 <_Z14setPowerConfigv+0x68>)
   d4a92:	7959      	ldrb	r1, [r3, #5]
   d4a94:	b1a1      	cbz	r1, d4ac0 <_Z14setPowerConfigv+0x48>

    SystemPowerConfiguration(SystemPowerConfiguration&&) = default;
    SystemPowerConfiguration& operator=(SystemPowerConfiguration&&) = default;

    SystemPowerConfiguration& powerSourceMinVoltage(uint16_t voltage) {
        conf_.vin_min_voltage = voltage;
   d4a96:	f241 33d8 	movw	r3, #5080	; 0x13d8
   d4a9a:	f8ad 3006 	strh.w	r3, [sp, #6]
        return *this;
    }

    SystemPowerConfiguration& powerSourceMaxCurrent(uint16_t current) {
        conf_.vin_max_current = current;
   d4a9e:	4b11      	ldr	r3, [pc, #68]	; (d4ae4 <_Z14setPowerConfigv+0x6c>)
   d4aa0:	9302      	str	r3, [sp, #8]
        return *this;
    }

    SystemPowerConfiguration& batteryChargeVoltage(uint16_t voltage) {
        conf_.termination_voltage = voltage;
   d4aa2:	f241 0370 	movw	r3, #4208	; 0x1070
   d4aa6:	f8ad 300c 	strh.w	r3, [sp, #12]
        conf_.charge_current = current;
        return *this;
    }

    SystemPowerConfiguration& feature(EnumFlags<SystemPowerFeature> f) {
        conf_.flags |= f.value();
   d4aaa:	9b00      	ldr	r3, [sp, #0]
   d4aac:	f443 7300 	orr.w	r3, r3, #512	; 0x200
   d4ab0:	9300      	str	r3, [sp, #0]
   d4ab2:	2100      	movs	r1, #0
   d4ab4:	4668      	mov	r0, sp
   d4ab6:	f003 f8d3 	bl	d7c60 <system_power_management_set_config>
}
   d4aba:	b011      	add	sp, #68	; 0x44
   d4abc:	f85d fb04 	ldr.w	pc, [sp], #4
        conf_.vin_min_voltage = voltage;
   d4ac0:	f241 0370 	movw	r3, #4208	; 0x1070
   d4ac4:	f8ad 3006 	strh.w	r3, [sp, #6]
        conf_.vin_max_current = current;
   d4ac8:	4b07      	ldr	r3, [pc, #28]	; (d4ae8 <_Z14setPowerConfigv+0x70>)
   d4aca:	9302      	str	r3, [sp, #8]
        conf_.termination_voltage = voltage;
   d4acc:	f241 0310 	movw	r3, #4112	; 0x1010
   d4ad0:	f8ad 300c 	strh.w	r3, [sp, #12]
        conf_.flags |= f.value();
   d4ad4:	9b00      	ldr	r3, [sp, #0]
   d4ad6:	f443 7300 	orr.w	r3, r3, #512	; 0x200
   d4ada:	9300      	str	r3, [sp, #0]
   d4adc:	e7ea      	b.n	d4ab4 <_Z14setPowerConfigv+0x3c>
   d4ade:	bf00      	nop
   d4ae0:	2003e534 	.word	0x2003e534
   d4ae4:	04000384 	.word	0x04000384
   d4ae8:	03840384 	.word	0x03840384

000d4aec <_Z12setSolarMode6String>:
{
   d4aec:	b537      	push	{r0, r1, r2, r4, r5, lr}
	unsigned char operator == (const char *cstr) const {return equals(cstr);}
   d4aee:	491b      	ldr	r1, [pc, #108]	; (d4b5c <_Z12setSolarMode6String+0x70>)
   d4af0:	4605      	mov	r5, r0
   d4af2:	f005 fcdc 	bl	da4ae <_ZNK6String6equalsEPKc>
  if (command == "1")
   d4af6:	4604      	mov	r4, r0
   d4af8:	b1c0      	cbz	r0, d4b2c <_Z12setSolarMode6String+0x40>
    sysStatus.solarPowerMode = true;
   d4afa:	4d19      	ldr	r5, [pc, #100]	; (d4b60 <_Z12setSolarMode6String+0x74>)
   d4afc:	2401      	movs	r4, #1
   d4afe:	716c      	strb	r4, [r5, #5]
    setPowerConfig();                                               // Change the power management Settings
   d4b00:	f7ff ffba 	bl	d4a78 <_Z14setPowerConfigv>
    systemStatusWriteNeeded=true;
   d4b04:	4b17      	ldr	r3, [pc, #92]	; (d4b64 <_Z12setSolarMode6String+0x78>)
   d4b06:	701c      	strb	r4, [r3, #0]
    if (sysStatus.connectedStatus) publishQueue.publish("Mode","Set Solar Powered Mode", PRIVATE, WITH_ACK);
   d4b08:	78eb      	ldrb	r3, [r5, #3]
   d4b0a:	b913      	cbnz	r3, d4b12 <_Z12setSolarMode6String+0x26>
    return 1;
   d4b0c:	2001      	movs	r0, #1
}
   d4b0e:	b003      	add	sp, #12
   d4b10:	bd30      	pop	{r4, r5, pc}
   d4b12:	4b15      	ldr	r3, [pc, #84]	; (d4b68 <_Z12setSolarMode6String+0x7c>)
    if (sysStatus.connectedStatus) publishQueue.publish("Mode","Set Solar Powered Mode", PRIVATE, WITH_ACK);
   d4b14:	4a15      	ldr	r2, [pc, #84]	; (d4b6c <_Z12setSolarMode6String+0x80>)
   d4b16:	781b      	ldrb	r3, [r3, #0]
   d4b18:	f88d 3000 	strb.w	r3, [sp]
   d4b1c:	4b14      	ldr	r3, [pc, #80]	; (d4b70 <_Z12setSolarMode6String+0x84>)
   d4b1e:	781b      	ldrb	r3, [r3, #0]
    if (sysStatus.connectedStatus) publishQueue.publish("Mode","Cleared Solar Powered Mode", PRIVATE, WITH_ACK);
   d4b20:	4914      	ldr	r1, [pc, #80]	; (d4b74 <_Z12setSolarMode6String+0x88>)
   d4b22:	4815      	ldr	r0, [pc, #84]	; (d4b78 <_Z12setSolarMode6String+0x8c>)
   d4b24:	f7ff fccc 	bl	d44c0 <_ZN21PublishQueueAsyncBase7publishEPKcS1_N8particle5FlagsI15PublishFlagTypehEES5_>
   d4b28:	4620      	mov	r0, r4
   d4b2a:	e7f0      	b.n	d4b0e <_Z12setSolarMode6String+0x22>
   d4b2c:	4913      	ldr	r1, [pc, #76]	; (d4b7c <_Z12setSolarMode6String+0x90>)
   d4b2e:	4628      	mov	r0, r5
   d4b30:	f005 fcbd 	bl	da4ae <_ZNK6String6equalsEPKc>
  else if (command == "0")
   d4b34:	2800      	cmp	r0, #0
   d4b36:	d0ea      	beq.n	d4b0e <_Z12setSolarMode6String+0x22>
    sysStatus.solarPowerMode = false;
   d4b38:	4d09      	ldr	r5, [pc, #36]	; (d4b60 <_Z12setSolarMode6String+0x74>)
    systemStatusWriteNeeded=true;
   d4b3a:	4b0a      	ldr	r3, [pc, #40]	; (d4b64 <_Z12setSolarMode6String+0x78>)
    sysStatus.solarPowerMode = false;
   d4b3c:	716c      	strb	r4, [r5, #5]
    systemStatusWriteNeeded=true;
   d4b3e:	2401      	movs	r4, #1
   d4b40:	701c      	strb	r4, [r3, #0]
    setPowerConfig();                                                // Change the power management settings
   d4b42:	f7ff ff99 	bl	d4a78 <_Z14setPowerConfigv>
    if (sysStatus.connectedStatus) publishQueue.publish("Mode","Cleared Solar Powered Mode", PRIVATE, WITH_ACK);
   d4b46:	78eb      	ldrb	r3, [r5, #3]
   d4b48:	2b00      	cmp	r3, #0
   d4b4a:	d0df      	beq.n	d4b0c <_Z12setSolarMode6String+0x20>
   d4b4c:	4b06      	ldr	r3, [pc, #24]	; (d4b68 <_Z12setSolarMode6String+0x7c>)
   d4b4e:	4a0c      	ldr	r2, [pc, #48]	; (d4b80 <_Z12setSolarMode6String+0x94>)
   d4b50:	781b      	ldrb	r3, [r3, #0]
   d4b52:	f88d 3000 	strb.w	r3, [sp]
   d4b56:	4b06      	ldr	r3, [pc, #24]	; (d4b70 <_Z12setSolarMode6String+0x84>)
   d4b58:	781b      	ldrb	r3, [r3, #0]
   d4b5a:	e7e1      	b.n	d4b20 <_Z12setSolarMode6String+0x34>
   d4b5c:	000ddc30 	.word	0x000ddc30
   d4b60:	2003e534 	.word	0x2003e534
   d4b64:	2003e568 	.word	0x2003e568
   d4b68:	2003e411 	.word	0x2003e411
   d4b6c:	000dddfa 	.word	0x000dddfa
   d4b70:	2003e410 	.word	0x2003e410
   d4b74:	000dde27 	.word	0x000dde27
   d4b78:	2003e4ec 	.word	0x2003e4ec
   d4b7c:	000dde33 	.word	0x000dde33
   d4b80:	000dde11 	.word	0x000dde11

000d4b84 <_Z17checkSystemValuesv>:
  if (sysStatus.resetCount < 0 || sysStatus.resetCount > 255) sysStatus.resetCount = 0;
   d4b84:	4b24      	ldr	r3, [pc, #144]	; (d4c18 <_Z17checkSystemValuesv+0x94>)
   d4b86:	691a      	ldr	r2, [r3, #16]
  if (sysStatus.timezone < -12 || sysStatus.timezone > 12) sysStatus.timezone = -5;
   d4b88:	edd3 7a05 	vldr	s15, [r3, #20]
  if (sysStatus.resetCount < 0 || sysStatus.resetCount > 255) sysStatus.resetCount = 0;
   d4b8c:	2aff      	cmp	r2, #255	; 0xff
  if (sysStatus.timezone < -12 || sysStatus.timezone > 12) sysStatus.timezone = -5;
   d4b8e:	eeba 7a08 	vmov.f32	s14, #168	; 0xc1400000 -12.0
  if (sysStatus.resetCount < 0 || sysStatus.resetCount > 255) sysStatus.resetCount = 0;
   d4b92:	bf88      	it	hi
   d4b94:	2200      	movhi	r2, #0
  if (sysStatus.timezone < -12 || sysStatus.timezone > 12) sysStatus.timezone = -5;
   d4b96:	eef4 7ac7 	vcmpe.f32	s15, s14
  if (sysStatus.resetCount < 0 || sysStatus.resetCount > 255) sysStatus.resetCount = 0;
   d4b9a:	bf88      	it	hi
   d4b9c:	611a      	strhi	r2, [r3, #16]
  if (sysStatus.timezone < -12 || sysStatus.timezone > 12) sysStatus.timezone = -5;
   d4b9e:	eef1 fa10 	vmrs	APSR_nzcv, fpscr
   d4ba2:	d406      	bmi.n	d4bb2 <_Z17checkSystemValuesv+0x2e>
   d4ba4:	eeb2 7a08 	vmov.f32	s14, #40	; 0x41400000  12.0
   d4ba8:	eef4 7ac7 	vcmpe.f32	s15, s14
   d4bac:	eef1 fa10 	vmrs	APSR_nzcv, fpscr
   d4bb0:	dd01      	ble.n	d4bb6 <_Z17checkSystemValuesv+0x32>
   d4bb2:	4a1a      	ldr	r2, [pc, #104]	; (d4c1c <_Z17checkSystemValuesv+0x98>)
   d4bb4:	615a      	str	r2, [r3, #20]
  if (sysStatus.dstOffset < 0 || sysStatus.dstOffset > 2) sysStatus.dstOffset = 1;
   d4bb6:	edd3 7a06 	vldr	s15, [r3, #24]
   d4bba:	eef5 7ac0 	vcmpe.f32	s15, #0.0
   d4bbe:	eef1 fa10 	vmrs	APSR_nzcv, fpscr
   d4bc2:	d406      	bmi.n	d4bd2 <_Z17checkSystemValuesv+0x4e>
   d4bc4:	eeb0 7a00 	vmov.f32	s14, #0	; 0x40000000  2.0
   d4bc8:	eef4 7ac7 	vcmpe.f32	s15, s14
   d4bcc:	eef1 fa10 	vmrs	APSR_nzcv, fpscr
   d4bd0:	dd02      	ble.n	d4bd8 <_Z17checkSystemValuesv+0x54>
   d4bd2:	f04f 527e 	mov.w	r2, #1065353216	; 0x3f800000
   d4bd6:	619a      	str	r2, [r3, #24]
  if (sysStatus.openTime < 0 || sysStatus.openTime > 12) sysStatus.openTime = 0;
   d4bd8:	7f1a      	ldrb	r2, [r3, #28]
   d4bda:	2a0c      	cmp	r2, #12
   d4bdc:	bf84      	itt	hi
   d4bde:	2200      	movhi	r2, #0
   d4be0:	771a      	strbhi	r2, [r3, #28]
  if (sysStatus.closeTime < 12 || sysStatus.closeTime > 24) sysStatus.closeTime = 24;
   d4be2:	7f5a      	ldrb	r2, [r3, #29]
   d4be4:	3a0c      	subs	r2, #12
   d4be6:	2a0c      	cmp	r2, #12
   d4be8:	bf84      	itt	hi
   d4bea:	2218      	movhi	r2, #24
   d4bec:	775a      	strbhi	r2, [r3, #29]
  if (sysStatus.lastConnectionDuration < 0 || sysStatus.lastConnectionDuration > connectMaxTimeSec) sysStatus.lastConnectionDuration = 0;
   d4bee:	4a0c      	ldr	r2, [pc, #48]	; (d4c20 <_Z17checkSystemValuesv+0x9c>)
   d4bf0:	6811      	ldr	r1, [r2, #0]
   d4bf2:	8d1a      	ldrh	r2, [r3, #40]	; 0x28
   d4bf4:	428a      	cmp	r2, r1
   d4bf6:	bf84      	itt	hi
   d4bf8:	2200      	movhi	r2, #0
   d4bfa:	851a      	strhhi	r2, [r3, #40]	; 0x28
  sysStatus.solarPowerMode = true;                                  // Need to reset this value across the fleet
   d4bfc:	2201      	movs	r2, #1
   d4bfe:	715a      	strb	r2, [r3, #5]
  if (current.maxConnectTime > connectMaxTimeSec) {
   d4c00:	4b08      	ldr	r3, [pc, #32]	; (d4c24 <_Z17checkSystemValuesv+0xa0>)
   d4c02:	8b18      	ldrh	r0, [r3, #24]
   d4c04:	4281      	cmp	r1, r0
    current.maxConnectTime = 0;
   d4c06:	bf3f      	itttt	cc
   d4c08:	2100      	movcc	r1, #0
   d4c0a:	8319      	strhcc	r1, [r3, #24]
    currentCountsWriteNeeded = true;
   d4c0c:	4b06      	ldrcc	r3, [pc, #24]	; (d4c28 <_Z17checkSystemValuesv+0xa4>)
   d4c0e:	701a      	strbcc	r2, [r3, #0]
  systemStatusWriteNeeded = true;
   d4c10:	4b06      	ldr	r3, [pc, #24]	; (d4c2c <_Z17checkSystemValuesv+0xa8>)
   d4c12:	2201      	movs	r2, #1
   d4c14:	701a      	strb	r2, [r3, #0]
}
   d4c16:	4770      	bx	lr
   d4c18:	2003e534 	.word	0x2003e534
   d4c1c:	c0a00000 	.word	0xc0a00000
   d4c20:	2003e0fc 	.word	0x2003e0fc
   d4c24:	2003e46c 	.word	0x2003e46c
   d4c28:	2003e48c 	.word	0x2003e48c
   d4c2c:	2003e568 	.word	0x2003e568

000d4c30 <_Z21makeUpParkHourStringsv>:
void makeUpParkHourStrings() {
   d4c30:	b510      	push	{r4, lr}
  if (sysStatus.openTime == 0 && sysStatus.closeTime == 24) {
   d4c32:	4c0e      	ldr	r4, [pc, #56]	; (d4c6c <_Z21makeUpParkHourStringsv+0x3c>)
   d4c34:	8ba3      	ldrh	r3, [r4, #28]
   d4c36:	f5b3 5fc0 	cmp.w	r3, #6144	; 0x1800
   d4c3a:	d109      	bne.n	d4c50 <_Z21makeUpParkHourStringsv+0x20>
    snprintf(openTimeStr, sizeof(openTimeStr), "NA");
   d4c3c:	490c      	ldr	r1, [pc, #48]	; (d4c70 <_Z21makeUpParkHourStringsv+0x40>)
   d4c3e:	480d      	ldr	r0, [pc, #52]	; (d4c74 <_Z21makeUpParkHourStringsv+0x44>)
   d4c40:	f007 f869 	bl	dbd16 <strcpy>
}
   d4c44:	e8bd 4010 	ldmia.w	sp!, {r4, lr}
    snprintf(closeTimeStr, sizeof(closeTimeStr), "NA");
   d4c48:	4909      	ldr	r1, [pc, #36]	; (d4c70 <_Z21makeUpParkHourStringsv+0x40>)
   d4c4a:	480b      	ldr	r0, [pc, #44]	; (d4c78 <_Z21makeUpParkHourStringsv+0x48>)
   d4c4c:	f007 b863 	b.w	dbd16 <strcpy>
  snprintf(openTimeStr, sizeof(openTimeStr), "%i:00", sysStatus.openTime);
   d4c50:	7f23      	ldrb	r3, [r4, #28]
   d4c52:	4a0a      	ldr	r2, [pc, #40]	; (d4c7c <_Z21makeUpParkHourStringsv+0x4c>)
   d4c54:	4807      	ldr	r0, [pc, #28]	; (d4c74 <_Z21makeUpParkHourStringsv+0x44>)
   d4c56:	2108      	movs	r1, #8
   d4c58:	f003 f910 	bl	d7e7c <snprintf>
  snprintf(closeTimeStr, sizeof(closeTimeStr), "%i:00", sysStatus.closeTime);
   d4c5c:	7f63      	ldrb	r3, [r4, #29]
   d4c5e:	4a07      	ldr	r2, [pc, #28]	; (d4c7c <_Z21makeUpParkHourStringsv+0x4c>)
   d4c60:	4805      	ldr	r0, [pc, #20]	; (d4c78 <_Z21makeUpParkHourStringsv+0x48>)
}
   d4c62:	e8bd 4010 	ldmia.w	sp!, {r4, lr}
  snprintf(closeTimeStr, sizeof(closeTimeStr), "%i:00", sysStatus.closeTime);
   d4c66:	2108      	movs	r1, #8
   d4c68:	f003 b908 	b.w	d7e7c <snprintf>
   d4c6c:	2003e534 	.word	0x2003e534
   d4c70:	000dde2c 	.word	0x000dde2c
   d4c74:	2003e106 	.word	0x2003e106
   d4c78:	2003e0f4 	.word	0x2003e0f4
   d4c7c:	000dde2f 	.word	0x000dde2f

000d4c80 <_Z11setOpenTime6String>:
{
   d4c80:	b513      	push	{r0, r1, r4, lr}
  int tempTime = strtol(command,&pEND,10);                                    // Looks for the first integer and interprets it
   d4c82:	220a      	movs	r2, #10
   d4c84:	6800      	ldr	r0, [r0, #0]
   d4c86:	a901      	add	r1, sp, #4
   d4c88:	f007 ffa8 	bl	dcbdc <strtol>
  if ((tempTime < 0) || (tempTime > 23)) return 0;                            // Make sure it falls in a valid range or send a "fail" result
   d4c8c:	2817      	cmp	r0, #23
   d4c8e:	d80c      	bhi.n	d4caa <_Z11setOpenTime6String+0x2a>
  sysStatus.openTime = tempTime;
   d4c90:	4c07      	ldr	r4, [pc, #28]	; (d4cb0 <_Z11setOpenTime6String+0x30>)
   d4c92:	7720      	strb	r0, [r4, #28]
  makeUpParkHourStrings();                                                    // Create the strings for the console
   d4c94:	f7ff ffcc 	bl	d4c30 <_Z21makeUpParkHourStringsv>
  systemStatusWriteNeeded = true;                                            // Need to store to FRAM back in the main loop
   d4c98:	4b06      	ldr	r3, [pc, #24]	; (d4cb4 <_Z11setOpenTime6String+0x34>)
   d4c9a:	2001      	movs	r0, #1
   d4c9c:	7018      	strb	r0, [r3, #0]
  if (sysStatus.connectedStatus) {
   d4c9e:	78e3      	ldrb	r3, [r4, #3]
   d4ca0:	b10b      	cbz	r3, d4ca6 <_Z11setOpenTime6String+0x26>
   d4ca2:	f7ff fcd7 	bl	d4654 <_Z11setOpenTime6String.part.0>
}
   d4ca6:	b002      	add	sp, #8
   d4ca8:	bd10      	pop	{r4, pc}
  if ((tempTime < 0) || (tempTime > 23)) return 0;                            // Make sure it falls in a valid range or send a "fail" result
   d4caa:	2000      	movs	r0, #0
   d4cac:	e7fb      	b.n	d4ca6 <_Z11setOpenTime6String+0x26>
   d4cae:	bf00      	nop
   d4cb0:	2003e534 	.word	0x2003e534
   d4cb4:	2003e568 	.word	0x2003e568

000d4cb8 <_Z12setCloseTime6String>:
{
   d4cb8:	b530      	push	{r4, r5, lr}
   d4cba:	b0c5      	sub	sp, #276	; 0x114
  int tempTime = strtol(command,&pEND,10);                       // Looks for the first integer and interprets it
   d4cbc:	6800      	ldr	r0, [r0, #0]
   d4cbe:	220a      	movs	r2, #10
   d4cc0:	a903      	add	r1, sp, #12
   d4cc2:	f007 ff8b 	bl	dcbdc <strtol>
  if ((tempTime < 0) || (tempTime > 24)) return 0;   // Make sure it falls in a valid range or send a "fail" result
   d4cc6:	2818      	cmp	r0, #24
   d4cc8:	d81c      	bhi.n	d4d04 <_Z12setCloseTime6String+0x4c>
  sysStatus.closeTime = tempTime;
   d4cca:	4d10      	ldr	r5, [pc, #64]	; (d4d0c <_Z12setCloseTime6String+0x54>)
   d4ccc:	7768      	strb	r0, [r5, #29]
  makeUpParkHourStrings();                                                    // Create the strings for the console
   d4cce:	f7ff ffaf 	bl	d4c30 <_Z21makeUpParkHourStringsv>
  systemStatusWriteNeeded = true;                          // Store the new value in FRAMwrite8
   d4cd2:	4b0f      	ldr	r3, [pc, #60]	; (d4d10 <_Z12setCloseTime6String+0x58>)
  snprintf(data, sizeof(data), "Closing time set to %i",sysStatus.closeTime);
   d4cd4:	4a0f      	ldr	r2, [pc, #60]	; (d4d14 <_Z12setCloseTime6String+0x5c>)
  systemStatusWriteNeeded = true;                          // Store the new value in FRAMwrite8
   d4cd6:	2401      	movs	r4, #1
   d4cd8:	701c      	strb	r4, [r3, #0]
  snprintf(data, sizeof(data), "Closing time set to %i",sysStatus.closeTime);
   d4cda:	f44f 7180 	mov.w	r1, #256	; 0x100
   d4cde:	7f6b      	ldrb	r3, [r5, #29]
   d4ce0:	a804      	add	r0, sp, #16
   d4ce2:	f003 f8cb 	bl	d7e7c <snprintf>
  if (sysStatus.connectedStatus) publishQueue.publish("Time",data, PRIVATE, WITH_ACK);
   d4ce6:	78eb      	ldrb	r3, [r5, #3]
   d4ce8:	b153      	cbz	r3, d4d00 <_Z12setCloseTime6String+0x48>
   d4cea:	4b0b      	ldr	r3, [pc, #44]	; (d4d18 <_Z12setCloseTime6String+0x60>)
   d4cec:	490b      	ldr	r1, [pc, #44]	; (d4d1c <_Z12setCloseTime6String+0x64>)
   d4cee:	781b      	ldrb	r3, [r3, #0]
   d4cf0:	f88d 3000 	strb.w	r3, [sp]
   d4cf4:	4b0a      	ldr	r3, [pc, #40]	; (d4d20 <_Z12setCloseTime6String+0x68>)
   d4cf6:	480b      	ldr	r0, [pc, #44]	; (d4d24 <_Z12setCloseTime6String+0x6c>)
   d4cf8:	781b      	ldrb	r3, [r3, #0]
   d4cfa:	aa04      	add	r2, sp, #16
   d4cfc:	f7ff fbe0 	bl	d44c0 <_ZN21PublishQueueAsyncBase7publishEPKcS1_N8particle5FlagsI15PublishFlagTypehEES5_>
  return 1;
   d4d00:	4620      	mov	r0, r4
   d4d02:	e000      	b.n	d4d06 <_Z12setCloseTime6String+0x4e>
  if ((tempTime < 0) || (tempTime > 24)) return 0;   // Make sure it falls in a valid range or send a "fail" result
   d4d04:	2000      	movs	r0, #0
}
   d4d06:	b045      	add	sp, #276	; 0x114
   d4d08:	bd30      	pop	{r4, r5, pc}
   d4d0a:	bf00      	nop
   d4d0c:	2003e534 	.word	0x2003e534
   d4d10:	2003e568 	.word	0x2003e568
   d4d14:	000dde35 	.word	0x000dde35
   d4d18:	2003e411 	.word	0x2003e411
   d4d1c:	000ddf01 	.word	0x000ddf01
   d4d20:	2003e410 	.word	0x2003e410
   d4d24:	2003e4ec 	.word	0x2003e4ec

000d4d28 <_Z22disconnectFromParticlev>:
{
   d4d28:	e92d 43f0 	stmdb	sp!, {r4, r5, r6, r7, r8, r9, lr}
   d4d2c:	b085      	sub	sp, #20
inline CloudDisconnectOptions::CloudDisconnectOptions(unsigned flags, system_tick_t timeout, bool graceful,
        bool clearSession) :
        flags_(flags),
        timeout_(timeout),
        graceful_(graceful),
        clearSession_(clearSession) {
   d4d2e:	2600      	movs	r6, #0
  Particle.disconnect();
   d4d30:	a801      	add	r0, sp, #4
   d4d32:	e9cd 6601 	strd	r6, r6, [sp, #4]
   d4d36:	f8ad 600c 	strh.w	r6, [sp, #12]
   d4d3a:	f003 fab8 	bl	d82ae <_ZN10CloudClass10disconnectERK22CloudDisconnectOptions>
        const system_tick_t start = millis();
   d4d3e:	f7ff fb87 	bl	d4450 <_ZN11SystemClass6millisEv>
        return waitConditionWhile(_condition, [=]{ return (millis()-start)<timeout; });
   d4d42:	46b1      	mov	r9, r6
        const system_tick_t start = millis();
   d4d44:	4680      	mov	r8, r0
        while (_while() && !_condition()) {
   d4d46:	f643 2697 	movw	r6, #14999	; 0x3a97
   d4d4a:	2700      	movs	r7, #0
        return waitConditionWhile(_condition, [=]{ return (millis()-start)<timeout; });
   d4d4c:	f7ff fb80 	bl	d4450 <_ZN11SystemClass6millisEv>
   d4d50:	ebb0 0408 	subs.w	r4, r0, r8
   d4d54:	eb61 0509 	sbc.w	r5, r1, r9
        while (_while() && !_condition()) {
   d4d58:	42af      	cmp	r7, r5
   d4d5a:	bf08      	it	eq
   d4d5c:	42a6      	cmpeq	r6, r4
   d4d5e:	d305      	bcc.n	d4d6c <_Z22disconnectFromParticlev+0x44>
    static bool connected(void) { return spark_cloud_flag_connected(); }
   d4d60:	f002 ffbc 	bl	d7cdc <spark_cloud_flag_connected>
   d4d64:	b110      	cbz	r0, d4d6c <_Z22disconnectFromParticlev+0x44>
            spark_process();
   d4d66:	f002 ffa9 	bl	d7cbc <spark_process>
        while (_while() && !_condition()) {
   d4d6a:	e7ef      	b.n	d4d4c <_Z22disconnectFromParticlev+0x24>
    bool connecting(void) {
        return network_connecting(*this, 0, NULL);
    }

    void disconnect() {
        network_disconnect(*this, NETWORK_DISCONNECT_REASON_USER, NULL);
   d4d6c:	4c09      	ldr	r4, [pc, #36]	; (d4d94 <_Z22disconnectFromParticlev+0x6c>)
   d4d6e:	f002 ffb5 	bl	d7cdc <spark_cloud_flag_connected>
   d4d72:	6860      	ldr	r0, [r4, #4]
   d4d74:	2200      	movs	r2, #0
   d4d76:	2102      	movs	r1, #2
   d4d78:	f003 f810 	bl	d7d9c <network_disconnect>
  Cellular.off();                                                 // Turn off the cellular modem
   d4d7c:	4620      	mov	r0, r4
   d4d7e:	f7ff fabb 	bl	d42f8 <_ZN5spark13CellularClass3offEv>
  sysStatus.connectedStatus = false;
   d4d82:	4b05      	ldr	r3, [pc, #20]	; (d4d98 <_Z22disconnectFromParticlev+0x70>)
   d4d84:	2200      	movs	r2, #0
   d4d86:	70da      	strb	r2, [r3, #3]
  systemStatusWriteNeeded = true;
   d4d88:	4b04      	ldr	r3, [pc, #16]	; (d4d9c <_Z22disconnectFromParticlev+0x74>)
   d4d8a:	2001      	movs	r0, #1
   d4d8c:	7018      	strb	r0, [r3, #0]
}
   d4d8e:	b005      	add	sp, #20
   d4d90:	e8bd 83f0 	ldmia.w	sp!, {r4, r5, r6, r7, r8, r9, pc}
   d4d94:	2003e59c 	.word	0x2003e59c
   d4d98:	2003e534 	.word	0x2003e534
   d4d9c:	2003e568 	.word	0x2003e568

000d4da0 <_Z15resetEverythingv>:
void resetEverything() {                                              // The device is waking up in a new day or is a new install
   d4da0:	b508      	push	{r3, lr}
  current.lastCountTime = Time.now();                                 // Set the time context to the new day
   d4da2:	f005 fe74 	bl	daa8e <_ZN9TimeClass3nowEv>
   d4da6:	4b07      	ldr	r3, [pc, #28]	; (d4dc4 <_Z15resetEverythingv+0x24>)
  sysStatus.resetCount = current.alertCount = 0;                      // Reset everything for the day
   d4da8:	4907      	ldr	r1, [pc, #28]	; (d4dc8 <_Z15resetEverythingv+0x28>)
  current.lastCountTime = Time.now();                                 // Set the time context to the new day
   d4daa:	6018      	str	r0, [r3, #0]
  sysStatus.resetCount = current.alertCount = 0;                      // Reset everything for the day
   d4dac:	2200      	movs	r2, #0
   d4dae:	611a      	str	r2, [r3, #16]
  current.maxConnectTime = 0;                                         // Reset values for this time period
   d4db0:	831a      	strh	r2, [r3, #24]
  sysStatus.resetCount = current.alertCount = 0;                      // Reset everything for the day
   d4db2:	610a      	str	r2, [r1, #16]
  current.minBatteryLevel = 100;
   d4db4:	2264      	movs	r2, #100	; 0x64
   d4db6:	61da      	str	r2, [r3, #28]
  currentCountsWriteNeeded = true;
   d4db8:	4a04      	ldr	r2, [pc, #16]	; (d4dcc <_Z15resetEverythingv+0x2c>)
   d4dba:	2301      	movs	r3, #1
   d4dbc:	7013      	strb	r3, [r2, #0]
  systemStatusWriteNeeded=true;
   d4dbe:	4a04      	ldr	r2, [pc, #16]	; (d4dd0 <_Z15resetEverythingv+0x30>)
   d4dc0:	7013      	strb	r3, [r2, #0]
}
   d4dc2:	bd08      	pop	{r3, pc}
   d4dc4:	2003e46c 	.word	0x2003e46c
   d4dc8:	2003e534 	.word	0x2003e534
   d4dcc:	2003e48c 	.word	0x2003e48c
   d4dd0:	2003e568 	.word	0x2003e568

000d4dd4 <_Z22publishStateTransitionv>:
 * @brief Publishes a state transition over serial and to the Particle monitoring system.
 * 
 * @details A good debugging tool.
 */
void publishStateTransition(void)
{
   d4dd4:	b530      	push	{r4, r5, lr}
  char stateTransitionString[40];
  snprintf(stateTransitionString, sizeof(stateTransitionString), "From %s to %s", stateNames[oldState],stateNames[state]);
   d4dd6:	4c15      	ldr	r4, [pc, #84]	; (d4e2c <_Z22publishStateTransitionv+0x58>)
   d4dd8:	4d15      	ldr	r5, [pc, #84]	; (d4e30 <_Z22publishStateTransitionv+0x5c>)
   d4dda:	7822      	ldrb	r2, [r4, #0]
   d4ddc:	4915      	ldr	r1, [pc, #84]	; (d4e34 <_Z22publishStateTransitionv+0x60>)
   d4dde:	eb02 1302 	add.w	r3, r2, r2, lsl #4
   d4de2:	782a      	ldrb	r2, [r5, #0]
{
   d4de4:	b08d      	sub	sp, #52	; 0x34
  snprintf(stateTransitionString, sizeof(stateTransitionString), "From %s to %s", stateNames[oldState],stateNames[state]);
   d4de6:	eb02 1202 	add.w	r2, r2, r2, lsl #4
   d4dea:	440a      	add	r2, r1
   d4dec:	440b      	add	r3, r1
   d4dee:	9200      	str	r2, [sp, #0]
   d4df0:	2128      	movs	r1, #40	; 0x28
   d4df2:	4a11      	ldr	r2, [pc, #68]	; (d4e38 <_Z22publishStateTransitionv+0x64>)
   d4df4:	a802      	add	r0, sp, #8
   d4df6:	f003 f841 	bl	d7e7c <snprintf>
  oldState = state;
   d4dfa:	782b      	ldrb	r3, [r5, #0]
   d4dfc:	7023      	strb	r3, [r4, #0]
  if (sysStatus.verboseMode) {
   d4dfe:	4b0f      	ldr	r3, [pc, #60]	; (d4e3c <_Z22publishStateTransitionv+0x68>)
   d4e00:	791a      	ldrb	r2, [r3, #4]
   d4e02:	b182      	cbz	r2, d4e26 <_Z22publishStateTransitionv+0x52>
    if (sysStatus.connectedStatus) publishQueue.publish("State Transition",stateTransitionString, PRIVATE, WITH_ACK);
   d4e04:	78db      	ldrb	r3, [r3, #3]
   d4e06:	b153      	cbz	r3, d4e1e <_Z22publishStateTransitionv+0x4a>
   d4e08:	4b0d      	ldr	r3, [pc, #52]	; (d4e40 <_Z22publishStateTransitionv+0x6c>)
   d4e0a:	490e      	ldr	r1, [pc, #56]	; (d4e44 <_Z22publishStateTransitionv+0x70>)
   d4e0c:	781b      	ldrb	r3, [r3, #0]
   d4e0e:	f88d 3000 	strb.w	r3, [sp]
   d4e12:	4b0d      	ldr	r3, [pc, #52]	; (d4e48 <_Z22publishStateTransitionv+0x74>)
   d4e14:	480d      	ldr	r0, [pc, #52]	; (d4e4c <_Z22publishStateTransitionv+0x78>)
   d4e16:	781b      	ldrb	r3, [r3, #0]
   d4e18:	aa02      	add	r2, sp, #8
   d4e1a:	f7ff fb51 	bl	d44c0 <_ZN21PublishQueueAsyncBase7publishEPKcS1_N8particle5FlagsI15PublishFlagTypehEES5_>
    Log.info(stateTransitionString);
   d4e1e:	480c      	ldr	r0, [pc, #48]	; (d4e50 <_Z22publishStateTransitionv+0x7c>)
   d4e20:	a902      	add	r1, sp, #8
   d4e22:	f7ff fb1f 	bl	d4464 <_ZNK5spark6Logger4infoEPKcz>
  }
}
   d4e26:	b00d      	add	sp, #52	; 0x34
   d4e28:	bd30      	pop	{r4, r5, pc}
   d4e2a:	bf00      	nop
   d4e2c:	2003e4e8 	.word	0x2003e4e8
   d4e30:	2003e528 	.word	0x2003e528
   d4e34:	2003e114 	.word	0x2003e114
   d4e38:	000dde4c 	.word	0x000dde4c
   d4e3c:	2003e534 	.word	0x2003e534
   d4e40:	2003e411 	.word	0x2003e411
   d4e44:	000dde5a 	.word	0x000dde5a
   d4e48:	2003e410 	.word	0x2003e410
   d4e4c:	2003e4ec 	.word	0x2003e4ec
   d4e50:	2003e5e0 	.word	0x2003e5e0

000d4e54 <_Z12dailyCleanupv>:
 * @brief Cleanup function that is run at the beginning of the day.
 * 
 * @details Syncs time with remote service and sets low power mode. Called from Reporting State ONLY.
 * Clean house at the end of the day
 */
void dailyCleanup() {
   d4e54:	e92d 47f0 	stmdb	sp!, {r4, r5, r6, r7, r8, r9, sl, lr}
   d4e58:	4b22      	ldr	r3, [pc, #136]	; (d4ee4 <_Z12dailyCleanupv+0x90>)
  publishQueue.publish("Daily Cleanup","Running", PRIVATE, WITH_ACK);            // Make sure this is being run
  sysStatus.verboseMode = false;
   d4e5a:	4c23      	ldr	r4, [pc, #140]	; (d4ee8 <_Z12dailyCleanupv+0x94>)
   d4e5c:	781b      	ldrb	r3, [r3, #0]
  publishQueue.publish("Daily Cleanup","Running", PRIVATE, WITH_ACK);            // Make sure this is being run
   d4e5e:	4a23      	ldr	r2, [pc, #140]	; (d4eec <_Z12dailyCleanupv+0x98>)
   d4e60:	4923      	ldr	r1, [pc, #140]	; (d4ef0 <_Z12dailyCleanupv+0x9c>)
   d4e62:	4824      	ldr	r0, [pc, #144]	; (d4ef4 <_Z12dailyCleanupv+0xa0>)
void dailyCleanup() {
   d4e64:	b086      	sub	sp, #24
  sysStatus.verboseMode = false;
   d4e66:	2500      	movs	r5, #0
  publishQueue.publish("Daily Cleanup","Running", PRIVATE, WITH_ACK);            // Make sure this is being run
   d4e68:	f88d 3000 	strb.w	r3, [sp]
   d4e6c:	4b22      	ldr	r3, [pc, #136]	; (d4ef8 <_Z12dailyCleanupv+0xa4>)
   d4e6e:	781b      	ldrb	r3, [r3, #0]
   d4e70:	f7ff fb26 	bl	d44c0 <_ZN21PublishQueueAsyncBase7publishEPKcS1_N8particle5FlagsI15PublishFlagTypehEES5_>
  sysStatus.verboseMode = false;
   d4e74:	7125      	strb	r5, [r4, #4]
   d4e76:	f002 ff31 	bl	d7cdc <spark_cloud_flag_connected>
        if (!connected()) {
   d4e7a:	b110      	cbz	r0, d4e82 <_Z12dailyCleanupv+0x2e>
        return spark_sync_time(NULL);
   d4e7c:	4628      	mov	r0, r5
   d4e7e:	f002 ff4d 	bl	d7d1c <spark_sync_time>
        const system_tick_t start = millis();
   d4e82:	f7ff fae5 	bl	d4450 <_ZN11SystemClass6millisEv>
        return waitConditionWhile(_condition, [=]{ return (millis()-start)<timeout; });
   d4e86:	f04f 0a00 	mov.w	sl, #0
        const system_tick_t start = millis();
   d4e8a:	4605      	mov	r5, r0
        while (_while() && !_condition()) {
   d4e8c:	f247 582f 	movw	r8, #29999	; 0x752f
   d4e90:	f04f 0900 	mov.w	r9, #0
        return waitConditionWhile(_condition, [=]{ return (millis()-start)<timeout; });
   d4e94:	f7ff fadc 	bl	d4450 <_ZN11SystemClass6millisEv>
   d4e98:	1b46      	subs	r6, r0, r5
   d4e9a:	eb61 070a 	sbc.w	r7, r1, sl
        while (_while() && !_condition()) {
   d4e9e:	45b9      	cmp	r9, r7
   d4ea0:	bf08      	it	eq
   d4ea2:	45b0      	cmpeq	r8, r6
   d4ea4:	d305      	bcc.n	d4eb2 <_Z12dailyCleanupv+0x5e>
  Particle.syncTime();                                                 // Set the clock each day
  waitFor(Particle.syncTimeDone,30000);                                // Wait for up to 30 seconds for the SyncTime to complete
   d4ea6:	f7ff f9d6 	bl	d4256 <_ZN10CloudClass12syncTimeDoneEv.isra.0>
   d4eaa:	b910      	cbnz	r0, d4eb2 <_Z12dailyCleanupv+0x5e>
            spark_process();
   d4eac:	f002 ff06 	bl	d7cbc <spark_process>
        while (_while() && !_condition()) {
   d4eb0:	e7f0      	b.n	d4e94 <_Z12dailyCleanupv+0x40>
   d4eb2:	f7ff f9d0 	bl	d4256 <_ZN10CloudClass12syncTimeDoneEv.isra.0>
  if (sysStatus.solarPowerMode || sysStatus.stateOfCharge <= 70) {     // If Solar or if the battery is being discharged
   d4eb6:	7963      	ldrb	r3, [r4, #5]
   d4eb8:	b913      	cbnz	r3, d4ec0 <_Z12dailyCleanupv+0x6c>
   d4eba:	68a3      	ldr	r3, [r4, #8]
   d4ebc:	2b46      	cmp	r3, #70	; 0x46
   d4ebe:	dc09      	bgt.n	d4ed4 <_Z12dailyCleanupv+0x80>
    setLowPowerMode("1");
   d4ec0:	490e      	ldr	r1, [pc, #56]	; (d4efc <_Z12dailyCleanupv+0xa8>)
   d4ec2:	a802      	add	r0, sp, #8
   d4ec4:	f005 fa9d 	bl	da402 <_ZN6StringC1EPKc>
   d4ec8:	a802      	add	r0, sp, #8
   d4eca:	f7ff fbe9 	bl	d46a0 <_Z15setLowPowerMode6String>
   d4ece:	a802      	add	r0, sp, #8
   d4ed0:	f005 fa4c 	bl	da36c <_ZN6StringD1Ev>
  }

  resetEverything();                                               // If so, we need to Zero the counts for the new day
   d4ed4:	f7ff ff64 	bl	d4da0 <_Z15resetEverythingv>

  systemStatusWriteNeeded = true;
   d4ed8:	4b09      	ldr	r3, [pc, #36]	; (d4f00 <_Z12dailyCleanupv+0xac>)
   d4eda:	2201      	movs	r2, #1
   d4edc:	701a      	strb	r2, [r3, #0]
   d4ede:	b006      	add	sp, #24
   d4ee0:	e8bd 87f0 	ldmia.w	sp!, {r4, r5, r6, r7, r8, r9, sl, pc}
   d4ee4:	2003e411 	.word	0x2003e411
   d4ee8:	2003e534 	.word	0x2003e534
   d4eec:	000dde6b 	.word	0x000dde6b
   d4ef0:	000dde73 	.word	0x000dde73
   d4ef4:	2003e4ec 	.word	0x2003e4ec
   d4ef8:	2003e410 	.word	0x2003e410
   d4efc:	000ddc30 	.word	0x000ddc30
   d4f00:	2003e568 	.word	0x2003e568

000d4f04 <_ZN8particle26AbstractTypeDiagnosticDataIlE3getEtRl>:
inline AbstractTypeDiagnosticData<UnderlyingTypeT>::AbstractTypeDiagnosticData(DiagnosticDataId id, const char* name, diag_type type) :
        AbstractDiagnosticData(id, name, type) {
}

template<typename UnderlyingTypeT>
inline int AbstractTypeDiagnosticData<UnderlyingTypeT>::get(DiagnosticDataId id, UnderlyingTypeT& val) {
   d4f04:	b530      	push	{r4, r5, lr}
   d4f06:	b085      	sub	sp, #20
   d4f08:	460d      	mov	r5, r1
    const diag_source* src = nullptr;
   d4f0a:	2200      	movs	r2, #0
    const int ret = diag_get_source(id, &src, nullptr);
   d4f0c:	4669      	mov	r1, sp
    const diag_source* src = nullptr;
   d4f0e:	9200      	str	r2, [sp, #0]
    const int ret = diag_get_source(id, &src, nullptr);
   d4f10:	f002 fe40 	bl	d7b94 <diag_get_source>
    if (ret != SYSTEM_ERROR_NONE) {
   d4f14:	b9b0      	cbnz	r0, d4f44 <_ZN8particle26AbstractTypeDiagnosticDataIlE3getEtRl+0x40>
        return ret;
    }
    return get(src, val);
   d4f16:	9c00      	ldr	r4, [sp, #0]
    SPARK_ASSERT(src && src->callback);
   d4f18:	b10c      	cbz	r4, d4f1e <_ZN8particle26AbstractTypeDiagnosticDataIlE3getEtRl+0x1a>
   d4f1a:	6923      	ldr	r3, [r4, #16]
   d4f1c:	b923      	cbnz	r3, d4f28 <_ZN8particle26AbstractTypeDiagnosticDataIlE3getEtRl+0x24>
   d4f1e:	4a0a      	ldr	r2, [pc, #40]	; (d4f48 <_ZN8particle26AbstractTypeDiagnosticDataIlE3getEtRl+0x44>)
   d4f20:	2100      	movs	r1, #0
   d4f22:	200a      	movs	r0, #10
   d4f24:	f002 fe0e 	bl	d7b44 <panic_>
    diag_source_get_cmd_data d = { sizeof(diag_source_get_cmd_data), 0 /* reserved */, data, size };
   d4f28:	2300      	movs	r3, #0
   d4f2a:	f8ad 3006 	strh.w	r3, [sp, #6]
   d4f2e:	230c      	movs	r3, #12
   d4f30:	f8ad 3004 	strh.w	r3, [sp, #4]
   d4f34:	2304      	movs	r3, #4
   d4f36:	9303      	str	r3, [sp, #12]
   d4f38:	9502      	str	r5, [sp, #8]
    const int ret = src->callback(src, DIAG_SOURCE_CMD_GET, &d);
   d4f3a:	6923      	ldr	r3, [r4, #16]
   d4f3c:	aa01      	add	r2, sp, #4
   d4f3e:	2101      	movs	r1, #1
   d4f40:	4620      	mov	r0, r4
   d4f42:	4798      	blx	r3
}
   d4f44:	b005      	add	sp, #20
   d4f46:	bd30      	pop	{r4, r5, pc}
   d4f48:	000d7845 	.word	0x000d7845

000d4f4c <_Z16takeMeasurementsv>:
{
   d4f4c:	b530      	push	{r4, r5, lr}
        return network_listening(*this, 0, NULL);
    }

    bool ready()
    {
        return network_ready(*this, 0,  NULL);
   d4f4e:	4b2d      	ldr	r3, [pc, #180]	; (d5004 <_Z16takeMeasurementsv+0xb8>)
   d4f50:	2200      	movs	r2, #0
   d4f52:	b08b      	sub	sp, #44	; 0x2c
   d4f54:	6858      	ldr	r0, [r3, #4]
   d4f56:	4611      	mov	r1, r2
   d4f58:	f002 ff28 	bl	d7dac <network_ready>
  if (Cellular.ready()) getSignalStrength();                          // Test signal strength if the cellular modem is on and ready
   d4f5c:	b108      	cbz	r0, d4f62 <_Z16takeMeasurementsv+0x16>
   d4f5e:	f7ff fcfb 	bl	d4958 <_Z17getSignalStrengthv>
  getTemperature();                                                   // Get Temperature at startup as well
   d4f62:	f7ff fd35 	bl	d49d0 <_Z14getTemperaturev>
inline AbstractIntegerDiagnosticData::AbstractIntegerDiagnosticData(DiagnosticDataId id, const char* name) :
        AbstractTypeDiagnosticData<int32_t>(id, name, DIAG_TYPE_INT) {
}

inline int AbstractIntegerDiagnosticData::get(DiagnosticDataId id, IntType& val) {
    return AbstractTypeDiagnosticData<IntType>::get(id, val);
   d4f66:	a902      	add	r1, sp, #8
   d4f68:	2007      	movs	r0, #7
   d4f6a:	f7ff ffcb 	bl	d4f04 <_ZN8particle26AbstractTypeDiagnosticDataIlE3getEtRl>
  sysStatus.batteryState = System.batteryState();                     // Call before isItSafeToCharge() as it may overwrite the context
   d4f6e:	4c26      	ldr	r4, [pc, #152]	; (d5008 <_Z16takeMeasurementsv+0xbc>)
   d4f70:	4d26      	ldr	r5, [pc, #152]	; (d500c <_Z16takeMeasurementsv+0xc0>)
    }

    int batteryState() const {
        particle::AbstractIntegerDiagnosticData::IntType val;
        const auto r = particle::AbstractIntegerDiagnosticData::get(DIAG_ID_SYSTEM_BATTERY_STATE, val);
        if (r < 0) {
   d4f72:	2800      	cmp	r0, #0
            return r;
        }
        return val;
   d4f74:	bfa8      	it	ge
   d4f76:	9802      	ldrge	r0, [sp, #8]
   d4f78:	7320      	strb	r0, [r4, #12]
  if (!isItSafeToCharge()) current.alertCount++;                      // Increment the alert count
   d4f7a:	f7ff fccd 	bl	d4918 <_Z16isItSafeToChargev>
   d4f7e:	b910      	cbnz	r0, d4f86 <_Z16takeMeasurementsv+0x3a>
   d4f80:	692b      	ldr	r3, [r5, #16]
   d4f82:	3301      	adds	r3, #1
   d4f84:	612b      	str	r3, [r5, #16]
   d4f86:	a902      	add	r1, sp, #8
   d4f88:	2003      	movs	r0, #3
   d4f8a:	f7ff ffbb 	bl	d4f04 <_ZN8particle26AbstractTypeDiagnosticDataIlE3getEtRl>
        // XXX: we could potentially simply call FuelGauge::getNormalizedSoC(),
        // however in order to exactly match the vitals values sent to the cloud we are going to use
        // diagnostic source as well.
        particle::AbstractIntegerDiagnosticData::IntType val;
        int r = particle::AbstractIntegerDiagnosticData::get(DIAG_ID_SYSTEM_BATTERY_CHARGE, val);
        if (r) {
   d4f8e:	2800      	cmp	r0, #0
   d4f90:	d134      	bne.n	d4ffc <_Z16takeMeasurementsv+0xb0>
    StorageT value() const {
        return value_;
    }

    constexpr float toFloat() const {
        return static_cast<float>(value_) / constexpr_pow(2.0f, N);
   d4f92:	f8bd 3008 	ldrh.w	r3, [sp, #8]
   d4f96:	ee07 3a90 	vmov	s15, r3
   d4f9a:	eefb 7acc 	vcvt.f32.u32	s15, s15, #8
  sysStatus.stateOfCharge = int(System.batteryCharge());              // Percentage of full charge
   d4f9e:	eefd 7ae7 	vcvt.s32.f32	s15, s15
   d4fa2:	ee17 3a90 	vmov	r3, s15
  if (sysStatus.stateOfCharge < 65 && sysStatus.batteryState == 1) {
   d4fa6:	2b40      	cmp	r3, #64	; 0x40
  sysStatus.stateOfCharge = int(System.batteryCharge());              // Percentage of full charge
   d4fa8:	edc4 7a02 	vstr	s15, [r4, #8]
  if (sysStatus.stateOfCharge < 65 && sysStatus.batteryState == 1) {
   d4fac:	dc09      	bgt.n	d4fc2 <_Z16takeMeasurementsv+0x76>
   d4fae:	7b23      	ldrb	r3, [r4, #12]
   d4fb0:	2b01      	cmp	r3, #1
   d4fb2:	d106      	bne.n	d4fc2 <_Z16takeMeasurementsv+0x76>
    System.setPowerConfiguration(SystemPowerConfiguration());         // Reset the PMIC
   d4fb4:	a802      	add	r0, sp, #8
   d4fb6:	f7ff f9e3 	bl	d4380 <_ZN8particle24SystemPowerConfigurationC1Ev>
        return system_power_management_set_config(conf.config(), nullptr);
   d4fba:	2100      	movs	r1, #0
   d4fbc:	a802      	add	r0, sp, #8
   d4fbe:	f002 fe4f 	bl	d7c60 <system_power_management_set_config>
  if (sysStatus.stateOfCharge < current.minBatteryLevel) current.minBatteryLevel = sysStatus.stateOfCharge; // Keep track of lowest value for the day
   d4fc2:	68a3      	ldr	r3, [r4, #8]
   d4fc4:	69ea      	ldr	r2, [r5, #28]
   d4fc6:	4293      	cmp	r3, r2
   d4fc8:	bfb8      	it	lt
   d4fca:	61eb      	strlt	r3, [r5, #28]
  if (sysStatus.stateOfCharge < 30) sysStatus.lowBatteryMode = true;  // Check to see if we are in low battery territory
   d4fcc:	2b1d      	cmp	r3, #29
   d4fce:	bfcc      	ite	gt
   d4fd0:	2300      	movgt	r3, #0
   d4fd2:	2301      	movle	r3, #1
  current.soilMoisture = map(analogRead(soilPin),0,3722,0,100);      // Sensor puts out 0-3V for 0% to 100% soil moisuture
   d4fd4:	2013      	movs	r0, #19
  if (sysStatus.stateOfCharge < 30) sysStatus.lowBatteryMode = true;  // Check to see if we are in low battery territory
   d4fd6:	71e3      	strb	r3, [r4, #7]
  current.soilMoisture = map(analogRead(soilPin),0,3722,0,100);      // Sensor puts out 0-3V for 0% to 100% soil moisuture
   d4fd8:	f005 ffe3 	bl	dafa2 <analogRead>
   d4fdc:	2364      	movs	r3, #100	; 0x64
   d4fde:	9300      	str	r3, [sp, #0]
   d4fe0:	2300      	movs	r3, #0
   d4fe2:	4619      	mov	r1, r3
   d4fe4:	f640 628a 	movw	r2, #3722	; 0xe8a
   d4fe8:	f002 ff90 	bl	d7f0c <_Z3mapiiiii>
  systemStatusWriteNeeded = true;
   d4fec:	4a08      	ldr	r2, [pc, #32]	; (d5010 <_Z16takeMeasurementsv+0xc4>)
  current.soilMoisture = map(analogRead(soilPin),0,3722,0,100);      // Sensor puts out 0-3V for 0% to 100% soil moisuture
   d4fee:	6068      	str	r0, [r5, #4]
  systemStatusWriteNeeded = true;
   d4ff0:	2301      	movs	r3, #1
   d4ff2:	7013      	strb	r3, [r2, #0]
  currentCountsWriteNeeded = true;
   d4ff4:	4a07      	ldr	r2, [pc, #28]	; (d5014 <_Z16takeMeasurementsv+0xc8>)
   d4ff6:	7013      	strb	r3, [r2, #0]
}
   d4ff8:	b00b      	add	sp, #44	; 0x2c
   d4ffa:	bd30      	pop	{r4, r5, pc}
            return -1.0f;
   d4ffc:	eeff 7a00 	vmov.f32	s15, #240	; 0xbf800000 -1.0
   d5000:	e7cd      	b.n	d4f9e <_Z16takeMeasurementsv+0x52>
   d5002:	bf00      	nop
   d5004:	2003e59c 	.word	0x2003e59c
   d5008:	2003e534 	.word	0x2003e534
   d500c:	2003e46c 	.word	0x2003e46c
   d5010:	2003e568 	.word	0x2003e568
   d5014:	2003e48c 	.word	0x2003e48c

000d5018 <_ZNSt14__shared_countILN9__gnu_cxx12_Lock_policyE0EED1Ev>:
      explicit __shared_count(const __weak_count<_Lp>& __r);

      // Does not throw if __r._M_get_use_count() == 0, caller must check.
      explicit __shared_count(const __weak_count<_Lp>& __r, std::nothrow_t);

      ~__shared_count() noexcept
   d5018:	b538      	push	{r3, r4, r5, lr}
      {
	if (_M_pi != nullptr)
   d501a:	6804      	ldr	r4, [r0, #0]
      ~__shared_count() noexcept
   d501c:	4605      	mov	r5, r0
	if (_M_pi != nullptr)
   d501e:	b17c      	cbz	r4, d5040 <_ZNSt14__shared_countILN9__gnu_cxx12_Lock_policyE0EED1Ev+0x28>
      if (--_M_use_count == 0)
   d5020:	6863      	ldr	r3, [r4, #4]
   d5022:	3b01      	subs	r3, #1
   d5024:	6063      	str	r3, [r4, #4]
   d5026:	b95b      	cbnz	r3, d5040 <_ZNSt14__shared_countILN9__gnu_cxx12_Lock_policyE0EED1Ev+0x28>
          _M_dispose();
   d5028:	6823      	ldr	r3, [r4, #0]
   d502a:	4620      	mov	r0, r4
   d502c:	689b      	ldr	r3, [r3, #8]
   d502e:	4798      	blx	r3
          if (--_M_weak_count == 0)
   d5030:	68a3      	ldr	r3, [r4, #8]
   d5032:	3b01      	subs	r3, #1
   d5034:	60a3      	str	r3, [r4, #8]
   d5036:	b91b      	cbnz	r3, d5040 <_ZNSt14__shared_countILN9__gnu_cxx12_Lock_policyE0EED1Ev+0x28>
            _M_destroy();
   d5038:	6823      	ldr	r3, [r4, #0]
   d503a:	4620      	mov	r0, r4
   d503c:	68db      	ldr	r3, [r3, #12]
   d503e:	4798      	blx	r3
	  _M_pi->_M_release();
      }
   d5040:	4628      	mov	r0, r5
   d5042:	bd38      	pop	{r3, r4, r5, pc}

000d5044 <_ZN5spark6VectorINS_17LogCategoryFilterENS_16DefaultAllocatorEED1Ev>:
inline spark::Vector<T, AllocatorT>::Vector(Vector<T, AllocatorT>&& vector) : Vector() {
    swap(*this, vector);
}

template<typename T, typename AllocatorT>
inline spark::Vector<T, AllocatorT>::~Vector() {
   d5044:	b570      	push	{r4, r5, r6, lr}
    destruct(data_, data_ + size_);
   d5046:	e9d0 5300 	ldrd	r5, r3, [r0]
   d504a:	2614      	movs	r6, #20
inline spark::Vector<T, AllocatorT>::~Vector() {
   d504c:	4604      	mov	r4, r0
    destruct(data_, data_ + size_);
   d504e:	fb06 5603 	mla	r6, r6, r3, r5
        for (; p != end; ++p) {
   d5052:	42ae      	cmp	r6, r5
   d5054:	d004      	beq.n	d5060 <_ZN5spark6VectorINS_17LogCategoryFilterENS_16DefaultAllocatorEED1Ev+0x1c>
class LogCategoryFilter {
   d5056:	4628      	mov	r0, r5
   d5058:	f005 f988 	bl	da36c <_ZN6StringD1Ev>
   d505c:	3514      	adds	r5, #20
   d505e:	e7f8      	b.n	d5052 <_ZN5spark6VectorINS_17LogCategoryFilterENS_16DefaultAllocatorEED1Ev+0xe>
    ::free(ptr);
   d5060:	6820      	ldr	r0, [r4, #0]
   d5062:	f002 fef3 	bl	d7e4c <free>
    AllocatorT::free(data_);
}
   d5066:	4620      	mov	r0, r4
   d5068:	bd70      	pop	{r4, r5, r6, pc}

000d506a <_ZN6MB85RC3putI22systemStatus_structureEERKT_jS4_>:
    template <typename T> const T &put(size_t framAddr, const T &t) {
   d506a:	b538      	push	{r3, r4, r5, lr}
        writeData(framAddr, (const uint8_t *)&t, sizeof(T));
   d506c:	6803      	ldr	r3, [r0, #0]
    template <typename T> const T &put(size_t framAddr, const T &t) {
   d506e:	4614      	mov	r4, r2
        writeData(framAddr, (const uint8_t *)&t, sizeof(T));
   d5070:	68dd      	ldr	r5, [r3, #12]
   d5072:	2334      	movs	r3, #52	; 0x34
   d5074:	47a8      	blx	r5
    }
   d5076:	4620      	mov	r0, r4
   d5078:	bd38      	pop	{r3, r4, r5, pc}
	...

000d507c <_Z18loadSystemDefaultsv>:
void loadSystemDefaults() {                                         // Default settings for the device - connected, not-low power and always on
   d507c:	b570      	push	{r4, r5, r6, lr}
  particleConnectionNeeded = true;                                  // Get connected to Particle - sets sysStatus.connectedStatus to true
   d507e:	4b1b      	ldr	r3, [pc, #108]	; (d50ec <_Z18loadSystemDefaultsv+0x70>)
  if (sysStatus.connectedStatus) publishQueue.publish("Mode","Loading System Defaults", PRIVATE, WITH_ACK);
   d5080:	4c1b      	ldr	r4, [pc, #108]	; (d50f0 <_Z18loadSystemDefaultsv+0x74>)
  particleConnectionNeeded = true;                                  // Get connected to Particle - sets sysStatus.connectedStatus to true
   d5082:	2201      	movs	r2, #1
   d5084:	701a      	strb	r2, [r3, #0]
  if (sysStatus.connectedStatus) publishQueue.publish("Mode","Loading System Defaults", PRIVATE, WITH_ACK);
   d5086:	78e3      	ldrb	r3, [r4, #3]
void loadSystemDefaults() {                                         // Default settings for the device - connected, not-low power and always on
   d5088:	b086      	sub	sp, #24
  if (sysStatus.connectedStatus) publishQueue.publish("Mode","Loading System Defaults", PRIVATE, WITH_ACK);
   d508a:	b153      	cbz	r3, d50a2 <_Z18loadSystemDefaultsv+0x26>
   d508c:	4b19      	ldr	r3, [pc, #100]	; (d50f4 <_Z18loadSystemDefaultsv+0x78>)
   d508e:	4a1a      	ldr	r2, [pc, #104]	; (d50f8 <_Z18loadSystemDefaultsv+0x7c>)
   d5090:	781b      	ldrb	r3, [r3, #0]
   d5092:	f88d 3000 	strb.w	r3, [sp]
   d5096:	4b19      	ldr	r3, [pc, #100]	; (d50fc <_Z18loadSystemDefaultsv+0x80>)
   d5098:	4919      	ldr	r1, [pc, #100]	; (d5100 <_Z18loadSystemDefaultsv+0x84>)
   d509a:	781b      	ldrb	r3, [r3, #0]
   d509c:	4819      	ldr	r0, [pc, #100]	; (d5104 <_Z18loadSystemDefaultsv+0x88>)
   d509e:	f7ff fa0f 	bl	d44c0 <_ZN21PublishQueueAsyncBase7publishEPKcS1_N8particle5FlagsI15PublishFlagTypehEES5_>
  Log.info("Loading system defaults");
   d50a2:	4919      	ldr	r1, [pc, #100]	; (d5108 <_Z18loadSystemDefaultsv+0x8c>)
   d50a4:	4819      	ldr	r0, [pc, #100]	; (d510c <_Z18loadSystemDefaultsv+0x90>)
   d50a6:	f7ff f9dd 	bl	d4464 <_ZNK5spark6Logger4infoEPKcz>
  sysStatus.verboseMode = false;
   d50aa:	2500      	movs	r5, #0
  setLowPowerMode("1");
   d50ac:	4918      	ldr	r1, [pc, #96]	; (d5110 <_Z18loadSystemDefaultsv+0x94>)
  sysStatus.verboseMode = false;
   d50ae:	7125      	strb	r5, [r4, #4]
  sysStatus.structuresVersion = 1;
   d50b0:	2601      	movs	r6, #1
  setLowPowerMode("1");
   d50b2:	a802      	add	r0, sp, #8
  sysStatus.structuresVersion = 1;
   d50b4:	7026      	strb	r6, [r4, #0]
  sysStatus.clockSet = false;
   d50b6:	70a5      	strb	r5, [r4, #2]
  sysStatus.lowBatteryMode = false;
   d50b8:	71e5      	strb	r5, [r4, #7]
  setLowPowerMode("1");
   d50ba:	f005 f9a2 	bl	da402 <_ZN6StringC1EPKc>
   d50be:	a802      	add	r0, sp, #8
   d50c0:	f7ff faee 	bl	d46a0 <_Z15setLowPowerMode6String>
   d50c4:	a802      	add	r0, sp, #8
   d50c6:	f005 f951 	bl	da36c <_ZN6StringD1Ev>
  sysStatus.timezone = -5;                                          // Default is East Coast Time
   d50ca:	4b12      	ldr	r3, [pc, #72]	; (d5114 <_Z18loadSystemDefaultsv+0x98>)
   d50cc:	6163      	str	r3, [r4, #20]
  sysStatus.dstOffset = 1;
   d50ce:	f04f 537e 	mov.w	r3, #1065353216	; 0x3f800000
   d50d2:	61a3      	str	r3, [r4, #24]
  fram.put(FRAM::systemStatusAddr,sysStatus);                       // Write it now since this is a big deal and I don't want values over written
   d50d4:	4a06      	ldr	r2, [pc, #24]	; (d50f0 <_Z18loadSystemDefaultsv+0x74>)
   d50d6:	4810      	ldr	r0, [pc, #64]	; (d5118 <_Z18loadSystemDefaultsv+0x9c>)
  sysStatus.solarPowerMode = true;  
   d50d8:	7166      	strb	r6, [r4, #5]
  sysStatus.openTime = 6;
   d50da:	f241 5306 	movw	r3, #5382	; 0x1506
  fram.put(FRAM::systemStatusAddr,sysStatus);                       // Write it now since this is a big deal and I don't want values over written
   d50de:	4631      	mov	r1, r6
  sysStatus.openTime = 6;
   d50e0:	83a3      	strh	r3, [r4, #28]
  sysStatus.lastConnectionDuration = 0;                             // New measure
   d50e2:	8525      	strh	r5, [r4, #40]	; 0x28
  fram.put(FRAM::systemStatusAddr,sysStatus);                       // Write it now since this is a big deal and I don't want values over written
   d50e4:	f7ff ffc1 	bl	d506a <_ZN6MB85RC3putI22systemStatus_structureEERKT_jS4_>
}
   d50e8:	b006      	add	sp, #24
   d50ea:	bd70      	pop	{r4, r5, r6, pc}
   d50ec:	2003e4e9 	.word	0x2003e4e9
   d50f0:	2003e534 	.word	0x2003e534
   d50f4:	2003e411 	.word	0x2003e411
   d50f8:	000dde81 	.word	0x000dde81
   d50fc:	2003e410 	.word	0x2003e410
   d5100:	000dde27 	.word	0x000dde27
   d5104:	2003e4ec 	.word	0x2003e4ec
   d5108:	000dde99 	.word	0x000dde99
   d510c:	2003e5e0 	.word	0x2003e5e0
   d5110:	000ddc30 	.word	0x000ddc30
   d5114:	c0a00000 	.word	0xc0a00000
   d5118:	2003e498 	.word	0x2003e498
   d511c:	00000000 	.word	0x00000000

000d5120 <setup>:
{
   d5120:	e92d 41f0 	stmdb	sp!, {r4, r5, r6, r7, r8, lr}
  pinMode(wakeUpPin,INPUT);                         // This pin is active HIGH
   d5124:	2100      	movs	r1, #0
{
   d5126:	b0aa      	sub	sp, #168	; 0xa8
  pinMode(wakeUpPin,INPUT);                         // This pin is active HIGH
   d5128:	2008      	movs	r0, #8
   d512a:	f005 fefd 	bl	daf28 <pinMode>
  pinMode(userSwitch,INPUT);                        // Momentary contact button on board for direct user input
   d512e:	2100      	movs	r1, #0
   d5130:	2004      	movs	r0, #4
   d5132:	f005 fef9 	bl	daf28 <pinMode>
  pinMode(blueLED, OUTPUT);                         // declare the Blue LED Pin as an output
   d5136:	2101      	movs	r1, #1
   d5138:	2007      	movs	r0, #7
   d513a:	f005 fef5 	bl	daf28 <pinMode>
  digitalWrite(blueLED,HIGH);                       // Turn on the led so we can see how long the Setup() takes
   d513e:	2101      	movs	r1, #1
   d5140:	2007      	movs	r0, #7
   d5142:	f005 ff02 	bl	daf4a <digitalWrite>
    static String deviceID(void) { return spark_deviceID(); }
   d5146:	a806      	add	r0, sp, #24
        return spark_subscribe(eventName, handler, NULL, scope, NULL, NULL);
   d5148:	2500      	movs	r5, #0
   d514a:	f002 fdcf 	bl	d7cec <spark_deviceID>
	void setCharAt(unsigned int index, char c);
	char operator [] (unsigned int index) const;
	char& operator [] (unsigned int index);
	void getBytes(unsigned char *buf, unsigned int bufsize, unsigned int index=0) const;
	void toCharArray(char *buf, unsigned int bufsize, unsigned int index=0) const
		{getBytes((unsigned char *)buf, bufsize, index);}
   d514e:	2300      	movs	r3, #0
   d5150:	227d      	movs	r2, #125	; 0x7d
   d5152:	a90a      	add	r1, sp, #40	; 0x28
   d5154:	a806      	add	r0, sp, #24
   d5156:	f005 f9bc 	bl	da4d2 <_ZNK6String8getBytesEPhjj>
   d515a:	49bd      	ldr	r1, [pc, #756]	; (d5450 <setup+0x330>)
   d515c:	f8df 8404 	ldr.w	r8, [pc, #1028]	; d5564 <setup+0x444>
   d5160:	4cbc      	ldr	r4, [pc, #752]	; (d5454 <setup+0x334>)
   d5162:	4fbd      	ldr	r7, [pc, #756]	; (d5458 <setup+0x338>)
   d5164:	462b      	mov	r3, r5
   d5166:	462a      	mov	r2, r5
   d5168:	e9cd 5500 	strd	r5, r5, [sp]
   d516c:	a80a      	add	r0, sp, #40	; 0x28
   d516e:	f002 fdcd 	bl	d7d0c <spark_subscribe>
        return spark_variable(varKey, (const void*)userVar, T::TYPE_ID, NULL);
   d5172:	462b      	mov	r3, r5
   d5174:	2202      	movs	r2, #2
   d5176:	49b9      	ldr	r1, [pc, #740]	; (d545c <setup+0x33c>)
   d5178:	48b9      	ldr	r0, [pc, #740]	; (d5460 <setup+0x340>)
   d517a:	f002 fd8f 	bl	d7c9c <spark_variable>
        return _variable(varKey, var, STRING);
   d517e:	49b9      	ldr	r1, [pc, #740]	; (d5464 <setup+0x344>)
   d5180:	48b9      	ldr	r0, [pc, #740]	; (d5468 <setup+0x348>)
   d5182:	f7ff f875 	bl	d4270 <_ZN10CloudClass9_variableI17CloudVariableTypeIPKcvEEEbS3_NT_11PointerTypeERKS5_.isra.0>
        return spark_variable(varKey, (const void*)userVar, T::TYPE_ID, NULL);
   d5186:	49b9      	ldr	r1, [pc, #740]	; (d546c <setup+0x34c>)
   d5188:	48b9      	ldr	r0, [pc, #740]	; (d5470 <setup+0x350>)
   d518a:	462b      	mov	r3, r5
   d518c:	2202      	movs	r2, #2
   d518e:	f002 fd85 	bl	d7c9c <spark_variable>
   d5192:	462b      	mov	r3, r5
   d5194:	2202      	movs	r2, #2
   d5196:	49b7      	ldr	r1, [pc, #732]	; (d5474 <setup+0x354>)
   d5198:	48b7      	ldr	r0, [pc, #732]	; (d5478 <setup+0x358>)
   d519a:	f002 fd7f 	bl	d7c9c <spark_variable>
        return _variable(varKey, var, STRING);
   d519e:	49b7      	ldr	r1, [pc, #732]	; (d547c <setup+0x35c>)
   d51a0:	48b7      	ldr	r0, [pc, #732]	; (d5480 <setup+0x360>)
   d51a2:	f7ff f865 	bl	d4270 <_ZN10CloudClass9_variableI17CloudVariableTypeIPKcvEEEbS3_NT_11PointerTypeERKS5_.isra.0>
        return spark_variable(varKey, (const void*)userVar, T::TYPE_ID, NULL);
   d51a6:	462b      	mov	r3, r5
   d51a8:	2202      	movs	r2, #2
   d51aa:	49b6      	ldr	r1, [pc, #728]	; (d5484 <setup+0x364>)
   d51ac:	48b6      	ldr	r0, [pc, #728]	; (d5488 <setup+0x368>)
   d51ae:	f002 fd75 	bl	d7c9c <spark_variable>
        return _variable(varKey, var, STRING);
   d51b2:	49b6      	ldr	r1, [pc, #728]	; (d548c <setup+0x36c>)
   d51b4:	48b6      	ldr	r0, [pc, #728]	; (d5490 <setup+0x370>)
   d51b6:	f7ff f85b 	bl	d4270 <_ZN10CloudClass9_variableI17CloudVariableTypeIPKcvEEEbS3_NT_11PointerTypeERKS5_.isra.0>
   d51ba:	49b6      	ldr	r1, [pc, #728]	; (d5494 <setup+0x374>)
   d51bc:	48b6      	ldr	r0, [pc, #728]	; (d5498 <setup+0x378>)
   d51be:	f7ff f857 	bl	d4270 <_ZN10CloudClass9_variableI17CloudVariableTypeIPKcvEEEbS3_NT_11PointerTypeERKS5_.isra.0>
   d51c2:	49b6      	ldr	r1, [pc, #728]	; (d549c <setup+0x37c>)
   d51c4:	48b6      	ldr	r0, [pc, #728]	; (d54a0 <setup+0x380>)
   d51c6:	f7ff f853 	bl	d4270 <_ZN10CloudClass9_variableI17CloudVariableTypeIPKcvEEEbS3_NT_11PointerTypeERKS5_.isra.0>
        return spark_variable(varKey, (const void*)userVar, T::TYPE_ID, NULL);
   d51ca:	462b      	mov	r3, r5
   d51cc:	2202      	movs	r2, #2
   d51ce:	49b5      	ldr	r1, [pc, #724]	; (d54a4 <setup+0x384>)
   d51d0:	48b5      	ldr	r0, [pc, #724]	; (d54a8 <setup+0x388>)
   d51d2:	f002 fd63 	bl	d7c9c <spark_variable>
        return _variable(varKey, var, STRING);
   d51d6:	49b5      	ldr	r1, [pc, #724]	; (d54ac <setup+0x38c>)
   d51d8:	48b5      	ldr	r0, [pc, #724]	; (d54b0 <setup+0x390>)
   d51da:	f7ff f849 	bl	d4270 <_ZN10CloudClass9_variableI17CloudVariableTypeIPKcvEEEbS3_NT_11PointerTypeERKS5_.isra.0>
        extra.size = sizeof(extra);
   d51de:	230c      	movs	r3, #12
        spark_variable_t extra = {};
   d51e0:	e9cd 5503 	strd	r5, r5, [sp, #12]
        extra.size = sizeof(extra);
   d51e4:	f8ad 300c 	strh.w	r3, [sp, #12]
        extra.copy = [](const void* var, void** data, size_t* size) {
   d51e8:	4bb2      	ldr	r3, [pc, #712]	; (d54b4 <setup+0x394>)
        return spark_variable(varKey, (const void*)&fn, VariableType::TYPE_ID, &extra);
   d51ea:	49b3      	ldr	r1, [pc, #716]	; (d54b8 <setup+0x398>)
        extra.copy = [](const void* var, void** data, size_t* size) {
   d51ec:	9305      	str	r3, [sp, #20]
        return spark_variable(varKey, (const void*)&fn, VariableType::TYPE_ID, &extra);
   d51ee:	2204      	movs	r2, #4
   d51f0:	ab03      	add	r3, sp, #12
   d51f2:	48b2      	ldr	r0, [pc, #712]	; (d54bc <setup+0x39c>)
   d51f4:	f002 fd52 	bl	d7c9c <spark_variable>
        return _variable(varKey, var, STRING);
   d51f8:	49b1      	ldr	r1, [pc, #708]	; (d54c0 <setup+0x3a0>)
   d51fa:	48b2      	ldr	r0, [pc, #712]	; (d54c4 <setup+0x3a4>)
   d51fc:	f7ff f838 	bl	d4270 <_ZN10CloudClass9_variableI17CloudVariableTypeIPKcvEEEbS3_NT_11PointerTypeERKS5_.isra.0>
   d5200:	49b1      	ldr	r1, [pc, #708]	; (d54c8 <setup+0x3a8>)
   d5202:	48b2      	ldr	r0, [pc, #712]	; (d54cc <setup+0x3ac>)
   d5204:	f7ff f834 	bl	d4270 <_ZN10CloudClass9_variableI17CloudVariableTypeIPKcvEEEbS3_NT_11PointerTypeERKS5_.isra.0>
        return _function(name, args...);
   d5208:	49b1      	ldr	r1, [pc, #708]	; (d54d0 <setup+0x3b0>)
   d520a:	48b2      	ldr	r0, [pc, #712]	; (d54d4 <setup+0x3b4>)
   d520c:	f7ff f924 	bl	d4458 <_ZN10CloudClass9_functionEPKcPFi6StringE>
   d5210:	49b1      	ldr	r1, [pc, #708]	; (d54d8 <setup+0x3b8>)
   d5212:	48b2      	ldr	r0, [pc, #712]	; (d54dc <setup+0x3bc>)
   d5214:	f7ff f920 	bl	d4458 <_ZN10CloudClass9_functionEPKcPFi6StringE>
   d5218:	49b1      	ldr	r1, [pc, #708]	; (d54e0 <setup+0x3c0>)
   d521a:	48b2      	ldr	r0, [pc, #712]	; (d54e4 <setup+0x3c4>)
   d521c:	f7ff f91c 	bl	d4458 <_ZN10CloudClass9_functionEPKcPFi6StringE>
   d5220:	49b1      	ldr	r1, [pc, #708]	; (d54e8 <setup+0x3c8>)
   d5222:	48b2      	ldr	r0, [pc, #712]	; (d54ec <setup+0x3cc>)
   d5224:	f7ff f918 	bl	d4458 <_ZN10CloudClass9_functionEPKcPFi6StringE>
   d5228:	49b1      	ldr	r1, [pc, #708]	; (d54f0 <setup+0x3d0>)
   d522a:	48b2      	ldr	r0, [pc, #712]	; (d54f4 <setup+0x3d4>)
   d522c:	f7ff f914 	bl	d4458 <_ZN10CloudClass9_functionEPKcPFi6StringE>
   d5230:	49b1      	ldr	r1, [pc, #708]	; (d54f8 <setup+0x3d8>)
   d5232:	48b2      	ldr	r0, [pc, #712]	; (d54fc <setup+0x3dc>)
   d5234:	f7ff f910 	bl	d4458 <_ZN10CloudClass9_functionEPKcPFi6StringE>
   d5238:	49b1      	ldr	r1, [pc, #708]	; (d5500 <setup+0x3e0>)
   d523a:	48b2      	ldr	r0, [pc, #712]	; (d5504 <setup+0x3e4>)
   d523c:	f7ff f90c 	bl	d4458 <_ZN10CloudClass9_functionEPKcPFi6StringE>
   d5240:	49b1      	ldr	r1, [pc, #708]	; (d5508 <setup+0x3e8>)
   d5242:	48b2      	ldr	r0, [pc, #712]	; (d550c <setup+0x3ec>)
   d5244:	f7ff f908 	bl	d4458 <_ZN10CloudClass9_functionEPKcPFi6StringE>
   d5248:	49b1      	ldr	r1, [pc, #708]	; (d5510 <setup+0x3f0>)
   d524a:	48b2      	ldr	r0, [pc, #712]	; (d5514 <setup+0x3f4>)
   d524c:	f7ff f904 	bl	d4458 <_ZN10CloudClass9_functionEPKcPFi6StringE>
   d5250:	49b1      	ldr	r1, [pc, #708]	; (d5518 <setup+0x3f8>)
   d5252:	48b2      	ldr	r0, [pc, #712]	; (d551c <setup+0x3fc>)
   d5254:	f7ff f900 	bl	d4458 <_ZN10CloudClass9_functionEPKcPFi6StringE>
   d5258:	49b1      	ldr	r1, [pc, #708]	; (d5520 <setup+0x400>)
   d525a:	48b2      	ldr	r0, [pc, #712]	; (d5524 <setup+0x404>)
   d525c:	f7ff f8fc 	bl	d4458 <_ZN10CloudClass9_functionEPKcPFi6StringE>
   d5260:	49b1      	ldr	r1, [pc, #708]	; (d5528 <setup+0x408>)
   d5262:	48b2      	ldr	r0, [pc, #712]	; (d552c <setup+0x40c>)
   d5264:	f7ff f8f8 	bl	d4458 <_ZN10CloudClass9_functionEPKcPFi6StringE>
}

inline CloudDisconnectOptions& CloudDisconnectOptions::graceful(bool enabled) {
    graceful_ = enabled;
   d5268:	2601      	movs	r6, #1
inline bool CloudDisconnectOptions::isGracefulSet() const {
    return (flags_ & SPARK_CLOUD_DISCONNECT_OPTION_GRACEFUL);
}

inline CloudDisconnectOptions& CloudDisconnectOptions::timeout(system_tick_t timeout) {
    timeout_ = timeout;
   d526a:	2203      	movs	r2, #3
   d526c:	f241 3388 	movw	r3, #5000	; 0x1388
  Particle.setDisconnectOptions(CloudDisconnectOptions().graceful(true).timeout(5s));  // Don't disconnect abruptly
   d5270:	a803      	add	r0, sp, #12
   d5272:	e9cd 2303 	strd	r2, r3, [sp, #12]
    graceful_ = enabled;
   d5276:	f8ad 6014 	strh.w	r6, [sp, #20]
   d527a:	f003 f832 	bl	d82e2 <_ZN10CloudClass20setDisconnectOptionsERK22CloudDisconnectOptions>
  fram.begin();                                                       // Initialize the FRAM module
   d527e:	48ac      	ldr	r0, [pc, #688]	; (d5530 <setup+0x410>)
   d5280:	f001 fdbc 	bl	d6dfc <_ZN6MB85RC5beginEv>
        readData(framAddr, (uint8_t *)&t, sizeof(T));
   d5284:	4629      	mov	r1, r5
   d5286:	48aa      	ldr	r0, [pc, #680]	; (d5530 <setup+0x410>)
   d5288:	4633      	mov	r3, r6
   d528a:	f10d 020b 	add.w	r2, sp, #11
   d528e:	f001 fdf7 	bl	d6e80 <_ZN6MB85RC8readDataEjPhj>
  if (tempVersion != FRAMversionNumber) {                             // Check to see if the memory map in the sketch matches the data on the chip
   d5292:	f89d 100b 	ldrb.w	r1, [sp, #11]
   d5296:	42b1      	cmp	r1, r6
   d5298:	f000 80c6 	beq.w	d5428 <setup+0x308>
    fram.erase();                                                     // Reset the FRAM to correct the issue
   d529c:	48a4      	ldr	r0, [pc, #656]	; (d5530 <setup+0x410>)
   d529e:	f001 fdb7 	bl	d6e10 <_ZN6MB85RC5eraseEv>
        writeData(framAddr, (const uint8_t *)&t, sizeof(T));
   d52a2:	4aa4      	ldr	r2, [pc, #656]	; (d5534 <setup+0x414>)
   d52a4:	48a2      	ldr	r0, [pc, #648]	; (d5530 <setup+0x410>)
   d52a6:	2304      	movs	r3, #4
   d52a8:	4629      	mov	r1, r5
   d52aa:	f001 fe34 	bl	d6f16 <_ZN6MB85RC9writeDataEjPKhj>
        readData(framAddr, (uint8_t *)&t, sizeof(T));
   d52ae:	4633      	mov	r3, r6
   d52b0:	489f      	ldr	r0, [pc, #636]	; (d5530 <setup+0x410>)
   d52b2:	f10d 020b 	add.w	r2, sp, #11
   d52b6:	4629      	mov	r1, r5
   d52b8:	f001 fde2 	bl	d6e80 <_ZN6MB85RC8readDataEjPhj>
    if (tempVersion != FRAMversionNumber) state = ERROR_STATE;        // Device will not work without FRAM
   d52bc:	f89d 300b 	ldrb.w	r3, [sp, #11]
   d52c0:	42b3      	cmp	r3, r6
   d52c2:	f000 80ae 	beq.w	d5422 <setup+0x302>
   d52c6:	703e      	strb	r6, [r7, #0]
     * This is used during chip detection as FOUT goes high after the AB1805
     * is initialized. While FOUT is low, the I2C interface is not yet ready.
     * 
     * The FOUT/nIRQ pin is also used for one-time and periodic interrupts.
     */
    AB1805 &withFOUT(pin_t pin) { foutPin = pin; return *this; };
   d52c8:	4d9b      	ldr	r5, [pc, #620]	; (d5538 <setup+0x418>)
  checkSystemValues();                                                // Make sure System values are all in valid range
   d52ca:	f7ff fc5b 	bl	d4b84 <_Z17checkSystemValuesv>
  makeUpParkHourStrings();                                            // Create the strings for the console
   d52ce:	f7ff fcaf 	bl	d4c30 <_Z21makeUpParkHourStringsv>
        return system_subscribe_event(events, reinterpret_cast<system_event_handler_t*>(handler), NULL);
   d52d2:	4a9a      	ldr	r2, [pc, #616]	; (d553c <setup+0x41c>)
   d52d4:	2300      	movs	r3, #0
   d52d6:	2100      	movs	r1, #0
   d52d8:	f44f 2080 	mov.w	r0, #262144	; 0x40000
   d52dc:	f002 fc7c 	bl	d7bd8 <system_subscribe_event>
   d52e0:	2308      	movs	r3, #8
  ab1805.withFOUT(D8).setup();
   d52e2:	2101      	movs	r1, #1
   d52e4:	4628      	mov	r0, r5
   d52e6:	816b      	strh	r3, [r5, #10]
   d52e8:	f001 fc3a 	bl	d6b60 <_ZN6AB18055setupEb>
    /**
     * @brief Returns true if the RTC has been set
     * 
     * On cold power-up before cloud connecting, this will be false. Note that
     */
    bool isRTCSet() { return isBitClear(REG_CTRL_1, REG_CTRL_1_WRTC); };
   d52ec:	2301      	movs	r3, #1
   d52ee:	461a      	mov	r2, r3
   d52f0:	2110      	movs	r1, #16
   d52f2:	4628      	mov	r0, r5
   d52f4:	f001 f99f 	bl	d6636 <_ZN6AB180510isBitClearEhhb>
  ab1805.setWDT(AB1805::WATCHDOG_MAX_SECONDS);
   d52f8:	217c      	movs	r1, #124	; 0x7c
  sysStatus.clockSet = ab1805.isRTCSet();
   d52fa:	70a0      	strb	r0, [r4, #2]
  ab1805.setWDT(AB1805::WATCHDOG_MAX_SECONDS);
   d52fc:	4628      	mov	r0, r5
   d52fe:	f001 f917 	bl	d6530 <_ZN6AB18056setWDTEi>
  Time.setDSTOffset(sysStatus.dstOffset);                              // Set the value from FRAM if in limits
   d5302:	ed94 0a06 	vldr	s0, [r4, #24]
   d5306:	f005 fa79 	bl	da7fc <_ZN9TimeClass12setDSTOffsetEf>
  DSTRULES() ? Time.beginDST() : Time.endDST();                        // Perform the DST calculation here
   d530a:	f000 ff49 	bl	d61a0 <_Z8isDSTusav>
   d530e:	2800      	cmp	r0, #0
   d5310:	f000 8096 	beq.w	d5440 <setup+0x320>
   d5314:	f005 fa90 	bl	da838 <_ZN9TimeClass8beginDSTEv>
  Time.zone(sysStatus.timezone);                                       // Set the Time Zone for our device
   d5318:	ed94 0a05 	vldr	s0, [r4, #20]
   d531c:	f005 fa4e 	bl	da7bc <_ZN9TimeClass4zoneEf>
  snprintf(currentOffsetStr,sizeof(currentOffsetStr),"%2.1f UTC",(Time.local() - Time.now()) / 3600.0);   // Load the offset string
   d5320:	f005 fbee 	bl	dab00 <_ZN9TimeClass5localEv>
   d5324:	4605      	mov	r5, r0
   d5326:	f005 fbb2 	bl	daa8e <_ZN9TimeClass3nowEv>
   d532a:	1a28      	subs	r0, r5, r0
   d532c:	f006 f830 	bl	db390 <__aeabi_i2d>
   d5330:	a345      	add	r3, pc, #276	; (adr r3, d5448 <setup+0x328>)
   d5332:	e9d3 2300 	ldrd	r2, r3, [r3]
   d5336:	f006 f9bf 	bl	db6b8 <__aeabi_ddiv>
   d533a:	4a81      	ldr	r2, [pc, #516]	; (d5540 <setup+0x420>)
   d533c:	e9cd 0100 	strd	r0, r1, [sp]
   d5340:	210a      	movs	r1, #10
   d5342:	485a      	ldr	r0, [pc, #360]	; (d54ac <setup+0x38c>)
   d5344:	f002 fd9a 	bl	d7e7c <snprintf>
  snprintf(wateringThresholdPctStr,sizeof(wateringThresholdPctStr),"%2.1f %%",sysStatus.wateringThresholdPct);
   d5348:	6ae0      	ldr	r0, [r4, #44]	; 0x2c
   d534a:	f006 f833 	bl	db3b4 <__aeabi_f2d>
   d534e:	4a7d      	ldr	r2, [pc, #500]	; (d5544 <setup+0x424>)
   d5350:	e9cd 0100 	strd	r0, r1, [sp]
   d5354:	2108      	movs	r1, #8
   d5356:	485a      	ldr	r0, [pc, #360]	; (d54c0 <setup+0x3a0>)
   d5358:	f002 fd90 	bl	d7e7c <snprintf>
  snprintf(wateringDurationStr, sizeof(wateringDurationStr), "%i seconds",sysStatus.wateringDuration);
   d535c:	6b23      	ldr	r3, [r4, #48]	; 0x30
   d535e:	4a7a      	ldr	r2, [pc, #488]	; (d5548 <setup+0x428>)
   d5360:	4859      	ldr	r0, [pc, #356]	; (d54c8 <setup+0x3a8>)
   d5362:	2110      	movs	r1, #16
   d5364:	f002 fd8a 	bl	d7e7c <snprintf>
  (sysStatus.lowPowerMode) ? strncpy(lowPowerModeStr,"Low Power",sizeof(lowPowerModeStr)) : strncpy(lowPowerModeStr,"Not Low Power",sizeof(lowPowerModeStr));
   d5368:	79a3      	ldrb	r3, [r4, #6]
   d536a:	2210      	movs	r2, #16
   d536c:	2b00      	cmp	r3, #0
   d536e:	f000 80fb 	beq.w	d5568 <setup+0x448>
   d5372:	4976      	ldr	r1, [pc, #472]	; (d554c <setup+0x42c>)
   d5374:	4845      	ldr	r0, [pc, #276]	; (d548c <setup+0x36c>)
   d5376:	f006 fd0e 	bl	dbd96 <strncpy>
        int reason = RESET_REASON_NONE;
   d537a:	2200      	movs	r2, #0
        HAL_Core_Get_Last_Reset_Info(&reason, nullptr, nullptr);
   d537c:	4611      	mov	r1, r2
   d537e:	a803      	add	r0, sp, #12
        int reason = RESET_REASON_NONE;
   d5380:	9203      	str	r2, [sp, #12]
        HAL_Core_Get_Last_Reset_Info(&reason, nullptr, nullptr);
   d5382:	f002 fa47 	bl	d7814 <HAL_Core_Get_Last_Reset_Info>
        return reason;
   d5386:	9b03      	ldr	r3, [sp, #12]
  if (System.resetReason() == RESET_REASON_PIN_RESET || System.resetReason() == RESET_REASON_USER) { // Check to see if we are starting from a pin reset or a reset in the sketch
   d5388:	2b14      	cmp	r3, #20
   d538a:	f04f 0200 	mov.w	r2, #0
   d538e:	f040 80ed 	bne.w	d556c <setup+0x44c>
    sysStatus.resetCount++;
   d5392:	6923      	ldr	r3, [r4, #16]
   d5394:	3301      	adds	r3, #1
   d5396:	6123      	str	r3, [r4, #16]
    systemStatusWriteNeeded = true;                                    // If so, store incremented number - watchdog must have done This
   d5398:	4b6d      	ldr	r3, [pc, #436]	; (d5550 <setup+0x430>)
   d539a:	2201      	movs	r2, #1
   d539c:	701a      	strb	r2, [r3, #0]
  setPowerConfig();                                                    // Executes commands that set up the Power configuration between Solar and DC-Powered
   d539e:	f7ff fb6b 	bl	d4a78 <_Z14setPowerConfigv>
  if (!digitalRead(userSwitch)) loadSystemDefaults();                  // Make sure the device wakes up and connects
   d53a2:	2004      	movs	r0, #4
   d53a4:	f005 fdea 	bl	daf7c <digitalRead>
   d53a8:	b908      	cbnz	r0, d53ae <setup+0x28e>
   d53aa:	f7ff fe67 	bl	d507c <_Z18loadSystemDefaultsv>
  if (Time.day() != Time.day(current.lastCountTime)) {                 // Check to see if the device was last on in a different day
   d53ae:	f005 fb8b 	bl	daac8 <_ZN9TimeClass3dayEv>
   d53b2:	2100      	movs	r1, #0
   d53b4:	4605      	mov	r5, r0
   d53b6:	f8d8 0000 	ldr.w	r0, [r8]
   d53ba:	f005 f9e3 	bl	da784 <_ZN9TimeClass3dayEx>
   d53be:	4285      	cmp	r5, r0
   d53c0:	d001      	beq.n	d53c6 <setup+0x2a6>
    resetEverything();                                                 // Zero the counts for the new day
   d53c2:	f7ff fced 	bl	d4da0 <_Z15resetEverythingv>
  if ((Time.hour() >= sysStatus.openTime) && (Time.hour() < sysStatus.closeTime)) { // Park is open let's get ready for the day                                                            
   d53c6:	f005 fb73 	bl	daab0 <_ZN9TimeClass4hourEv>
   d53ca:	7f23      	ldrb	r3, [r4, #28]
   d53cc:	4298      	cmp	r0, r3
   d53ce:	db16      	blt.n	d53fe <setup+0x2de>
   d53d0:	f005 fb6e 	bl	daab0 <_ZN9TimeClass4hourEv>
   d53d4:	7f63      	ldrb	r3, [r4, #29]
   d53d6:	4298      	cmp	r0, r3
   d53d8:	da11      	bge.n	d53fe <setup+0x2de>
    if (sysStatus.connectedStatus && !Particle.connected()) {         // If the system thinks we are connected, let's make sure that we are
   d53da:	78e3      	ldrb	r3, [r4, #3]
   d53dc:	b133      	cbz	r3, d53ec <setup+0x2cc>
    static bool connected(void) { return spark_cloud_flag_connected(); }
   d53de:	f002 fc7d 	bl	d7cdc <spark_cloud_flag_connected>
   d53e2:	b918      	cbnz	r0, d53ec <setup+0x2cc>
      particleConnectionNeeded = true;                                // This may happen if there was an unexpected reset during park open hours
   d53e4:	4b5b      	ldr	r3, [pc, #364]	; (d5554 <setup+0x434>)
      sysStatus.connectedStatus = false;                              // At least for now this is the right value
   d53e6:	70e0      	strb	r0, [r4, #3]
      particleConnectionNeeded = true;                                // This may happen if there was an unexpected reset during park open hours
   d53e8:	2201      	movs	r2, #1
   d53ea:	701a      	strb	r2, [r3, #0]
    takeMeasurements();                                               // Populates values so you can read them before the hour
   d53ec:	f7ff fdae 	bl	d4f4c <_Z16takeMeasurementsv>
    stayAwake = stayAwakeLong;                                        // Keeps Boron awake after reboot - helps with recovery
   d53f0:	4b59      	ldr	r3, [pc, #356]	; (d5558 <setup+0x438>)
   d53f2:	4a5a      	ldr	r2, [pc, #360]	; (d555c <setup+0x43c>)
   d53f4:	601a      	str	r2, [r3, #0]

#ifdef __cplusplus
extern "C" {
#endif

inline system_tick_t millis(void) { return HAL_Timer_Get_Milli_Seconds(); }
   d53f6:	f002 fa2d 	bl	d7854 <HAL_Timer_Get_Milli_Seconds>
    stayAwakeTimeStamp = millis();
   d53fa:	4b59      	ldr	r3, [pc, #356]	; (d5560 <setup+0x440>)
   d53fc:	6018      	str	r0, [r3, #0]
  if (state == INITIALIZATION_STATE) state = IDLE_STATE;              // IDLE unless otherwise from above code
   d53fe:	783b      	ldrb	r3, [r7, #0]
   d5400:	b90b      	cbnz	r3, d5406 <setup+0x2e6>
   d5402:	2302      	movs	r3, #2
   d5404:	703b      	strb	r3, [r7, #0]
  digitalWrite(blueLED,LOW);                                          // Signal the end of startup
   d5406:	2100      	movs	r1, #0
   d5408:	2007      	movs	r0, #7
   d540a:	f005 fd9e 	bl	daf4a <digitalWrite>
  sysStatus.verboseMode = true;
   d540e:	2301      	movs	r3, #1
   d5410:	7123      	strb	r3, [r4, #4]
  String deviceID = System.deviceID();              // Multiple devices share the same hook - keeps things straight
   d5412:	a806      	add	r0, sp, #24
  sysStatus.lowPowerMode = false;
   d5414:	2300      	movs	r3, #0
   d5416:	71a3      	strb	r3, [r4, #6]
  String deviceID = System.deviceID();              // Multiple devices share the same hook - keeps things straight
   d5418:	f004 ffa8 	bl	da36c <_ZN6StringD1Ev>
}
   d541c:	b02a      	add	sp, #168	; 0xa8
   d541e:	e8bd 81f0 	ldmia.w	sp!, {r4, r5, r6, r7, r8, pc}
    else loadSystemDefaults();                                        // Out of the box, we need the device to be awake and connected
   d5422:	f7ff fe2b 	bl	d507c <_Z18loadSystemDefaultsv>
   d5426:	e74f      	b.n	d52c8 <setup+0x1a8>
   d5428:	4622      	mov	r2, r4
   d542a:	2334      	movs	r3, #52	; 0x34
   d542c:	4840      	ldr	r0, [pc, #256]	; (d5530 <setup+0x410>)
   d542e:	f001 fd27 	bl	d6e80 <_ZN6MB85RC8readDataEjPhj>
   d5432:	2320      	movs	r3, #32
   d5434:	4642      	mov	r2, r8
   d5436:	2150      	movs	r1, #80	; 0x50
   d5438:	483d      	ldr	r0, [pc, #244]	; (d5530 <setup+0x410>)
   d543a:	f001 fd21 	bl	d6e80 <_ZN6MB85RC8readDataEjPhj>
        return t;
   d543e:	e743      	b.n	d52c8 <setup+0x1a8>
  DSTRULES() ? Time.beginDST() : Time.endDST();                        // Perform the DST calculation here
   d5440:	f005 fa06 	bl	da850 <_ZN9TimeClass6endDSTEv>
   d5444:	e768      	b.n	d5318 <setup+0x1f8>
   d5446:	bf00      	nop
   d5448:	00000000 	.word	0x00000000
   d544c:	40ac2000 	.word	0x40ac2000
   d5450:	000d44dd 	.word	0x000d44dd
   d5454:	2003e534 	.word	0x2003e534
   d5458:	2003e528 	.word	0x2003e528
   d545c:	2003e470 	.word	0x2003e470
   d5460:	000ddeb1 	.word	0x000ddeb1
   d5464:	2003e3c4 	.word	0x2003e3c4
   d5468:	000ddebe 	.word	0x000ddebe
   d546c:	2003e544 	.word	0x2003e544
   d5470:	000ddec5 	.word	0x000ddec5
   d5474:	2003e478 	.word	0x2003e478
   d5478:	000dded0 	.word	0x000dded0
   d547c:	2003e100 	.word	0x2003e100
   d5480:	000ddedc 	.word	0x000ddedc
   d5484:	2003e53c 	.word	0x2003e53c
   d5488:	000ddee4 	.word	0x000ddee4
   d548c:	2003e4d8 	.word	0x2003e4d8
   d5490:	000ddeef 	.word	0x000ddeef
   d5494:	2003e106 	.word	0x2003e106
   d5498:	000ddfa6 	.word	0x000ddfa6
   d549c:	2003e0f4 	.word	0x2003e0f4
   d54a0:	000ddefc 	.word	0x000ddefc
   d54a4:	2003e47c 	.word	0x2003e47c
   d54a8:	000ddf06 	.word	0x000ddf06
   d54ac:	2003e48d 	.word	0x2003e48d
   d54b0:	000ddf0d 	.word	0x000ddf0d
   d54b4:	000d4279 	.word	0x000d4279
   d54b8:	000d4111 	.word	0x000d4111
   d54bc:	000ddf18 	.word	0x000ddf18
   d54c0:	2003e579 	.word	0x2003e579
   d54c4:	000ddf27 	.word	0x000ddf27
   d54c8:	2003e569 	.word	0x2003e569
   d54cc:	000ddf33 	.word	0x000ddf33
   d54d0:	000d41fd 	.word	0x000d41fd
   d54d4:	000ddf44 	.word	0x000ddf44
   d54d8:	000d457d 	.word	0x000d457d
   d54dc:	000ddf50 	.word	0x000ddf50
   d54e0:	000d4149 	.word	0x000d4149
   d54e4:	000ddf5a 	.word	0x000ddf5a
   d54e8:	000d46a1 	.word	0x000d46a1
   d54ec:	000ddf62 	.word	0x000ddf62
   d54f0:	000d4aed 	.word	0x000d4aed
   d54f4:	000ddf6f 	.word	0x000ddf6f
   d54f8:	000d45c5 	.word	0x000d45c5
   d54fc:	000ddf7a 	.word	0x000ddf7a
   d5500:	000d6079 	.word	0x000d6079
   d5504:	000ddf87 	.word	0x000ddf87
   d5508:	000d61e1 	.word	0x000d61e1
   d550c:	000ddf94 	.word	0x000ddf94
   d5510:	000d4c81 	.word	0x000d4c81
   d5514:	000ddfa2 	.word	0x000ddfa2
   d5518:	000d4cb9 	.word	0x000d4cb9
   d551c:	000ddfaf 	.word	0x000ddfaf
   d5520:	000d4771 	.word	0x000d4771
   d5524:	000ddfb9 	.word	0x000ddfb9
   d5528:	000d4801 	.word	0x000d4801
   d552c:	000ddfcb 	.word	0x000ddfcb
   d5530:	2003e498 	.word	0x2003e498
   d5534:	000de1d0 	.word	0x000de1d0
   d5538:	2003e418 	.word	0x2003e418
   d553c:	000d40d5 	.word	0x000d40d5
   d5540:	000ddfdc 	.word	0x000ddfdc
   d5544:	000ddd2a 	.word	0x000ddd2a
   d5548:	000ddd33 	.word	0x000ddd33
   d554c:	000ddd20 	.word	0x000ddd20
   d5550:	2003e568 	.word	0x2003e568
   d5554:	2003e4e9 	.word	0x2003e4e9
   d5558:	2003e52c 	.word	0x2003e52c
   d555c:	00015f90 	.word	0x00015f90
   d5560:	2003e530 	.word	0x2003e530
   d5564:	2003e46c 	.word	0x2003e46c
  (sysStatus.lowPowerMode) ? strncpy(lowPowerModeStr,"Low Power",sizeof(lowPowerModeStr)) : strncpy(lowPowerModeStr,"Not Low Power",sizeof(lowPowerModeStr));
   d5568:	4905      	ldr	r1, [pc, #20]	; (d5580 <setup+0x460>)
   d556a:	e703      	b.n	d5374 <setup+0x254>
        HAL_Core_Get_Last_Reset_Info(&reason, nullptr, nullptr);
   d556c:	4611      	mov	r1, r2
   d556e:	a803      	add	r0, sp, #12
        int reason = RESET_REASON_NONE;
   d5570:	9203      	str	r2, [sp, #12]
        HAL_Core_Get_Last_Reset_Info(&reason, nullptr, nullptr);
   d5572:	f002 f94f 	bl	d7814 <HAL_Core_Get_Last_Reset_Info>
        return reason;
   d5576:	9b03      	ldr	r3, [sp, #12]
  if (System.resetReason() == RESET_REASON_PIN_RESET || System.resetReason() == RESET_REASON_USER) { // Check to see if we are starting from a pin reset or a reset in the sketch
   d5578:	2b8c      	cmp	r3, #140	; 0x8c
   d557a:	f47f af10 	bne.w	d539e <setup+0x27e>
   d557e:	e708      	b.n	d5392 <setup+0x272>
   d5580:	000ddd1c 	.word	0x000ddd1c

000d5584 <_ZN5spark6VectorINS_17LogCategoryFilterENS_16DefaultAllocatorEE4moveIS1_Li0EEEvPS1_S5_S5_>:
        if (dest > p && dest < end) {
   d5584:	4288      	cmp	r0, r1
    static void move(T* dest, T* p, T* end) {
   d5586:	b5f8      	push	{r3, r4, r5, r6, r7, lr}
   d5588:	4604      	mov	r4, r0
   d558a:	460d      	mov	r5, r1
   d558c:	4616      	mov	r6, r2
        if (dest > p && dest < end) {
   d558e:	d916      	bls.n	d55be <_ZN5spark6VectorINS_17LogCategoryFilterENS_16DefaultAllocatorEE4moveIS1_Li0EEEvPS1_S5_S5_+0x3a>
   d5590:	4290      	cmp	r0, r2
   d5592:	d215      	bcs.n	d55c0 <_ZN5spark6VectorINS_17LogCategoryFilterENS_16DefaultAllocatorEE4moveIS1_Li0EEEvPS1_S5_S5_+0x3c>
            --end;
   d5594:	f1a2 0614 	sub.w	r6, r2, #20
            dest += end - p - 1;
   d5598:	1a75      	subs	r5, r6, r1
   d559a:	f1a1 0714 	sub.w	r7, r1, #20
   d559e:	442c      	add	r4, r5
            for (; end != p; --end, --dest) {
   d55a0:	42b7      	cmp	r7, r6
   d55a2:	d01c      	beq.n	d55de <_ZN5spark6VectorINS_17LogCategoryFilterENS_16DefaultAllocatorEE4moveIS1_Li0EEEvPS1_S5_S5_+0x5a>
                new(dest) T(std::move(*end));
   d55a4:	b12c      	cbz	r4, d55b2 <_ZN5spark6VectorINS_17LogCategoryFilterENS_16DefaultAllocatorEE4moveIS1_Li0EEEvPS1_S5_S5_+0x2e>
   d55a6:	4631      	mov	r1, r6
   d55a8:	4620      	mov	r0, r4
   d55aa:	f004 ff5b 	bl	da464 <_ZN6StringC1EOS_>
   d55ae:	7c33      	ldrb	r3, [r6, #16]
   d55b0:	7423      	strb	r3, [r4, #16]
   d55b2:	4630      	mov	r0, r6
   d55b4:	f004 feda 	bl	da36c <_ZN6StringD1Ev>
            for (; end != p; --end, --dest) {
   d55b8:	3e14      	subs	r6, #20
   d55ba:	3c14      	subs	r4, #20
   d55bc:	e7f0      	b.n	d55a0 <_ZN5spark6VectorINS_17LogCategoryFilterENS_16DefaultAllocatorEE4moveIS1_Li0EEEvPS1_S5_S5_+0x1c>
        } else if (dest != p) {
   d55be:	d00e      	beq.n	d55de <_ZN5spark6VectorINS_17LogCategoryFilterENS_16DefaultAllocatorEE4moveIS1_Li0EEEvPS1_S5_S5_+0x5a>
            for (; p != end; ++p, ++dest) {
   d55c0:	42b5      	cmp	r5, r6
   d55c2:	d00c      	beq.n	d55de <_ZN5spark6VectorINS_17LogCategoryFilterENS_16DefaultAllocatorEE4moveIS1_Li0EEEvPS1_S5_S5_+0x5a>
                new(dest) T(std::move(*p));
   d55c4:	b12c      	cbz	r4, d55d2 <_ZN5spark6VectorINS_17LogCategoryFilterENS_16DefaultAllocatorEE4moveIS1_Li0EEEvPS1_S5_S5_+0x4e>
   d55c6:	4629      	mov	r1, r5
   d55c8:	4620      	mov	r0, r4
   d55ca:	f004 ff4b 	bl	da464 <_ZN6StringC1EOS_>
   d55ce:	7c2b      	ldrb	r3, [r5, #16]
   d55d0:	7423      	strb	r3, [r4, #16]
   d55d2:	4628      	mov	r0, r5
   d55d4:	f004 feca 	bl	da36c <_ZN6StringD1Ev>
            for (; p != end; ++p, ++dest) {
   d55d8:	3514      	adds	r5, #20
   d55da:	3414      	adds	r4, #20
   d55dc:	e7f0      	b.n	d55c0 <_ZN5spark6VectorINS_17LogCategoryFilterENS_16DefaultAllocatorEE4moveIS1_Li0EEEvPS1_S5_S5_+0x3c>
    }
   d55de:	bdf8      	pop	{r3, r4, r5, r6, r7, pc}

000d55e0 <_ZN5spark6VectorINS_17LogCategoryFilterENS_16DefaultAllocatorEEC1ERKS3_>:
inline spark::Vector<T, AllocatorT>::Vector(const Vector<T, AllocatorT>& vector) : Vector() {
   d55e0:	e92d 41f0 	stmdb	sp!, {r4, r5, r6, r7, r8, lr}
        capacity_(0) {
   d55e4:	2300      	movs	r3, #0
   d55e6:	e9c0 3300 	strd	r3, r3, [r0]
   d55ea:	6083      	str	r3, [r0, #8]
    if (vector.size_ > 0 && realloc(vector.size_)) {
   d55ec:	684f      	ldr	r7, [r1, #4]
   d55ee:	429f      	cmp	r7, r3
inline spark::Vector<T, AllocatorT>::Vector(const Vector<T, AllocatorT>& vector) : Vector() {
   d55f0:	4604      	mov	r4, r0
   d55f2:	460e      	mov	r6, r1
    if (vector.size_ > 0 && realloc(vector.size_)) {
   d55f4:	dd23      	ble.n	d563e <_ZN5spark6VectorINS_17LogCategoryFilterENS_16DefaultAllocatorEEC1ERKS3_+0x5e>
            d = (T*)AllocatorT::malloc(n * sizeof(T));
   d55f6:	f04f 0814 	mov.w	r8, #20
    return ::malloc(size);
   d55fa:	fb08 f007 	mul.w	r0, r8, r7
   d55fe:	f002 fc1d 	bl	d7e3c <malloc>
            if (!d) {
   d5602:	4605      	mov	r5, r0
   d5604:	b1d8      	cbz	r0, d563e <_ZN5spark6VectorINS_17LogCategoryFilterENS_16DefaultAllocatorEEC1ERKS3_+0x5e>
            move(d, data_, data_ + size_);
   d5606:	e9d4 1200 	ldrd	r1, r2, [r4]
   d560a:	fb08 1202 	mla	r2, r8, r2, r1
   d560e:	f7ff ffb9 	bl	d5584 <_ZN5spark6VectorINS_17LogCategoryFilterENS_16DefaultAllocatorEE4moveIS1_Li0EEEvPS1_S5_S5_>
    ::free(ptr);
   d5612:	6820      	ldr	r0, [r4, #0]
   d5614:	f002 fc1a 	bl	d7e4c <free>
        data_ = d;
   d5618:	6025      	str	r5, [r4, #0]
        capacity_ = n;
   d561a:	60a7      	str	r7, [r4, #8]
        copy(data_, vector.data_, vector.data_ + vector.size_);
   d561c:	e9d6 7300 	ldrd	r7, r3, [r6]
   d5620:	fb08 7803 	mla	r8, r8, r3, r7
        for (; it != end; ++it, ++dest) {
   d5624:	45b8      	cmp	r8, r7
   d5626:	d008      	beq.n	d563a <_ZN5spark6VectorINS_17LogCategoryFilterENS_16DefaultAllocatorEEC1ERKS3_+0x5a>
   d5628:	4639      	mov	r1, r7
   d562a:	4628      	mov	r0, r5
   d562c:	f004 ff34 	bl	da498 <_ZN6StringC1ERKS_>
   d5630:	7c3b      	ldrb	r3, [r7, #16]
   d5632:	742b      	strb	r3, [r5, #16]
   d5634:	3714      	adds	r7, #20
   d5636:	3514      	adds	r5, #20
   d5638:	e7f4      	b.n	d5624 <_ZN5spark6VectorINS_17LogCategoryFilterENS_16DefaultAllocatorEEC1ERKS3_+0x44>
        size_ = vector.size_;
   d563a:	6873      	ldr	r3, [r6, #4]
   d563c:	6063      	str	r3, [r4, #4]
}
   d563e:	4620      	mov	r0, r4
   d5640:	e8bd 81f0 	ldmia.w	sp!, {r4, r5, r6, r7, r8, pc}

000d5644 <_GLOBAL__sub_I___appProductID>:
   d5644:	e92d 4ff0 	stmdb	sp!, {r4, r5, r6, r7, r8, r9, sl, fp, lr}
        val_(val) {
   d5648:	4b76      	ldr	r3, [pc, #472]	; (d5824 <_GLOBAL__sub_I___appProductID+0x1e0>)
              error_(SYSTEM_ERROR_NONE) {
   d564a:	4d77      	ldr	r5, [pc, #476]	; (d5828 <_GLOBAL__sub_I___appProductID+0x1e4>)
SYSTEM_MODE(SEMI_AUTOMATIC);                        // This will enable user code to start executing automatically.
   d564c:	4e77      	ldr	r6, [pc, #476]	; (d582c <_GLOBAL__sub_I___appProductID+0x1e8>)
   d564e:	f04f 0901 	mov.w	r9, #1
   d5652:	f883 9000 	strb.w	r9, [r3]
   d5656:	4b76      	ldr	r3, [pc, #472]	; (d5830 <_GLOBAL__sub_I___appProductID+0x1ec>)
   d5658:	2208      	movs	r2, #8
   d565a:	b091      	sub	sp, #68	; 0x44
   d565c:	701a      	strb	r2, [r3, #0]
#include "spark_protocol_functions.h"


struct __ApplicationProductID {
    __ApplicationProductID(product_id_t id) {
        spark_protocol_set_product_id(spark_protocol_instance(), id);
   d565e:	f005 fc0d 	bl	dae7c <spark_protocol_instance>
   d5662:	2300      	movs	r3, #0
   d5664:	461a      	mov	r2, r3
   d5666:	210d      	movs	r1, #13
   d5668:	f005 fc10 	bl	dae8c <spark_protocol_set_product_id>
    }
};

struct __ApplicationProductVersion {
    __ApplicationProductVersion(product_firmware_version_t version) {
        spark_protocol_set_product_firmware_version(spark_protocol_instance(), version);
   d566c:	f005 fc06 	bl	dae7c <spark_protocol_instance>
   d5670:	2300      	movs	r3, #0
   d5672:	461a      	mov	r2, r3
   d5674:	2104      	movs	r1, #4
   d5676:	f005 fc11 	bl	dae9c <spark_protocol_set_product_firmware_version>
struct currentStatus_structure {                    // currently 10 bytes long
   d567a:	4b6e      	ldr	r3, [pc, #440]	; (d5834 <_GLOBAL__sub_I___appProductID+0x1f0>)
   d567c:	2400      	movs	r4, #0
   d567e:	2264      	movs	r2, #100	; 0x64
   d5680:	831c      	strh	r4, [r3, #24]
   d5682:	61da      	str	r2, [r3, #28]
    SleepResult() {}
   d5684:	4b6c      	ldr	r3, [pc, #432]	; (d5838 <_GLOBAL__sub_I___appProductID+0x1f4>)
   d5686:	60ab      	str	r3, [r5, #8]
              error_(SYSTEM_ERROR_NONE) {
   d5688:	602c      	str	r4, [r5, #0]
   d568a:	80ac      	strh	r4, [r5, #4]
    SleepResult() {}
   d568c:	71ac      	strb	r4, [r5, #6]
        set_system_mode(mode);
   d568e:	2002      	movs	r0, #2
   d5690:	f002 fa92 	bl	d7bb8 <set_system_mode>
SYSTEM_MODE(SEMI_AUTOMATIC);                        // This will enable user code to start executing automatically.
   d5694:	4632      	mov	r2, r6
   d5696:	4969      	ldr	r1, [pc, #420]	; (d583c <_GLOBAL__sub_I___appProductID+0x1f8>)
   d5698:	4628      	mov	r0, r5
   d569a:	f005 fd19 	bl	db0d0 <__aeabi_atexit>
SYSTEM_THREAD(ENABLED);                             // Means my code will not be held up by Particle processes.
   d569e:	4621      	mov	r1, r4
   d56a0:	4648      	mov	r0, r9
   d56a2:	f002 faa1 	bl	d7be8 <system_thread_set_state>
        return HAL_Feature_Set(feature, true);
   d56a6:	4649      	mov	r1, r9
   d56a8:	2004      	movs	r0, #4
   d56aa:	f002 f8ab 	bl	d7804 <HAL_Feature_Set>
        : config_(config) {
   d56ae:	4864      	ldr	r0, [pc, #400]	; (d5840 <_GLOBAL__sub_I___appProductID+0x1fc>)
SystemSleepConfiguration config;                    // Initialize new Sleep 2.0 Api
   d56b0:	4964      	ldr	r1, [pc, #400]	; (d5844 <_GLOBAL__sub_I___appProductID+0x200>)
              valid_(true) {
   d56b2:	f8a0 4009 	strh.w	r4, [r0, #9]
        : config_(config) {
   d56b6:	4603      	mov	r3, r0
   d56b8:	1d02      	adds	r2, r0, #4
   d56ba:	f843 2b09 	str.w	r2, [r3], #9
              valid_(true) {
   d56be:	709c      	strb	r4, [r3, #2]
        config_.size = sizeof(hal_sleep_config_t);
   d56c0:	4b61      	ldr	r3, [pc, #388]	; (d5848 <_GLOBAL__sub_I___appProductID+0x204>)
   d56c2:	6043      	str	r3, [r0, #4]
   d56c4:	4632      	mov	r2, r6
        config_.wakeup_sources = nullptr;
   d56c6:	e9c0 4403 	strd	r4, r4, [r0, #12]
              valid_(true) {
   d56ca:	f880 9014 	strb.w	r9, [r0, #20]
        config_.mode = HAL_SLEEP_MODE_NONE;
   d56ce:	7204      	strb	r4, [r0, #8]
   d56d0:	f005 fcfe 	bl	db0d0 <__aeabi_atexit>
MB85RC64 fram(Wire, 0);                             // Rickkas' FRAM library
   d56d4:	f005 fcac 	bl	db030 <_Z19__fetch_global_Wirev>
	 *
	 * @param addr The address 0-7 based on the setting of A0, A1 and A2.
	 *
	 * You typically create one of these objects as a global variable.
	 */
	MB85RC64(TwoWire &wire, int addr = 0) : MB85RC(wire, 8192, addr) {};
   d56d8:	4d5c      	ldr	r5, [pc, #368]	; (d584c <_GLOBAL__sub_I___appProductID+0x208>)
   d56da:	4601      	mov	r1, r0
   d56dc:	4623      	mov	r3, r4
   d56de:	f44f 5200 	mov.w	r2, #8192	; 0x2000
   d56e2:	4628      	mov	r0, r5
   d56e4:	f001 fb80 	bl	d6de8 <_ZN6MB85RCC1ER7TwoWireji>
   d56e8:	4b59      	ldr	r3, [pc, #356]	; (d5850 <_GLOBAL__sub_I___appProductID+0x20c>)
   d56ea:	602b      	str	r3, [r5, #0]
   d56ec:	4628      	mov	r0, r5
	PublishQueueAsync(uint8_t *retainedBuffer, uint16_t retainedBufferSize) : PublishQueueAsyncRetained(retainedBuffer, retainedBufferSize) {};
   d56ee:	4d59      	ldr	r5, [pc, #356]	; (d5854 <_GLOBAL__sub_I___appProductID+0x210>)
   d56f0:	4959      	ldr	r1, [pc, #356]	; (d5858 <_GLOBAL__sub_I___appProductID+0x214>)
   d56f2:	4632      	mov	r2, r6
   d56f4:	f005 fcec 	bl	db0d0 <__aeabi_atexit>
   d56f8:	4958      	ldr	r1, [pc, #352]	; (d585c <_GLOBAL__sub_I___appProductID+0x218>)
   d56fa:	f44f 6200 	mov.w	r2, #2048	; 0x800
   d56fe:	4628      	mov	r0, r5
   d5700:	f001 fe56 	bl	d73b0 <_ZN25PublishQueueAsyncRetainedC1EPht>
   d5704:	4b56      	ldr	r3, [pc, #344]	; (d5860 <_GLOBAL__sub_I___appProductID+0x21c>)
   d5706:	602b      	str	r3, [r5, #0]
PublishQueueAsync publishQueue(publishQueueRetainedBuffer, sizeof(publishQueueRetainedBuffer));
   d5708:	4632      	mov	r2, r6
   d570a:	4956      	ldr	r1, [pc, #344]	; (d5864 <_GLOBAL__sub_I___appProductID+0x220>)
   d570c:	4628      	mov	r0, r5
   d570e:	f005 fcdf 	bl	db0d0 <__aeabi_atexit>
AB1805 ab1805(Wire);                                // Rickkas' RTC / Watchdog library
   d5712:	f005 fc8d 	bl	db030 <_Z19__fetch_global_Wirev>
   d5716:	4d54      	ldr	r5, [pc, #336]	; (d5868 <_GLOBAL__sub_I___appProductID+0x224>)
   d5718:	4601      	mov	r1, r0
   d571a:	2269      	movs	r2, #105	; 0x69
   d571c:	4628      	mov	r0, r5
   d571e:	f000 fe09 	bl	d6334 <_ZN6AB1805C1ER7TwoWireh>
   d5722:	4628      	mov	r0, r5
FuelGauge fuel;                                     // Enable the fuel gauge API                        
   d5724:	4d51      	ldr	r5, [pc, #324]	; (d586c <_GLOBAL__sub_I___appProductID+0x228>)
AB1805 ab1805(Wire);                                // Rickkas' RTC / Watchdog library
   d5726:	4952      	ldr	r1, [pc, #328]	; (d5870 <_GLOBAL__sub_I___appProductID+0x22c>)
   d5728:	4632      	mov	r2, r6
   d572a:	f005 fcd1 	bl	db0d0 <__aeabi_atexit>
FuelGauge fuel;                                     // Enable the fuel gauge API                        
   d572e:	4621      	mov	r1, r4
   d5730:	4628      	mov	r0, r5
   d5732:	f003 f8a5 	bl	d8880 <_ZN9FuelGaugeC1Eb>
   d5736:	4632      	mov	r2, r6
   d5738:	494e      	ldr	r1, [pc, #312]	; (d5874 <_GLOBAL__sub_I___appProductID+0x230>)
   d573a:	4628      	mov	r0, r5
   d573c:	f005 fcc8 	bl	db0d0 <__aeabi_atexit>
        capacity_(0) {
   d5740:	e9cd 4403 	strd	r4, r4, [sp, #12]
   d5744:	9405      	str	r4, [sp, #20]
            StreamLogHandler(Serial, level, filters) {
   d5746:	f005 fadd 	bl	dad04 <_Z16_fetch_usbserialv>
        filter_(level, filters) {
   d574a:	4d4b      	ldr	r5, [pc, #300]	; (d5878 <_GLOBAL__sub_I___appProductID+0x234>)
        stream_(&stream) {
   d574c:	f10d 0824 	add.w	r8, sp, #36	; 0x24
   d5750:	4682      	mov	sl, r0
   d5752:	a903      	add	r1, sp, #12
   d5754:	a806      	add	r0, sp, #24
   d5756:	f7ff ff43 	bl	d55e0 <_ZN5spark6VectorINS_17LogCategoryFilterENS_16DefaultAllocatorEEC1ERKS3_>
        filter_(level, filters) {
   d575a:	46ab      	mov	fp, r5
        stream_(&stream) {
   d575c:	a906      	add	r1, sp, #24
   d575e:	4640      	mov	r0, r8
   d5760:	f7ff ff3e 	bl	d55e0 <_ZN5spark6VectorINS_17LogCategoryFilterENS_16DefaultAllocatorEEC1ERKS3_>
        filter_(level, filters) {
   d5764:	4b45      	ldr	r3, [pc, #276]	; (d587c <_GLOBAL__sub_I___appProductID+0x238>)
   d5766:	f84b 3b04 	str.w	r3, [fp], #4
   d576a:	af0c      	add	r7, sp, #48	; 0x30
   d576c:	4641      	mov	r1, r8
   d576e:	4638      	mov	r0, r7
   d5770:	f7ff ff36 	bl	d55e0 <_ZN5spark6VectorINS_17LogCategoryFilterENS_16DefaultAllocatorEEC1ERKS3_>
   d5774:	463a      	mov	r2, r7
   d5776:	4649      	mov	r1, r9
   d5778:	4658      	mov	r0, fp
   d577a:	f004 f8d7 	bl	d992c <_ZN5spark6detail9LogFilterC1E8LogLevelNS_6VectorINS_17LogCategoryFilterENS_16DefaultAllocatorEEE>
   d577e:	4638      	mov	r0, r7
   d5780:	f7ff fc60 	bl	d5044 <_ZN5spark6VectorINS_17LogCategoryFilterENS_16DefaultAllocatorEED1Ev>
        stream_(&stream) {
   d5784:	4640      	mov	r0, r8
   d5786:	f7ff fc5d 	bl	d5044 <_ZN5spark6VectorINS_17LogCategoryFilterENS_16DefaultAllocatorEED1Ev>
   d578a:	4b3d      	ldr	r3, [pc, #244]	; (d5880 <_GLOBAL__sub_I___appProductID+0x23c>)
   d578c:	602b      	str	r3, [r5, #0]
   d578e:	f8c5 a020 	str.w	sl, [r5, #32]
   d5792:	a806      	add	r0, sp, #24
   d5794:	f7ff fc56 	bl	d5044 <_ZN5spark6VectorINS_17LogCategoryFilterENS_16DefaultAllocatorEED1Ev>
   d5798:	4b3a      	ldr	r3, [pc, #232]	; (d5884 <_GLOBAL__sub_I___appProductID+0x240>)
   d579a:	602b      	str	r3, [r5, #0]
        Serial.begin();
   d579c:	f005 fab2 	bl	dad04 <_Z16_fetch_usbserialv>
   d57a0:	f44f 5116 	mov.w	r1, #9600	; 0x2580
   d57a4:	f005 fa9e 	bl	dace4 <_ZN9USBSerial5beginEl>
        LogManager::instance()->addHandler(this);
   d57a8:	f003 fd68 	bl	d927c <_ZN5spark10LogManager8instanceEv>
   d57ac:	4629      	mov	r1, r5
   d57ae:	f004 f84f 	bl	d9850 <_ZN5spark10LogManager10addHandlerEPNS_10LogHandlerE>
SerialLogHandler logHandler(LOG_LEVEL_ALL);
   d57b2:	a803      	add	r0, sp, #12
   d57b4:	f7ff fc46 	bl	d5044 <_ZN5spark6VectorINS_17LogCategoryFilterENS_16DefaultAllocatorEED1Ev>
   d57b8:	4632      	mov	r2, r6
   d57ba:	4933      	ldr	r1, [pc, #204]	; (d5888 <_GLOBAL__sub_I___appProductID+0x244>)
   d57bc:	4628      	mov	r0, r5
   d57be:	f005 fc87 	bl	db0d0 <__aeabi_atexit>
	{ ::new (__functor._M_access()) _Functor(std::move(__f)); }
   d57c2:	4b32      	ldr	r3, [pc, #200]	; (d588c <_GLOBAL__sub_I___appProductID+0x248>)
   d57c4:	930c      	str	r3, [sp, #48]	; 0x30
    Timer(unsigned period, timer_callback_fn callback_, bool one_shot=false) : running(false), handle(nullptr), callback(std::move(callback_)) {
   d57c6:	4d32      	ldr	r5, [pc, #200]	; (d5890 <_GLOBAL__sub_I___appProductID+0x24c>)
   d57c8:	4b32      	ldr	r3, [pc, #200]	; (d5894 <_GLOBAL__sub_I___appProductID+0x250>)
   d57ca:	602b      	str	r3, [r5, #0]
#endif
    {
      // concept requirements
      __glibcxx_function_requires(_SGIAssignableConcept<_Tp>)

      _Tp __tmp = _GLIBCXX_MOVE(__a);
   d57cc:	e897 0003 	ldmia.w	r7, {r0, r1}
      __a = _GLIBCXX_MOVE(__b);
   d57d0:	f105 030c 	add.w	r3, r5, #12
      _Tp __tmp = _GLIBCXX_MOVE(__a);
   d57d4:	e888 0003 	stmia.w	r8, {r0, r1}
      __a = _GLIBCXX_MOVE(__b);
   d57d8:	e893 0003 	ldmia.w	r3, {r0, r1}
   d57dc:	e887 0003 	stmia.w	r7, {r0, r1}
      __b = _GLIBCXX_MOVE(__tmp);
   d57e0:	e898 0003 	ldmia.w	r8, {r0, r1}
   d57e4:	e883 0003 	stmia.w	r3, {r0, r1}
   d57e8:	4b2b      	ldr	r3, [pc, #172]	; (d5898 <_GLOBAL__sub_I___appProductID+0x254>)
   d57ea:	616b      	str	r3, [r5, #20]
      __a = _GLIBCXX_MOVE(__b);
   d57ec:	69ab      	ldr	r3, [r5, #24]
   d57ee:	930f      	str	r3, [sp, #60]	; 0x3c
      __b = _GLIBCXX_MOVE(__tmp);
   d57f0:	4b2a      	ldr	r3, [pc, #168]	; (d589c <_GLOBAL__sub_I___appProductID+0x258>)
   d57f2:	61ab      	str	r3, [r5, #24]
        os_timer_create(&handle, period, invoke_timer, this, one_shot, nullptr);
   d57f4:	4a2a      	ldr	r2, [pc, #168]	; (d58a0 <_GLOBAL__sub_I___appProductID+0x25c>)
   d57f6:	492b      	ldr	r1, [pc, #172]	; (d58a4 <_GLOBAL__sub_I___appProductID+0x260>)
    Timer(unsigned period, timer_callback_fn callback_, bool one_shot=false) : running(false), handle(nullptr), callback(std::move(callback_)) {
   d57f8:	712c      	strb	r4, [r5, #4]
        os_timer_create(&handle, period, invoke_timer, this, one_shot, nullptr);
   d57fa:	462b      	mov	r3, r5
    Timer(unsigned period, timer_callback_fn callback_, bool one_shot=false) : running(false), handle(nullptr), callback(std::move(callback_)) {
   d57fc:	60ac      	str	r4, [r5, #8]
        os_timer_create(&handle, period, invoke_timer, this, one_shot, nullptr);
   d57fe:	f105 0008 	add.w	r0, r5, #8
   d5802:	e9cd 9400 	strd	r9, r4, [sp]
      __a = _GLIBCXX_MOVE(__b);
   d5806:	940e      	str	r4, [sp, #56]	; 0x38
   d5808:	f001 ff94 	bl	d7734 <os_timer_create>
    class function<_Res(_ArgTypes...)>
   d580c:	4638      	mov	r0, r7
   d580e:	f7fe fd79 	bl	d4304 <_ZNSt14_Function_baseD1Ev>
Timer awakeTimer(1800000, awakeTimerISR, true);           // 30 minute timer, calles the awakeTimerISR and is one-shot
   d5812:	4925      	ldr	r1, [pc, #148]	; (d58a8 <_GLOBAL__sub_I___appProductID+0x264>)
   d5814:	4632      	mov	r2, r6
   d5816:	4628      	mov	r0, r5
   d5818:	f005 fc5a 	bl	db0d0 <__aeabi_atexit>
   d581c:	b011      	add	sp, #68	; 0x44
   d581e:	e8bd 8ff0 	ldmia.w	sp!, {r4, r5, r6, r7, r8, r9, sl, fp, pc}
   d5822:	bf00      	nop
   d5824:	2003e410 	.word	0x2003e410
   d5828:	2003e404 	.word	0x2003e404
   d582c:	2003e3c0 	.word	0x2003e3c0
   d5830:	2003e411 	.word	0x2003e411
   d5834:	2003e46c 	.word	0x2003e46c
   d5838:	ffff0000 	.word	0xffff0000
   d583c:	000d424b 	.word	0x000d424b
   d5840:	2003e454 	.word	0x2003e454
   d5844:	000d4131 	.word	0x000d4131
   d5848:	00030010 	.word	0x00030010
   d584c:	2003e498 	.word	0x2003e498
   d5850:	000de16c 	.word	0x000de16c
   d5854:	2003e4ec 	.word	0x2003e4ec
   d5858:	000d4199 	.word	0x000d4199
   d585c:	2003f400 	.word	0x2003f400
   d5860:	000de188 	.word	0x000de188
   d5864:	000d4171 	.word	0x000d4171
   d5868:	2003e418 	.word	0x2003e418
   d586c:	2003e4a8 	.word	0x2003e4a8
   d5870:	000d62f5 	.word	0x000d62f5
   d5874:	000d88a1 	.word	0x000d88a1
   d5878:	2003e4b4 	.word	0x2003e4b4
   d587c:	000de13c 	.word	0x000de13c
   d5880:	000de888 	.word	0x000de888
   d5884:	000de154 	.word	0x000de154
   d5888:	000d42b1 	.word	0x000d42b1
   d588c:	000d40e1 	.word	0x000d40e1
   d5890:	2003e438 	.word	0x2003e438
   d5894:	000de128 	.word	0x000de128
   d5898:	000d40f9 	.word	0x000d40f9
   d589c:	000d40f5 	.word	0x000d40f5
   d58a0:	000d41c1 	.word	0x000d41c1
   d58a4:	001b7740 	.word	0x001b7740
   d58a8:	000d4319 	.word	0x000d4319

000d58ac <_Z14fullModemResetv>:
void fullModemReset() {                                             // USed if we want to reset the modem's state
   d58ac:	e92d 4ff0 	stmdb	sp!, {r4, r5, r6, r7, r8, r9, sl, fp, lr}
   d58b0:	b085      	sub	sp, #20
        clearSession_(clearSession) {
   d58b2:	f04f 0a00 	mov.w	sl, #0
	Particle.disconnect(); 	                                          // Disconnect from the cloud    
   d58b6:	a801      	add	r0, sp, #4
   d58b8:	e9cd aa01 	strd	sl, sl, [sp, #4]
   d58bc:	f8ad a00c 	strh.w	sl, [sp, #12]
   d58c0:	f002 fcf5 	bl	d82ae <_ZN10CloudClass10disconnectERK22CloudDisconnectOptions>
        const system_tick_t start = millis();
   d58c4:	f7fe fdc4 	bl	d4450 <_ZN11SystemClass6millisEv>
        while (_while() && !_condition()) {
   d58c8:	f643 2897 	movw	r8, #14999	; 0x3a97
        const system_tick_t start = millis();
   d58cc:	4683      	mov	fp, r0
        while (_while() && !_condition()) {
   d58ce:	f04f 0900 	mov.w	r9, #0
        return waitConditionWhile(_condition, [=]{ return (millis()-start)<timeout; });
   d58d2:	f7fe fdbd 	bl	d4450 <_ZN11SystemClass6millisEv>
   d58d6:	ebb0 060b 	subs.w	r6, r0, fp
   d58da:	eb61 070a 	sbc.w	r7, r1, sl
        while (_while() && !_condition()) {
   d58de:	45b9      	cmp	r9, r7
   d58e0:	bf08      	it	eq
   d58e2:	45b0      	cmpeq	r8, r6
   d58e4:	d305      	bcc.n	d58f2 <_Z14fullModemResetv+0x46>
    static bool connected(void) { return spark_cloud_flag_connected(); }
   d58e6:	f002 f9f9 	bl	d7cdc <spark_cloud_flag_connected>
   d58ea:	b910      	cbnz	r0, d58f2 <_Z14fullModemResetv+0x46>
            spark_process();
   d58ec:	f002 f9e6 	bl	d7cbc <spark_process>
        while (_while() && !_condition()) {
   d58f0:	e7ef      	b.n	d58d2 <_Z14fullModemResetv+0x26>
   d58f2:	f002 f9f3 	bl	d7cdc <spark_cloud_flag_connected>
  Cellular.off();                                                   // Turn off the Cellular modem
   d58f6:	4821      	ldr	r0, [pc, #132]	; (d597c <_Z14fullModemResetv+0xd0>)
  waitFor(Cellular.isOff, 30000);                                   // New feature with deviceOS@2.1.0
   d58f8:	f8df a080 	ldr.w	sl, [pc, #128]	; d597c <_Z14fullModemResetv+0xd0>
  Cellular.off();                                                   // Turn off the Cellular modem
   d58fc:	f7fe fcfc 	bl	d42f8 <_ZN5spark13CellularClass3offEv>
        const system_tick_t start = millis();
   d5900:	f7fe fda6 	bl	d4450 <_ZN11SystemClass6millisEv>
        return waitConditionWhile(_condition, [=]{ return (millis()-start)<timeout; });
   d5904:	f04f 0900 	mov.w	r9, #0
        const system_tick_t start = millis();
   d5908:	4680      	mov	r8, r0
        while (_while() && !_condition()) {
   d590a:	f247 562f 	movw	r6, #29999	; 0x752f
   d590e:	2700      	movs	r7, #0
        return waitConditionWhile(_condition, [=]{ return (millis()-start)<timeout; });
   d5910:	f7fe fd9e 	bl	d4450 <_ZN11SystemClass6millisEv>
   d5914:	ebb0 0408 	subs.w	r4, r0, r8
   d5918:	eb61 0509 	sbc.w	r5, r1, r9
        while (_while() && !_condition()) {
   d591c:	42af      	cmp	r7, r5
   d591e:	bf08      	it	eq
   d5920:	42a6      	cmpeq	r6, r4
   d5922:	d306      	bcc.n	d5932 <_Z14fullModemResetv+0x86>
  waitFor(Cellular.isOff, 30000);                                   // New feature with deviceOS@2.1.0
   d5924:	4650      	mov	r0, sl
   d5926:	f004 fb41 	bl	d9fac <_ZN5spark12NetworkClass5isOffEv>
   d592a:	b910      	cbnz	r0, d5932 <_Z14fullModemResetv+0x86>
            spark_process();
   d592c:	f002 f9c6 	bl	d7cbc <spark_process>
        while (_while() && !_condition()) {
   d5930:	e7ee      	b.n	d5910 <_Z14fullModemResetv+0x64>
   d5932:	4812      	ldr	r0, [pc, #72]	; (d597c <_Z14fullModemResetv+0xd0>)
   d5934:	f004 fb3a 	bl	d9fac <_ZN5spark12NetworkClass5isOffEv>
     * @brief Stops the watchdog timer. Useful before entering sleep mode.
     * 
     * This is done automatically right before reset (using the reset system event)
     * so the watchdog won't trigger during a firmware update. 
     */
    bool stopWDT() { return setWDT(0); };
   d5938:	4811      	ldr	r0, [pc, #68]	; (d5980 <_Z14fullModemResetv+0xd4>)
   d593a:	2100      	movs	r1, #0
   d593c:	f000 fdf8 	bl	d6530 <_ZN6AB18056setWDTEi>
        if (valid_) {
   d5940:	4b10      	ldr	r3, [pc, #64]	; (d5984 <_Z14fullModemResetv+0xd8>)
   d5942:	7d1a      	ldrb	r2, [r3, #20]
   d5944:	b10a      	cbz	r2, d594a <_Z14fullModemResetv+0x9e>
            config_.mode = static_cast<hal_sleep_mode_t>(mode);
   d5946:	2202      	movs	r2, #2
   d5948:	721a      	strb	r2, [r3, #8]
    .gpio(userSwitch,CHANGE)
   d594a:	2200      	movs	r2, #0
   d594c:	2104      	movs	r1, #4
   d594e:	480d      	ldr	r0, [pc, #52]	; (d5984 <_Z14fullModemResetv+0xd8>)
   d5950:	f7fe fd20 	bl	d4394 <_ZN8particle24SystemSleepConfiguration4gpioEt13InterruptMode>
    .duration(10 * 1000);
   d5954:	f242 7110 	movw	r1, #10000	; 0x2710
   d5958:	f7fe fd50 	bl	d43fc <_ZN8particle24SystemSleepConfiguration8durationEm>
  System.sleep(config);                                             // Put the device to sleep device reboots from here   
   d595c:	4909      	ldr	r1, [pc, #36]	; (d5984 <_Z14fullModemResetv+0xd8>)
   d595e:	a801      	add	r0, sp, #4
   d5960:	f004 fe42 	bl	da5e8 <_ZN11SystemClass5sleepERKN8particle24SystemSleepConfigurationE>
        freeWakeupSourceMemory();
   d5964:	a801      	add	r0, sp, #4
   d5966:	f7fe fc67 	bl	d4238 <_ZN17SystemSleepResult22freeWakeupSourceMemoryEv.isra.0>
     * sleep modes where executinon continues. You may also want to call `updateWakeReason()`.
     * 
     * It's safe to call resumeWDT() even if the WDT has never been set, it does nothing
     * in this case, leaving the watchdog off.
     */
    bool resumeWDT() { return setWDT(-1); };
   d596a:	f04f 31ff 	mov.w	r1, #4294967295	; 0xffffffff
   d596e:	4804      	ldr	r0, [pc, #16]	; (d5980 <_Z14fullModemResetv+0xd4>)
   d5970:	f000 fdde 	bl	d6530 <_ZN6AB18056setWDTEi>
}
   d5974:	b005      	add	sp, #20
   d5976:	e8bd 8ff0 	ldmia.w	sp!, {r4, r5, r6, r7, r8, r9, sl, fp, pc}
   d597a:	bf00      	nop
   d597c:	2003e59c 	.word	0x2003e59c
   d5980:	2003e418 	.word	0x2003e418
   d5984:	2003e454 	.word	0x2003e454

000d5988 <loop>:
{
   d5988:	e92d 41f0 	stmdb	sp!, {r4, r5, r6, r7, r8, lr}
  switch(state) {
   d598c:	4c9f      	ldr	r4, [pc, #636]	; (d5c0c <loop+0x284>)
   d598e:	4fa0      	ldr	r7, [pc, #640]	; (d5c10 <loop+0x288>)
   d5990:	7823      	ldrb	r3, [r4, #0]
   d5992:	4ea0      	ldr	r6, [pc, #640]	; (d5c14 <loop+0x28c>)
   d5994:	3b01      	subs	r3, #1
{
   d5996:	b096      	sub	sp, #88	; 0x58
   d5998:	2b08      	cmp	r3, #8
   d599a:	f200 80ac 	bhi.w	d5af6 <loop+0x16e>
   d599e:	e8df f013 	tbh	[pc, r3, lsl #1]
   d59a2:	028f      	.short	0x028f
   d59a4:	01e20009 	.word	0x01e20009
   d59a8:	016101f5 	.word	0x016101f5
   d59ac:	0268023d 	.word	0x0268023d
   d59b0:	003f00e3 	.word	0x003f00e3
    if (state != oldState) publishStateTransition();
   d59b4:	4b98      	ldr	r3, [pc, #608]	; (d5c18 <loop+0x290>)
   d59b6:	781b      	ldrb	r3, [r3, #0]
   d59b8:	2b02      	cmp	r3, #2
   d59ba:	d001      	beq.n	d59c0 <loop+0x38>
   d59bc:	f7ff fa0a 	bl	d4dd4 <_Z22publishStateTransitionv>
    if (sysStatus.lowPowerMode && (millis() - stayAwakeTimeStamp) > stayAwake && !current.solenoidState) state = NAPPING_STATE;         // When in low power mode, we can nap between taps
   d59c0:	4d96      	ldr	r5, [pc, #600]	; (d5c1c <loop+0x294>)
   d59c2:	79ab      	ldrb	r3, [r5, #6]
   d59c4:	b16b      	cbz	r3, d59e2 <loop+0x5a>
   d59c6:	f001 ff45 	bl	d7854 <HAL_Timer_Get_Milli_Seconds>
   d59ca:	4b95      	ldr	r3, [pc, #596]	; (d5c20 <loop+0x298>)
   d59cc:	681b      	ldr	r3, [r3, #0]
   d59ce:	1ac0      	subs	r0, r0, r3
   d59d0:	4b94      	ldr	r3, [pc, #592]	; (d5c24 <loop+0x29c>)
   d59d2:	681b      	ldr	r3, [r3, #0]
   d59d4:	4298      	cmp	r0, r3
   d59d6:	d904      	bls.n	d59e2 <loop+0x5a>
   d59d8:	4b93      	ldr	r3, [pc, #588]	; (d5c28 <loop+0x2a0>)
   d59da:	689b      	ldr	r3, [r3, #8]
   d59dc:	b90b      	cbnz	r3, d59e2 <loop+0x5a>
   d59de:	2308      	movs	r3, #8
   d59e0:	7023      	strb	r3, [r4, #0]
    if (Time.hour() != Time.hour(lastReportedTime)) state = MEASURING_STATE;                                                            // We want to report on the hour but not after bedtime
   d59e2:	f005 f865 	bl	daab0 <_ZN9TimeClass4hourEv>
   d59e6:	4b91      	ldr	r3, [pc, #580]	; (d5c2c <loop+0x2a4>)
   d59e8:	4680      	mov	r8, r0
   d59ea:	2100      	movs	r1, #0
   d59ec:	6818      	ldr	r0, [r3, #0]
   d59ee:	f004 fec1 	bl	da774 <_ZN9TimeClass4hourEx>
   d59f2:	4580      	cmp	r8, r0
   d59f4:	bf1c      	itt	ne
   d59f6:	2303      	movne	r3, #3
   d59f8:	7023      	strbne	r3, [r4, #0]
    if ((Time.hour() >= sysStatus.closeTime) || (Time.hour() < sysStatus.openTime)) state = SLEEPING_STATE;                             // The park is closed - sleep                                                                                   // Most important - turn off water when done!
   d59fa:	f005 f859 	bl	daab0 <_ZN9TimeClass4hourEv>
   d59fe:	7f6b      	ldrb	r3, [r5, #29]
   d5a00:	4298      	cmp	r0, r3
   d5a02:	db07      	blt.n	d5a14 <loop+0x8c>
   d5a04:	2309      	movs	r3, #9
   d5a06:	7023      	strb	r3, [r4, #0]
    if (particleConnectionNeeded) state = CONNECTING_STATE;
   d5a08:	4b89      	ldr	r3, [pc, #548]	; (d5c30 <loop+0x2a8>)
   d5a0a:	781b      	ldrb	r3, [r3, #0]
   d5a0c:	2b00      	cmp	r3, #0
   d5a0e:	d072      	beq.n	d5af6 <loop+0x16e>
      state = CONNECTING_STATE;                                       // Go straight to the connecting state
   d5a10:	2305      	movs	r3, #5
   d5a12:	e187      	b.n	d5d24 <loop+0x39c>
    if ((Time.hour() >= sysStatus.closeTime) || (Time.hour() < sysStatus.openTime)) state = SLEEPING_STATE;                             // The park is closed - sleep                                                                                   // Most important - turn off water when done!
   d5a14:	f005 f84c 	bl	daab0 <_ZN9TimeClass4hourEv>
   d5a18:	7f2b      	ldrb	r3, [r5, #28]
   d5a1a:	4298      	cmp	r0, r3
   d5a1c:	dbf2      	blt.n	d5a04 <loop+0x7c>
   d5a1e:	e7f3      	b.n	d5a08 <loop+0x80>
    if (state != oldState) publishStateTransition();
   d5a20:	4b7d      	ldr	r3, [pc, #500]	; (d5c18 <loop+0x290>)
   d5a22:	781b      	ldrb	r3, [r3, #0]
   d5a24:	2b09      	cmp	r3, #9
   d5a26:	d001      	beq.n	d5a2c <loop+0xa4>
   d5a28:	f7ff f9d4 	bl	d4dd4 <_Z22publishStateTransitionv>
    if (sysStatus.connectedStatus) disconnectFromParticle();          // Disconnect cleanly from Particle
   d5a2c:	4b7b      	ldr	r3, [pc, #492]	; (d5c1c <loop+0x294>)
   d5a2e:	78da      	ldrb	r2, [r3, #3]
   d5a30:	4698      	mov	r8, r3
   d5a32:	b10a      	cbz	r2, d5a38 <loop+0xb0>
   d5a34:	f7ff f978 	bl	d4d28 <_Z22disconnectFromParticlev>
    bool stopWDT() { return setWDT(0); };
   d5a38:	2100      	movs	r1, #0
   d5a3a:	487e      	ldr	r0, [pc, #504]	; (d5c34 <loop+0x2ac>)
   d5a3c:	f000 fd78 	bl	d6530 <_ZN6AB18056setWDTEi>
    int wakeInSeconds = constrain(wakeBoundary - Time.now() % wakeBoundary, 1, wakeBoundary);
   d5a40:	f005 f825 	bl	daa8e <_ZN9TimeClass3nowEv>
   d5a44:	f44f 6561 	mov.w	r5, #3600	; 0xe10
   d5a48:	fb90 f3f5 	sdiv	r3, r0, r5
   d5a4c:	fb03 0515 	mls	r5, r3, r5, r0
        if (valid_) {
   d5a50:	4b79      	ldr	r3, [pc, #484]	; (d5c38 <loop+0x2b0>)
   d5a52:	f5c5 6561 	rsb	r5, r5, #3600	; 0xe10
   d5a56:	7d1a      	ldrb	r2, [r3, #20]
   d5a58:	f5b5 6f61 	cmp.w	r5, #3600	; 0xe10
   d5a5c:	bfa8      	it	ge
   d5a5e:	f44f 6561 	movge.w	r5, #3600	; 0xe10
   d5a62:	b10a      	cbz	r2, d5a68 <loop+0xe0>
            config_.mode = static_cast<hal_sleep_mode_t>(mode);
   d5a64:	2202      	movs	r2, #2
   d5a66:	721a      	strb	r2, [r3, #8]
      .gpio(userSwitch,CHANGE)
   d5a68:	2200      	movs	r2, #0
   d5a6a:	2104      	movs	r1, #4
   d5a6c:	4872      	ldr	r0, [pc, #456]	; (d5c38 <loop+0x2b0>)
   d5a6e:	f7fe fc91 	bl	d4394 <_ZN8particle24SystemSleepConfiguration4gpioEt13InterruptMode>
      .duration(wakeInSeconds * 1000);
   d5a72:	f44f 717a 	mov.w	r1, #1000	; 0x3e8
   d5a76:	4369      	muls	r1, r5
   d5a78:	f7fe fcc0 	bl	d43fc <_ZN8particle24SystemSleepConfiguration8durationEm>
    SystemSleepResult result = System.sleep(config);                   // Put the device to sleep device reboots from here   
   d5a7c:	496e      	ldr	r1, [pc, #440]	; (d5c38 <loop+0x2b0>)
   d5a7e:	a803      	add	r0, sp, #12
   d5a80:	f004 fdb2 	bl	da5e8 <_ZN11SystemClass5sleepERKN8particle24SystemSleepConfigurationE>
    bool resumeWDT() { return setWDT(-1); };
   d5a84:	f04f 31ff 	mov.w	r1, #4294967295	; 0xffffffff
   d5a88:	486a      	ldr	r0, [pc, #424]	; (d5c34 <loop+0x2ac>)
   d5a8a:	f000 fd51 	bl	d6530 <_ZN6AB18056setWDTEi>
    fuel.wakeup();                                                     // Make sure that the fuel gauge wakes quickly 
   d5a8e:	486b      	ldr	r0, [pc, #428]	; (d5c3c <loop+0x2b4>)
   d5a90:	f002 ff90 	bl	d89b4 <_ZN9FuelGauge6wakeupEv>
    fuel.quickStart();
   d5a94:	4869      	ldr	r0, [pc, #420]	; (d5c3c <loop+0x2b4>)
   d5a96:	f002 ff84 	bl	d89a2 <_ZN9FuelGauge10quickStartEv>
        if (wakeupReason() == SystemSleepWakeupReason::BY_GPIO) {
   d5a9a:	9b03      	ldr	r3, [sp, #12]
        if (wakeupSource_) {
   d5a9c:	b19b      	cbz	r3, d5ac6 <loop+0x13e>
        if (wakeupReason() == SystemSleepWakeupReason::BY_GPIO) {
   d5a9e:	889a      	ldrh	r2, [r3, #4]
   d5aa0:	2a01      	cmp	r2, #1
   d5aa2:	d110      	bne.n	d5ac6 <loop+0x13e>
    if (result.wakeupPin() == userSwitch) {                            // If the user woke the device we need to get up
   d5aa4:	899b      	ldrh	r3, [r3, #12]
   d5aa6:	2b04      	cmp	r3, #4
   d5aa8:	d10d      	bne.n	d5ac6 <loop+0x13e>
      setLowPowerMode("0");
   d5aaa:	4965      	ldr	r1, [pc, #404]	; (d5c40 <loop+0x2b8>)
   d5aac:	a806      	add	r0, sp, #24
   d5aae:	f004 fca8 	bl	da402 <_ZN6StringC1EPKc>
   d5ab2:	a806      	add	r0, sp, #24
   d5ab4:	f7fe fdf4 	bl	d46a0 <_Z15setLowPowerMode6String>
   d5ab8:	a806      	add	r0, sp, #24
   d5aba:	f004 fc57 	bl	da36c <_ZN6StringD1Ev>
      sysStatus.openTime = 0;
   d5abe:	f44f 53c0 	mov.w	r3, #6144	; 0x1800
   d5ac2:	f8a8 301c 	strh.w	r3, [r8, #28]
    if (Time.hour() < sysStatus.closeTime && Time.hour() >= sysStatus.openTime) { // We might wake up and find it is opening time.  Park is open let's get ready for the day
   d5ac6:	f004 fff3 	bl	daab0 <_ZN9TimeClass4hourEv>
   d5aca:	f898 301d 	ldrb.w	r3, [r8, #29]
   d5ace:	4298      	cmp	r0, r3
   d5ad0:	da0c      	bge.n	d5aec <loop+0x164>
   d5ad2:	f004 ffed 	bl	daab0 <_ZN9TimeClass4hourEv>
   d5ad6:	f898 301c 	ldrb.w	r3, [r8, #28]
   d5ada:	4298      	cmp	r0, r3
   d5adc:	db06      	blt.n	d5aec <loop+0x164>
      stayAwake = stayAwakeLong;                                       // Keeps Boron awake after deep sleep - may not be needed
   d5ade:	4b51      	ldr	r3, [pc, #324]	; (d5c24 <loop+0x29c>)
   d5ae0:	4a58      	ldr	r2, [pc, #352]	; (d5c44 <loop+0x2bc>)
   d5ae2:	601a      	str	r2, [r3, #0]
   d5ae4:	f001 feb6 	bl	d7854 <HAL_Timer_Get_Milli_Seconds>
      stayAwakeTimeStamp = millis();
   d5ae8:	4b4d      	ldr	r3, [pc, #308]	; (d5c20 <loop+0x298>)
   d5aea:	6018      	str	r0, [r3, #0]
    state = IDLE_STATE;                                               // Back to the IDLE_STATE after a nap - not enabling updates here as napping is typicallly disconnected
   d5aec:	2302      	movs	r3, #2
        freeWakeupSourceMemory();
   d5aee:	a803      	add	r0, sp, #12
   d5af0:	7023      	strb	r3, [r4, #0]
   d5af2:	f7fe fba1 	bl	d4238 <_ZN17SystemSleepResult22freeWakeupSourceMemoryEv.isra.0>
  ab1805.loop();                                                      // Keeps the RTC synchronized with the Boron's clock
   d5af6:	484f      	ldr	r0, [pc, #316]	; (d5c34 <loop+0x2ac>)
   d5af8:	f001 f912 	bl	d6d20 <_ZN6AB18054loopEv>
  if (systemStatusWriteNeeded) {
   d5afc:	783b      	ldrb	r3, [r7, #0]
   d5afe:	b133      	cbz	r3, d5b0e <loop+0x186>
    fram.put(FRAM::systemStatusAddr,sysStatus);
   d5b00:	4a46      	ldr	r2, [pc, #280]	; (d5c1c <loop+0x294>)
   d5b02:	4851      	ldr	r0, [pc, #324]	; (d5c48 <loop+0x2c0>)
   d5b04:	2101      	movs	r1, #1
   d5b06:	f7ff fab0 	bl	d506a <_ZN6MB85RC3putI22systemStatus_structureEERKT_jS4_>
    systemStatusWriteNeeded = false;
   d5b0a:	2300      	movs	r3, #0
   d5b0c:	703b      	strb	r3, [r7, #0]
  if (currentCountsWriteNeeded) {
   d5b0e:	7833      	ldrb	r3, [r6, #0]
   d5b10:	b13b      	cbz	r3, d5b22 <loop+0x19a>
        writeData(framAddr, (const uint8_t *)&t, sizeof(T));
   d5b12:	2320      	movs	r3, #32
   d5b14:	4a44      	ldr	r2, [pc, #272]	; (d5c28 <loop+0x2a0>)
   d5b16:	484c      	ldr	r0, [pc, #304]	; (d5c48 <loop+0x2c0>)
   d5b18:	2150      	movs	r1, #80	; 0x50
   d5b1a:	f001 f9fc 	bl	d6f16 <_ZN6MB85RC9writeDataEjPKhj>
    currentCountsWriteNeeded = false;
   d5b1e:	2300      	movs	r3, #0
   d5b20:	7033      	strb	r3, [r6, #0]
  if (outOfMemory >= 0) {                                             // In this function we are going to reset the system if there is an out of memory error
   d5b22:	4b4a      	ldr	r3, [pc, #296]	; (d5c4c <loop+0x2c4>)
   d5b24:	681b      	ldr	r3, [r3, #0]
   d5b26:	2b00      	cmp	r3, #0
   d5b28:	db1b      	blt.n	d5b62 <loop+0x1da>
    snprintf(message, sizeof(message), "Out of memory occurred size=%d",outOfMemory);
   d5b2a:	4a49      	ldr	r2, [pc, #292]	; (d5c50 <loop+0x2c8>)
   d5b2c:	2140      	movs	r1, #64	; 0x40
   d5b2e:	a806      	add	r0, sp, #24
   d5b30:	f002 f9a4 	bl	d7e7c <snprintf>
    Log.info(message);
   d5b34:	a906      	add	r1, sp, #24
   d5b36:	4847      	ldr	r0, [pc, #284]	; (d5c54 <loop+0x2cc>)
   d5b38:	f7fe fc94 	bl	d4464 <_ZNK5spark6Logger4infoEPKcz>
    delay(100);
   d5b3c:	2064      	movs	r0, #100	; 0x64
   d5b3e:	f002 f9f1 	bl	d7f24 <delay>
}

// particle::Flags<TagT, ValueT>
template<typename TagT, typename ValueT>
inline particle::Flags<TagT, ValueT>::Flags() :
        val_(0) {
   d5b42:	2300      	movs	r3, #0
    publishQueue.publish("Memory",message,PRIVATE);                   // Publish to the console - this is important so we will not filter on verboseMod
   d5b44:	f88d 3000 	strb.w	r3, [sp]
   d5b48:	4b43      	ldr	r3, [pc, #268]	; (d5c58 <loop+0x2d0>)
   d5b4a:	4944      	ldr	r1, [pc, #272]	; (d5c5c <loop+0x2d4>)
   d5b4c:	781b      	ldrb	r3, [r3, #0]
   d5b4e:	4844      	ldr	r0, [pc, #272]	; (d5c60 <loop+0x2d8>)
   d5b50:	aa06      	add	r2, sp, #24
   d5b52:	f7fe fcb5 	bl	d44c0 <_ZN21PublishQueueAsyncBase7publishEPKcS1_N8particle5FlagsI15PublishFlagTypehEES5_>
    delay(2000);
   d5b56:	f44f 60fa 	mov.w	r0, #2000	; 0x7d0
   d5b5a:	f002 f9e3 	bl	d7f24 <delay>
    System.reset();                                                   // An out of memory condition occurred - reset device.
   d5b5e:	f004 fd3f 	bl	da5e0 <_ZN11SystemClass5resetEv>
}
   d5b62:	b016      	add	sp, #88	; 0x58
   d5b64:	e8bd 81f0 	ldmia.w	sp!, {r4, r5, r6, r7, r8, pc}
    if (state != oldState) publishStateTransition();
   d5b68:	4b2b      	ldr	r3, [pc, #172]	; (d5c18 <loop+0x290>)
   d5b6a:	781b      	ldrb	r3, [r3, #0]
   d5b6c:	2b08      	cmp	r3, #8
   d5b6e:	d001      	beq.n	d5b74 <loop+0x1ec>
   d5b70:	f7ff f930 	bl	d4dd4 <_Z22publishStateTransitionv>
    if (sysStatus.connectedStatus) disconnectFromParticle();          // If we are in connected mode we need to Disconnect from Particle
   d5b74:	4b29      	ldr	r3, [pc, #164]	; (d5c1c <loop+0x294>)
   d5b76:	78db      	ldrb	r3, [r3, #3]
   d5b78:	b10b      	cbz	r3, d5b7e <loop+0x1f6>
   d5b7a:	f7ff f8d5 	bl	d4d28 <_Z22disconnectFromParticlev>
    bool stopWDT() { return setWDT(0); };
   d5b7e:	2100      	movs	r1, #0
   d5b80:	482c      	ldr	r0, [pc, #176]	; (d5c34 <loop+0x2ac>)
   d5b82:	f000 fcd5 	bl	d6530 <_ZN6AB18056setWDTEi>
    int wakeInSeconds = constrain(wakeBoundary - Time.now() % wakeBoundary, 1, wakeBoundary);
   d5b86:	f004 ff82 	bl	daa8e <_ZN9TimeClass3nowEv>
   d5b8a:	f44f 6561 	mov.w	r5, #3600	; 0xe10
   d5b8e:	fb90 f3f5 	sdiv	r3, r0, r5
   d5b92:	fb03 0515 	mls	r5, r3, r5, r0
        if (valid_) {
   d5b96:	4b28      	ldr	r3, [pc, #160]	; (d5c38 <loop+0x2b0>)
   d5b98:	f5c5 6561 	rsb	r5, r5, #3600	; 0xe10
   d5b9c:	7d1a      	ldrb	r2, [r3, #20]
   d5b9e:	f5b5 6f61 	cmp.w	r5, #3600	; 0xe10
   d5ba2:	bfa8      	it	ge
   d5ba4:	f44f 6561 	movge.w	r5, #3600	; 0xe10
   d5ba8:	b10a      	cbz	r2, d5bae <loop+0x226>
            config_.mode = static_cast<hal_sleep_mode_t>(mode);
   d5baa:	2202      	movs	r2, #2
   d5bac:	721a      	strb	r2, [r3, #8]
      .gpio(userSwitch,CHANGE)
   d5bae:	2200      	movs	r2, #0
   d5bb0:	2104      	movs	r1, #4
   d5bb2:	4821      	ldr	r0, [pc, #132]	; (d5c38 <loop+0x2b0>)
   d5bb4:	f7fe fbee 	bl	d4394 <_ZN8particle24SystemSleepConfiguration4gpioEt13InterruptMode>
      .duration(wakeInSeconds * 1000);
   d5bb8:	f44f 717a 	mov.w	r1, #1000	; 0x3e8
   d5bbc:	4369      	muls	r1, r5
   d5bbe:	f7fe fc1d 	bl	d43fc <_ZN8particle24SystemSleepConfiguration8durationEm>
    SystemSleepResult result = System.sleep(config);                   // Put the device to sleep
   d5bc2:	491d      	ldr	r1, [pc, #116]	; (d5c38 <loop+0x2b0>)
   d5bc4:	a803      	add	r0, sp, #12
   d5bc6:	f004 fd0f 	bl	da5e8 <_ZN11SystemClass5sleepERKN8particle24SystemSleepConfigurationE>
    bool resumeWDT() { return setWDT(-1); };
   d5bca:	f04f 31ff 	mov.w	r1, #4294967295	; 0xffffffff
   d5bce:	4819      	ldr	r0, [pc, #100]	; (d5c34 <loop+0x2ac>)
   d5bd0:	f000 fcae 	bl	d6530 <_ZN6AB18056setWDTEi>
    fuel.wakeup();                                                     // Make sure that the fuel gauge wakes quickly 
   d5bd4:	4819      	ldr	r0, [pc, #100]	; (d5c3c <loop+0x2b4>)
   d5bd6:	f002 feed 	bl	d89b4 <_ZN9FuelGauge6wakeupEv>
    fuel.quickStart();
   d5bda:	4818      	ldr	r0, [pc, #96]	; (d5c3c <loop+0x2b4>)
   d5bdc:	f002 fee1 	bl	d89a2 <_ZN9FuelGauge10quickStartEv>
        if (wakeupReason() == SystemSleepWakeupReason::BY_GPIO) {
   d5be0:	9b03      	ldr	r3, [sp, #12]
        if (wakeupSource_) {
   d5be2:	2b00      	cmp	r3, #0
   d5be4:	d082      	beq.n	d5aec <loop+0x164>
        if (wakeupReason() == SystemSleepWakeupReason::BY_GPIO) {
   d5be6:	889a      	ldrh	r2, [r3, #4]
   d5be8:	2a01      	cmp	r2, #1
   d5bea:	f47f af7f 	bne.w	d5aec <loop+0x164>
    if (result.wakeupPin() == userSwitch) setLowPowerMode("0");
   d5bee:	899b      	ldrh	r3, [r3, #12]
   d5bf0:	2b04      	cmp	r3, #4
   d5bf2:	f47f af7b 	bne.w	d5aec <loop+0x164>
   d5bf6:	4912      	ldr	r1, [pc, #72]	; (d5c40 <loop+0x2b8>)
   d5bf8:	a806      	add	r0, sp, #24
   d5bfa:	f004 fc02 	bl	da402 <_ZN6StringC1EPKc>
   d5bfe:	a806      	add	r0, sp, #24
   d5c00:	f7fe fd4e 	bl	d46a0 <_Z15setLowPowerMode6String>
   d5c04:	a806      	add	r0, sp, #24
   d5c06:	f004 fbb1 	bl	da36c <_ZN6StringD1Ev>
   d5c0a:	e76f      	b.n	d5aec <loop+0x164>
   d5c0c:	2003e528 	.word	0x2003e528
   d5c10:	2003e568 	.word	0x2003e568
   d5c14:	2003e48c 	.word	0x2003e48c
   d5c18:	2003e4e8 	.word	0x2003e4e8
   d5c1c:	2003e534 	.word	0x2003e534
   d5c20:	2003e530 	.word	0x2003e530
   d5c24:	2003e52c 	.word	0x2003e52c
   d5c28:	2003e46c 	.word	0x2003e46c
   d5c2c:	2003e4b0 	.word	0x2003e4b0
   d5c30:	2003e4e9 	.word	0x2003e4e9
   d5c34:	2003e418 	.word	0x2003e418
   d5c38:	2003e454 	.word	0x2003e454
   d5c3c:	2003e4a8 	.word	0x2003e4a8
   d5c40:	000dde33 	.word	0x000dde33
   d5c44:	00015f90 	.word	0x00015f90
   d5c48:	2003e498 	.word	0x2003e498
   d5c4c:	2003e110 	.word	0x2003e110
   d5c50:	000de0f7 	.word	0x000de0f7
   d5c54:	2003e5e0 	.word	0x2003e5e0
   d5c58:	2003e410 	.word	0x2003e410
   d5c5c:	000de116 	.word	0x000de116
   d5c60:	2003e4ec 	.word	0x2003e4ec
    if (state != oldState) {
   d5c64:	4bad      	ldr	r3, [pc, #692]	; (d5f1c <loop+0x594>)
   d5c66:	781b      	ldrb	r3, [r3, #0]
   d5c68:	2b05      	cmp	r3, #5
   d5c6a:	d013      	beq.n	d5c94 <loop+0x30c>
      if (oldState == MEASURING_STATE) returnToMeasuring = true;
   d5c6c:	1eda      	subs	r2, r3, #3
   d5c6e:	4253      	negs	r3, r2
   d5c70:	4153      	adcs	r3, r2
   d5c72:	4aab      	ldr	r2, [pc, #684]	; (d5f20 <loop+0x598>)
   d5c74:	7013      	strb	r3, [r2, #0]
      publishStateTransition();
   d5c76:	f7ff f8ad 	bl	d4dd4 <_Z22publishStateTransitionv>
      connectionStartTime = Time.now();                               // Start the clock first time we enter the state
   d5c7a:	f004 ff08 	bl	daa8e <_ZN9TimeClass3nowEv>
   d5c7e:	4ba9      	ldr	r3, [pc, #676]	; (d5f24 <loop+0x59c>)
   d5c80:	6018      	str	r0, [r3, #0]
        network_on(*this, 0, 0, NULL);
   d5c82:	48a9      	ldr	r0, [pc, #676]	; (d5f28 <loop+0x5a0>)
   d5c84:	2300      	movs	r3, #0
   d5c86:	6840      	ldr	r0, [r0, #4]
   d5c88:	461a      	mov	r2, r3
   d5c8a:	4619      	mov	r1, r3
   d5c8c:	f002 f896 	bl	d7dbc <network_on>
        spark_cloud_flag_connect();
   d5c90:	f002 f81c 	bl	d7ccc <spark_cloud_flag_connect>
    static bool connected(void) { return spark_cloud_flag_connected(); }
   d5c94:	f002 f822 	bl	d7cdc <spark_cloud_flag_connected>
   d5c98:	f8df 82bc 	ldr.w	r8, [pc, #700]	; d5f58 <loop+0x5d0>
    if (Particle.connected()) {
   d5c9c:	4605      	mov	r5, r0
   d5c9e:	2800      	cmp	r0, #0
   d5ca0:	d042      	beq.n	d5d28 <loop+0x3a0>
      sysStatus.connectedStatus = true;
   d5ca2:	4da2      	ldr	r5, [pc, #648]	; (d5f2c <loop+0x5a4>)
      particleConnectionNeeded = false;                               // Connected so we don't need this flag
   d5ca4:	2300      	movs	r3, #0
   d5ca6:	f888 3000 	strb.w	r3, [r8]
      sysStatus.connectedStatus = true;
   d5caa:	2301      	movs	r3, #1
   d5cac:	70eb      	strb	r3, [r5, #3]
      sysStatus.lastConnection = Time.now();                          // This is the last time we attempted to connect
   d5cae:	f004 feee 	bl	daa8e <_ZN9TimeClass3nowEv>
      Log.info("cloud connection successful");
   d5cb2:	499f      	ldr	r1, [pc, #636]	; (d5f30 <loop+0x5a8>)
      sysStatus.lastConnection = Time.now();                          // This is the last time we attempted to connect
   d5cb4:	6268      	str	r0, [r5, #36]	; 0x24
      Log.info("cloud connection unsuccessful");
   d5cb6:	489f      	ldr	r0, [pc, #636]	; (d5f34 <loop+0x5ac>)
   d5cb8:	f7fe fbd4 	bl	d4464 <_ZNK5spark6Logger4infoEPKcz>
    if (!particleConnectionNeeded) {                                  // Whether the connection was successful or not, we will collect and publish metrics
   d5cbc:	f898 3000 	ldrb.w	r3, [r8]
   d5cc0:	2b00      	cmp	r3, #0
   d5cc2:	f47f af18 	bne.w	d5af6 <loop+0x16e>
      sysStatus.lastConnectionDuration = Time.now() - connectionStartTime;
   d5cc6:	f004 fee2 	bl	daa8e <_ZN9TimeClass3nowEv>
   d5cca:	4b96      	ldr	r3, [pc, #600]	; (d5f24 <loop+0x59c>)
   d5ccc:	4d97      	ldr	r5, [pc, #604]	; (d5f2c <loop+0x5a4>)
   d5cce:	681b      	ldr	r3, [r3, #0]
      if (sysStatus.lastConnectionDuration > current.maxConnectTime) current.maxConnectTime = sysStatus.lastConnectionDuration; // Keep track of longest each day
   d5cd0:	4a99      	ldr	r2, [pc, #612]	; (d5f38 <loop+0x5b0>)
      sysStatus.lastConnectionDuration = Time.now() - connectionStartTime;
   d5cd2:	1ac0      	subs	r0, r0, r3
      if (sysStatus.lastConnectionDuration > connectMaxTimeSec) sysStatus.lastConnectionDuration = connectMaxTimeSec;           // This is clearly an erroneous result
   d5cd4:	4b99      	ldr	r3, [pc, #612]	; (d5f3c <loop+0x5b4>)
      if (sysStatus.lastConnectionDuration > current.maxConnectTime) current.maxConnectTime = sysStatus.lastConnectionDuration; // Keep track of longest each day
   d5cd6:	8b11      	ldrh	r1, [r2, #24]
      if (sysStatus.lastConnectionDuration > connectMaxTimeSec) sysStatus.lastConnectionDuration = connectMaxTimeSec;           // This is clearly an erroneous result
   d5cd8:	681b      	ldr	r3, [r3, #0]
      sysStatus.lastConnectionDuration = Time.now() - connectionStartTime;
   d5cda:	b280      	uxth	r0, r0
      if (sysStatus.lastConnectionDuration > connectMaxTimeSec) sysStatus.lastConnectionDuration = connectMaxTimeSec;           // This is clearly an erroneous result
   d5cdc:	4298      	cmp	r0, r3
      sysStatus.lastConnectionDuration = Time.now() - connectionStartTime;
   d5cde:	8528      	strh	r0, [r5, #40]	; 0x28
      if (sysStatus.lastConnectionDuration > connectMaxTimeSec) sysStatus.lastConnectionDuration = connectMaxTimeSec;           // This is clearly an erroneous result
   d5ce0:	bf88      	it	hi
   d5ce2:	852b      	strhhi	r3, [r5, #40]	; 0x28
      if (sysStatus.lastConnectionDuration > current.maxConnectTime) current.maxConnectTime = sysStatus.lastConnectionDuration; // Keep track of longest each day
   d5ce4:	8d2b      	ldrh	r3, [r5, #40]	; 0x28
   d5ce6:	4299      	cmp	r1, r3
   d5ce8:	bf38      	it	cc
   d5cea:	8313      	strhcc	r3, [r2, #24]
      snprintf(connectionStr, sizeof(connectionStr),"Connected in %i secs",sysStatus.lastConnectionDuration);                   // Make up connection string and publish
   d5cec:	2120      	movs	r1, #32
   d5cee:	4a94      	ldr	r2, [pc, #592]	; (d5f40 <loop+0x5b8>)
   d5cf0:	a806      	add	r0, sp, #24
   d5cf2:	f002 f8c3 	bl	d7e7c <snprintf>
      Log.info(connectionStr);
   d5cf6:	488f      	ldr	r0, [pc, #572]	; (d5f34 <loop+0x5ac>)
   d5cf8:	a906      	add	r1, sp, #24
   d5cfa:	f7fe fbb3 	bl	d4464 <_ZNK5spark6Logger4infoEPKcz>
      if (sysStatus.verboseMode) publishQueue.publish("Cellular",connectionStr,PRIVATE);
   d5cfe:	792b      	ldrb	r3, [r5, #4]
   d5d00:	b14b      	cbz	r3, d5d16 <loop+0x38e>
   d5d02:	2300      	movs	r3, #0
   d5d04:	f88d 3000 	strb.w	r3, [sp]
   d5d08:	4b8e      	ldr	r3, [pc, #568]	; (d5f44 <loop+0x5bc>)
   d5d0a:	498f      	ldr	r1, [pc, #572]	; (d5f48 <loop+0x5c0>)
   d5d0c:	781b      	ldrb	r3, [r3, #0]
   d5d0e:	488f      	ldr	r0, [pc, #572]	; (d5f4c <loop+0x5c4>)
   d5d10:	aa06      	add	r2, sp, #24
   d5d12:	f7fe fbd5 	bl	d44c0 <_ZN21PublishQueueAsyncBase7publishEPKcS1_N8particle5FlagsI15PublishFlagTypehEES5_>
      systemStatusWriteNeeded = true;
   d5d16:	2301      	movs	r3, #1
   d5d18:	703b      	strb	r3, [r7, #0]
      currentCountsWriteNeeded = true;
   d5d1a:	7033      	strb	r3, [r6, #0]
      if (returnToMeasuring) state = MEASURING_STATE;    // If we came here from measuring, this will send us back
   d5d1c:	4b80      	ldr	r3, [pc, #512]	; (d5f20 <loop+0x598>)
   d5d1e:	781b      	ldrb	r3, [r3, #0]
   d5d20:	b1fb      	cbz	r3, d5d62 <loop+0x3da>
   d5d22:	2303      	movs	r3, #3
      state = ERROR_STATE;                                            // Response timed out
   d5d24:	7023      	strb	r3, [r4, #0]
   d5d26:	e6e6      	b.n	d5af6 <loop+0x16e>
    else if ((Time.now() - connectionStartTime) > connectMaxTimeSec) {
   d5d28:	f004 feb1 	bl	daa8e <_ZN9TimeClass3nowEv>
   d5d2c:	4b7d      	ldr	r3, [pc, #500]	; (d5f24 <loop+0x59c>)
   d5d2e:	681b      	ldr	r3, [r3, #0]
   d5d30:	1ac0      	subs	r0, r0, r3
   d5d32:	4b82      	ldr	r3, [pc, #520]	; (d5f3c <loop+0x5b4>)
   d5d34:	681b      	ldr	r3, [r3, #0]
   d5d36:	4298      	cmp	r0, r3
   d5d38:	d9c0      	bls.n	d5cbc <loop+0x334>
      particleConnectionNeeded = false;                               // Timed out so we will give up until the next hour
   d5d3a:	f888 5000 	strb.w	r5, [r8]
      if ((Time.now() - sysStatus.lastConnection) > 7200) {             // Only sends to ERROR_STATE if it has been over 2 hours
   d5d3e:	f004 fea6 	bl	daa8e <_ZN9TimeClass3nowEv>
   d5d42:	4b7a      	ldr	r3, [pc, #488]	; (d5f2c <loop+0x5a4>)
   d5d44:	6a5a      	ldr	r2, [r3, #36]	; 0x24
   d5d46:	1a80      	subs	r0, r0, r2
   d5d48:	f5b0 5fe1 	cmp.w	r0, #7200	; 0x1c20
   d5d4c:	d906      	bls.n	d5d5c <loop+0x3d4>
        state = ERROR_STATE;     
   d5d4e:	2301      	movs	r3, #1
   d5d50:	7023      	strb	r3, [r4, #0]
   d5d52:	f001 fd7f 	bl	d7854 <HAL_Timer_Get_Milli_Seconds>
        resetTimeStamp = millis();
   d5d56:	4b7e      	ldr	r3, [pc, #504]	; (d5f50 <loop+0x5c8>)
   d5d58:	6018      	str	r0, [r3, #0]
        break;
   d5d5a:	e6cc      	b.n	d5af6 <loop+0x16e>
      Log.info("cloud connection unsuccessful");
   d5d5c:	497d      	ldr	r1, [pc, #500]	; (d5f54 <loop+0x5cc>)
      sysStatus.connectedStatus = false;
   d5d5e:	70dd      	strb	r5, [r3, #3]
      Log.info("cloud connection unsuccessful");
   d5d60:	e7a9      	b.n	d5cb6 <loop+0x32e>
      else state = IDLE_STATE;                                             // We are connected so, we can go to the IDLE state
   d5d62:	2302      	movs	r3, #2
   d5d64:	e7de      	b.n	d5d24 <loop+0x39c>
    if (!sysStatus.connectedStatus) {
   d5d66:	4b71      	ldr	r3, [pc, #452]	; (d5f2c <loop+0x5a4>)
   d5d68:	78da      	ldrb	r2, [r3, #3]
   d5d6a:	b91a      	cbnz	r2, d5d74 <loop+0x3ec>
      particleConnectionNeeded = true;                                // Go to connect state to connect and will return from there
   d5d6c:	4b7a      	ldr	r3, [pc, #488]	; (d5f58 <loop+0x5d0>)
   d5d6e:	2201      	movs	r2, #1
   d5d70:	701a      	strb	r2, [r3, #0]
   d5d72:	e64d      	b.n	d5a10 <loop+0x88>
    if (sysStatus.verboseMode && state != oldState) publishStateTransition();
   d5d74:	791b      	ldrb	r3, [r3, #4]
   d5d76:	b12b      	cbz	r3, d5d84 <loop+0x3fc>
   d5d78:	4b68      	ldr	r3, [pc, #416]	; (d5f1c <loop+0x594>)
   d5d7a:	781b      	ldrb	r3, [r3, #0]
   d5d7c:	2b03      	cmp	r3, #3
   d5d7e:	d001      	beq.n	d5d84 <loop+0x3fc>
   d5d80:	f7ff f828 	bl	d4dd4 <_Z22publishStateTransitionv>
    takeMeasurements();
   d5d84:	f7ff f8e2 	bl	d4f4c <_Z16takeMeasurementsv>
    state = WATERING_STATE;
   d5d88:	2304      	movs	r3, #4
   d5d8a:	e7cb      	b.n	d5d24 <loop+0x39c>
    if (state != oldState) publishStateTransition();
   d5d8c:	4b63      	ldr	r3, [pc, #396]	; (d5f1c <loop+0x594>)
   d5d8e:	781b      	ldrb	r3, [r3, #0]
   d5d90:	2b04      	cmp	r3, #4
   d5d92:	d001      	beq.n	d5d98 <loop+0x410>
   d5d94:	f7ff f81e 	bl	d4dd4 <_Z22publishStateTransitionv>
    if (Time.hour() > sysStatus.openTime && Time.hour() < sysStatus.closeTime && current.soilMoisture < sysStatus.wateringThresholdPct) {
   d5d98:	4d64      	ldr	r5, [pc, #400]	; (d5f2c <loop+0x5a4>)
   d5d9a:	f8df 81a8 	ldr.w	r8, [pc, #424]	; d5f44 <loop+0x5bc>
   d5d9e:	f004 fe87 	bl	daab0 <_ZN9TimeClass4hourEv>
   d5da2:	7f2b      	ldrb	r3, [r5, #28]
   d5da4:	4298      	cmp	r0, r3
   d5da6:	dc12      	bgt.n	d5dce <loop+0x446>
      Log.info("No watering needed at this time");
   d5da8:	496c      	ldr	r1, [pc, #432]	; (d5f5c <loop+0x5d4>)
   d5daa:	4862      	ldr	r0, [pc, #392]	; (d5f34 <loop+0x5ac>)
   d5dac:	f7fe fb5a 	bl	d4464 <_ZNK5spark6Logger4infoEPKcz>
inline particle::Flags<TagT, ValueT>::Flags(Flag<TagT, ValueT> flag) :
        val_(flag.value()) {
}

template<typename TagT, typename ValueT>
inline particle::Flags<TagT, ValueT>::Flags(ValueT val) :
   d5db0:	f898 3000 	ldrb.w	r3, [r8]
        return publish_event(eventName, eventData, ttl, flags1 | flags2);
   d5db4:	f88d 3000 	strb.w	r3, [sp]
   d5db8:	a806      	add	r0, sp, #24
   d5dba:	4a68      	ldr	r2, [pc, #416]	; (d5f5c <loop+0x5d4>)
   d5dbc:	4968      	ldr	r1, [pc, #416]	; (d5f60 <loop+0x5d8>)
   d5dbe:	233c      	movs	r3, #60	; 0x3c
   d5dc0:	f002 fb9e 	bl	d8500 <_ZN10CloudClass13publish_eventEPKcS1_iN8particle5FlagsI15PublishFlagTypehEE>
	: _M_ptr(__p), _M_refcount(__r._M_refcount) // never throws
	{ }

      __shared_ptr(const __shared_ptr&) noexcept = default;
      __shared_ptr& operator=(const __shared_ptr&) noexcept = default;
      ~__shared_ptr() = default;
   d5dc4:	a807      	add	r0, sp, #28
   d5dc6:	f7ff f927 	bl	d5018 <_ZNSt14__shared_countILN9__gnu_cxx12_Lock_policyE0EED1Ev>
    state = REPORTING_STATE;
   d5dca:	2306      	movs	r3, #6
   d5dcc:	e7aa      	b.n	d5d24 <loop+0x39c>
    if (Time.hour() > sysStatus.openTime && Time.hour() < sysStatus.closeTime && current.soilMoisture < sysStatus.wateringThresholdPct) {
   d5dce:	f004 fe6f 	bl	daab0 <_ZN9TimeClass4hourEv>
   d5dd2:	7f6b      	ldrb	r3, [r5, #29]
   d5dd4:	4298      	cmp	r0, r3
   d5dd6:	dae7      	bge.n	d5da8 <loop+0x420>
   d5dd8:	4b57      	ldr	r3, [pc, #348]	; (d5f38 <loop+0x5b0>)
   d5dda:	ed95 7a0b 	vldr	s14, [r5, #44]	; 0x2c
   d5dde:	edd3 7a01 	vldr	s15, [r3, #4]
   d5de2:	eef8 7ae7 	vcvt.f32.s32	s15, s15
   d5de6:	eef4 7ac7 	vcmpe.f32	s15, s14
   d5dea:	eef1 fa10 	vmrs	APSR_nzcv, fpscr
   d5dee:	d5db      	bpl.n	d5da8 <loop+0x420>
      Log.info("Watering");
   d5df0:	495b      	ldr	r1, [pc, #364]	; (d5f60 <loop+0x5d8>)
   d5df2:	4850      	ldr	r0, [pc, #320]	; (d5f34 <loop+0x5ac>)
   d5df4:	f7fe fb36 	bl	d4464 <_ZNK5spark6Logger4infoEPKcz>
      snprintf(data, sizeof(data), "{\"duration\":%i}",sysStatus.wateringDuration);
   d5df8:	6b2b      	ldr	r3, [r5, #48]	; 0x30
   d5dfa:	4a5a      	ldr	r2, [pc, #360]	; (d5f64 <loop+0x5dc>)
   d5dfc:	2120      	movs	r1, #32
   d5dfe:	a806      	add	r0, sp, #24
   d5e00:	f002 f83c 	bl	d7e7c <snprintf>
   d5e04:	f898 3000 	ldrb.w	r3, [r8]
   d5e08:	f88d 3000 	strb.w	r3, [sp]
   d5e0c:	a803      	add	r0, sp, #12
   d5e0e:	4956      	ldr	r1, [pc, #344]	; (d5f68 <loop+0x5e0>)
   d5e10:	233c      	movs	r3, #60	; 0x3c
   d5e12:	aa06      	add	r2, sp, #24
   d5e14:	f002 fb74 	bl	d8500 <_ZN10CloudClass13publish_eventEPKcS1_iN8particle5FlagsI15PublishFlagTypehEE>
   d5e18:	a804      	add	r0, sp, #16
   d5e1a:	e7d4      	b.n	d5dc6 <loop+0x43e>
    if (state != oldState) publishStateTransition();
   d5e1c:	4b3f      	ldr	r3, [pc, #252]	; (d5f1c <loop+0x594>)
   d5e1e:	781b      	ldrb	r3, [r3, #0]
   d5e20:	2b06      	cmp	r3, #6
   d5e22:	d001      	beq.n	d5e28 <loop+0x4a0>
   d5e24:	f7fe ffd6 	bl	d4dd4 <_Z22publishStateTransitionv>
    if (sysStatus.connectedStatus) {
   d5e28:	4d40      	ldr	r5, [pc, #256]	; (d5f2c <loop+0x5a4>)
    lastReportedTime = Time.now();                                  // We are only going to try once
   d5e2a:	f004 fe30 	bl	daa8e <_ZN9TimeClass3nowEv>
   d5e2e:	4b4f      	ldr	r3, [pc, #316]	; (d5f6c <loop+0x5e4>)
    if (sysStatus.connectedStatus) {
   d5e30:	78ea      	ldrb	r2, [r5, #3]
    lastReportedTime = Time.now();                                  // We are only going to try once
   d5e32:	6018      	str	r0, [r3, #0]
    if (sysStatus.connectedStatus) {
   d5e34:	4698      	mov	r8, r3
   d5e36:	2a00      	cmp	r2, #0
   d5e38:	d03c      	beq.n	d5eb4 <loop+0x52c>
      if (Time.hour() == sysStatus.openTime) dailyCleanup();          // Once a day, clean house and publish to Google Sheets
   d5e3a:	f004 fe39 	bl	daab0 <_ZN9TimeClass4hourEv>
   d5e3e:	7f2b      	ldrb	r3, [r5, #28]
   d5e40:	4298      	cmp	r0, r3
   d5e42:	d113      	bne.n	d5e6c <loop+0x4e4>
   d5e44:	f7ff f806 	bl	d4e54 <_Z12dailyCleanupv>
      if (Time.hour() == sysStatus.openTime && sysStatus.openTime==0) sendEvent();    // Need this so we can get 24 hour reporting for non-sleeping devices
   d5e48:	f004 fe32 	bl	daab0 <_ZN9TimeClass4hourEv>
   d5e4c:	7f2b      	ldrb	r3, [r5, #28]
   d5e4e:	4298      	cmp	r0, r3
   d5e50:	d102      	bne.n	d5e58 <loop+0x4d0>
   d5e52:	b908      	cbnz	r0, d5e58 <loop+0x4d0>
   d5e54:	f7fe fd1e 	bl	d4894 <_Z9sendEventv>
   d5e58:	f001 fcfc 	bl	d7854 <HAL_Timer_Get_Milli_Seconds>
      webhookTimeStamp = millis();
   d5e5c:	4b44      	ldr	r3, [pc, #272]	; (d5f70 <loop+0x5e8>)
   d5e5e:	6018      	str	r0, [r3, #0]
      lastReportedTime = Time.now();
   d5e60:	f004 fe15 	bl	daa8e <_ZN9TimeClass3nowEv>
      state = RESP_WAIT_STATE;                                        // Wait for Response
   d5e64:	2307      	movs	r3, #7
      lastReportedTime = Time.now();
   d5e66:	f8c8 0000 	str.w	r0, [r8]
      state = RESP_WAIT_STATE;                                        // Wait for Response
   d5e6a:	e75b      	b.n	d5d24 <loop+0x39c>
      else sendEvent();                                               // Send data to Ubidots but not at opening time as there is nothing to publish
   d5e6c:	f7fe fd12 	bl	d4894 <_Z9sendEventv>
   d5e70:	e7ea      	b.n	d5e48 <loop+0x4c0>
    if (state != oldState) publishStateTransition();
   d5e72:	4b2a      	ldr	r3, [pc, #168]	; (d5f1c <loop+0x594>)
   d5e74:	781b      	ldrb	r3, [r3, #0]
   d5e76:	2b07      	cmp	r3, #7
   d5e78:	d001      	beq.n	d5e7e <loop+0x4f6>
   d5e7a:	f7fe ffab 	bl	d4dd4 <_Z22publishStateTransitionv>
    if (!dataInFlight)  {                                             // Response received --> back to IDLE state
   d5e7e:	4b3d      	ldr	r3, [pc, #244]	; (d5f74 <loop+0x5ec>)
   d5e80:	781d      	ldrb	r5, [r3, #0]
   d5e82:	b96d      	cbnz	r5, d5ea0 <loop+0x518>
      stayAwake = stayAwakeLong;                                      // Keeps device awake after reboot - helps with recovery
   d5e84:	4b3c      	ldr	r3, [pc, #240]	; (d5f78 <loop+0x5f0>)
   d5e86:	4a3d      	ldr	r2, [pc, #244]	; (d5f7c <loop+0x5f4>)
   d5e88:	601a      	str	r2, [r3, #0]
   d5e8a:	f001 fce3 	bl	d7854 <HAL_Timer_Get_Milli_Seconds>
      stayAwakeTimeStamp = millis();
   d5e8e:	4b3c      	ldr	r3, [pc, #240]	; (d5f80 <loop+0x5f8>)
   d5e90:	6018      	str	r0, [r3, #0]
      state = IDLE_STATE;
   d5e92:	2302      	movs	r3, #2
   d5e94:	7023      	strb	r3, [r4, #0]
      current.alertCount = 0; // Zero out the counts until next reporting period
   d5e96:	4b28      	ldr	r3, [pc, #160]	; (d5f38 <loop+0x5b0>)
   d5e98:	611d      	str	r5, [r3, #16]
      currentCountsWriteNeeded=true;
   d5e9a:	2301      	movs	r3, #1
   d5e9c:	7033      	strb	r3, [r6, #0]
   d5e9e:	e62a      	b.n	d5af6 <loop+0x16e>
   d5ea0:	f001 fcd8 	bl	d7854 <HAL_Timer_Get_Milli_Seconds>
    else if (millis() - webhookTimeStamp > webhookWait) {             // If it takes too long - will need to reset
   d5ea4:	4b32      	ldr	r3, [pc, #200]	; (d5f70 <loop+0x5e8>)
   d5ea6:	681b      	ldr	r3, [r3, #0]
   d5ea8:	1ac0      	subs	r0, r0, r3
   d5eaa:	f247 5330 	movw	r3, #30000	; 0x7530
   d5eae:	4298      	cmp	r0, r3
   d5eb0:	f67f ae21 	bls.w	d5af6 <loop+0x16e>
   d5eb4:	f001 fcce 	bl	d7854 <HAL_Timer_Get_Milli_Seconds>
      resetTimeStamp = millis();
   d5eb8:	4b25      	ldr	r3, [pc, #148]	; (d5f50 <loop+0x5c8>)
   d5eba:	6018      	str	r0, [r3, #0]
      state = ERROR_STATE;                                            // Response timed out
   d5ebc:	2301      	movs	r3, #1
   d5ebe:	e731      	b.n	d5d24 <loop+0x39c>
    if (state != oldState) publishStateTransition();
   d5ec0:	4b16      	ldr	r3, [pc, #88]	; (d5f1c <loop+0x594>)
   d5ec2:	781b      	ldrb	r3, [r3, #0]
   d5ec4:	2b01      	cmp	r3, #1
   d5ec6:	d001      	beq.n	d5ecc <loop+0x544>
   d5ec8:	f7fe ff84 	bl	d4dd4 <_Z22publishStateTransitionv>
   d5ecc:	f001 fcc2 	bl	d7854 <HAL_Timer_Get_Milli_Seconds>
    if (millis() > resetTimeStamp + resetWait) {
   d5ed0:	4b1f      	ldr	r3, [pc, #124]	; (d5f50 <loop+0x5c8>)
   d5ed2:	681b      	ldr	r3, [r3, #0]
   d5ed4:	f503 43ea 	add.w	r3, r3, #29952	; 0x7500
   d5ed8:	3330      	adds	r3, #48	; 0x30
   d5eda:	4283      	cmp	r3, r0
   d5edc:	f4bf ae0b 	bcs.w	d5af6 <loop+0x16e>
      if ((Time.now() - sysStatus.lastConnection) > 7200L) {           // It is been over two hours since we last connected to the cloud - time for a reset
   d5ee0:	4d12      	ldr	r5, [pc, #72]	; (d5f2c <loop+0x5a4>)
   d5ee2:	f004 fdd4 	bl	daa8e <_ZN9TimeClass3nowEv>
   d5ee6:	6a6b      	ldr	r3, [r5, #36]	; 0x24
   d5ee8:	1ac0      	subs	r0, r0, r3
   d5eea:	f5b0 5fe1 	cmp.w	r0, #7200	; 0x1c20
   d5eee:	462c      	mov	r4, r5
   d5ef0:	d94c      	bls.n	d5f8c <loop+0x604>
        sysStatus.lastConnection = Time.now() - 3600;                 // Wait an hour before we come back to this condition
   d5ef2:	f004 fdcc 	bl	daa8e <_ZN9TimeClass3nowEv>
   d5ef6:	f5a0 6061 	sub.w	r0, r0, #3600	; 0xe10
   d5efa:	6268      	str	r0, [r5, #36]	; 0x24
        fram.put(FRAM::systemStatusAddr,sysStatus);
   d5efc:	462a      	mov	r2, r5
   d5efe:	2101      	movs	r1, #1
   d5f00:	4820      	ldr	r0, [pc, #128]	; (d5f84 <loop+0x5fc>)
   d5f02:	f7ff f8b2 	bl	d506a <_ZN6MB85RC3putI22systemStatus_structureEERKT_jS4_>
        Log.error("failed to connect to cloud, doing deep reset");
   d5f06:	480b      	ldr	r0, [pc, #44]	; (d5f34 <loop+0x5ac>)
   d5f08:	491f      	ldr	r1, [pc, #124]	; (d5f88 <loop+0x600>)
   d5f0a:	f7fe fac2 	bl	d4492 <_ZNK5spark6Logger5errorEPKcz>
        delay(100);
   d5f0e:	2064      	movs	r0, #100	; 0x64
   d5f10:	f002 f808 	bl	d7f24 <delay>
        fullModemReset();                                             // Full Modem reset and reboot
   d5f14:	f7ff fcca 	bl	d58ac <_Z14fullModemResetv>
   d5f18:	e5ed      	b.n	d5af6 <loop+0x16e>
   d5f1a:	bf00      	nop
   d5f1c:	2003e4e8 	.word	0x2003e4e8
   d5f20:	2003e412 	.word	0x2003e412
   d5f24:	2003e414 	.word	0x2003e414
   d5f28:	2003e59c 	.word	0x2003e59c
   d5f2c:	2003e534 	.word	0x2003e534
   d5f30:	000ddfe6 	.word	0x000ddfe6
   d5f34:	2003e5e0 	.word	0x2003e5e0
   d5f38:	2003e46c 	.word	0x2003e46c
   d5f3c:	2003e0fc 	.word	0x2003e0fc
   d5f40:	000de020 	.word	0x000de020
   d5f44:	2003e410 	.word	0x2003e410
   d5f48:	000de035 	.word	0x000de035
   d5f4c:	2003e4ec 	.word	0x2003e4ec
   d5f50:	2003e524 	.word	0x2003e524
   d5f54:	000de002 	.word	0x000de002
   d5f58:	2003e4e9 	.word	0x2003e4e9
   d5f5c:	000de03e 	.word	0x000de03e
   d5f60:	000de05e 	.word	0x000de05e
   d5f64:	000de067 	.word	0x000de067
   d5f68:	000de077 	.word	0x000de077
   d5f6c:	2003e4b0 	.word	0x2003e4b0
   d5f70:	2003e584 	.word	0x2003e584
   d5f74:	2003e497 	.word	0x2003e497
   d5f78:	2003e52c 	.word	0x2003e52c
   d5f7c:	00015f90 	.word	0x00015f90
   d5f80:	2003e530 	.word	0x2003e530
   d5f84:	2003e498 	.word	0x2003e498
   d5f88:	000de08a 	.word	0x000de08a
      else if (Time.now() - sysStatus.lastHookResponse > 7200L) {     //It has been more than two hours since a sucessful hook response
   d5f8c:	f004 fd7f 	bl	daa8e <_ZN9TimeClass3nowEv>
   d5f90:	6a2b      	ldr	r3, [r5, #32]
   d5f92:	1ac0      	subs	r0, r0, r3
   d5f94:	f5b0 5fe1 	cmp.w	r0, #7200	; 0x1c20
   d5f98:	78eb      	ldrb	r3, [r5, #3]
   d5f9a:	d919      	bls.n	d5fd0 <loop+0x648>
        if (sysStatus.connectedStatus) publishQueue.publish("State","Error State - Full Modem Reset", PRIVATE, WITH_ACK);  // Broadcast Reset Action
   d5f9c:	b153      	cbz	r3, d5fb4 <loop+0x62c>
inline ValueT particle::Flag<TagT, ValueT>::value() const {
   d5f9e:	4b25      	ldr	r3, [pc, #148]	; (d6034 <loop+0x6ac>)
   d5fa0:	4a25      	ldr	r2, [pc, #148]	; (d6038 <loop+0x6b0>)
   d5fa2:	781b      	ldrb	r3, [r3, #0]
   d5fa4:	f88d 3000 	strb.w	r3, [sp]
   d5fa8:	4b24      	ldr	r3, [pc, #144]	; (d603c <loop+0x6b4>)
   d5faa:	4925      	ldr	r1, [pc, #148]	; (d6040 <loop+0x6b8>)
   d5fac:	781b      	ldrb	r3, [r3, #0]
   d5fae:	4825      	ldr	r0, [pc, #148]	; (d6044 <loop+0x6bc>)
   d5fb0:	f7fe fa86 	bl	d44c0 <_ZN21PublishQueueAsyncBase7publishEPKcS1_N8particle5FlagsI15PublishFlagTypehEES5_>
        delay(2000);                                                  // Time to publish
   d5fb4:	f44f 60fa 	mov.w	r0, #2000	; 0x7d0
   d5fb8:	f001 ffb4 	bl	d7f24 <delay>
        sysStatus.resetCount = 0;                                     // Zero the ResetCount
   d5fbc:	2300      	movs	r3, #0
   d5fbe:	6123      	str	r3, [r4, #16]
        sysStatus.lastHookResponse = Time.now() - 3600;               // Give it an hour before we act on this condition again
   d5fc0:	f004 fd65 	bl	daa8e <_ZN9TimeClass3nowEv>
        systemStatusWriteNeeded=true;
   d5fc4:	2301      	movs	r3, #1
        sysStatus.lastHookResponse = Time.now() - 3600;               // Give it an hour before we act on this condition again
   d5fc6:	f5a0 6061 	sub.w	r0, r0, #3600	; 0xe10
   d5fca:	6220      	str	r0, [r4, #32]
        systemStatusWriteNeeded=true;
   d5fcc:	703b      	strb	r3, [r7, #0]
   d5fce:	e7a1      	b.n	d5f14 <loop+0x58c>
      else if (sysStatus.resetCount <= 3) {                                // First try simple reset
   d5fd0:	692a      	ldr	r2, [r5, #16]
   d5fd2:	2a03      	cmp	r2, #3
   d5fd4:	dc12      	bgt.n	d5ffc <loop+0x674>
        if (sysStatus.connectedStatus) publishQueue.publish("State","Error State - System Reset", PRIVATE, WITH_ACK);    // Brodcast Reset Action
   d5fd6:	b153      	cbz	r3, d5fee <loop+0x666>
   d5fd8:	4b16      	ldr	r3, [pc, #88]	; (d6034 <loop+0x6ac>)
   d5fda:	4a1b      	ldr	r2, [pc, #108]	; (d6048 <loop+0x6c0>)
   d5fdc:	781b      	ldrb	r3, [r3, #0]
   d5fde:	f88d 3000 	strb.w	r3, [sp]
   d5fe2:	4b16      	ldr	r3, [pc, #88]	; (d603c <loop+0x6b4>)
   d5fe4:	4916      	ldr	r1, [pc, #88]	; (d6040 <loop+0x6b8>)
   d5fe6:	781b      	ldrb	r3, [r3, #0]
   d5fe8:	4816      	ldr	r0, [pc, #88]	; (d6044 <loop+0x6bc>)
   d5fea:	f7fe fa69 	bl	d44c0 <_ZN21PublishQueueAsyncBase7publishEPKcS1_N8particle5FlagsI15PublishFlagTypehEES5_>
        delay(2000);
   d5fee:	f44f 60fa 	mov.w	r0, #2000	; 0x7d0
   d5ff2:	f001 ff97 	bl	d7f24 <delay>
        System.reset();
   d5ff6:	f004 faf3 	bl	da5e0 <_ZN11SystemClass5resetEv>
   d5ffa:	e57c      	b.n	d5af6 <loop+0x16e>
        if (sysStatus.connectedStatus) publishQueue.publish("State","Error State - Full Modem Reset", PRIVATE, WITH_ACK);            // Brodcase Reset Action
   d5ffc:	b153      	cbz	r3, d6014 <loop+0x68c>
   d5ffe:	4b0d      	ldr	r3, [pc, #52]	; (d6034 <loop+0x6ac>)
   d6000:	4a0d      	ldr	r2, [pc, #52]	; (d6038 <loop+0x6b0>)
   d6002:	781b      	ldrb	r3, [r3, #0]
   d6004:	f88d 3000 	strb.w	r3, [sp]
   d6008:	4b0c      	ldr	r3, [pc, #48]	; (d603c <loop+0x6b4>)
   d600a:	490d      	ldr	r1, [pc, #52]	; (d6040 <loop+0x6b8>)
   d600c:	781b      	ldrb	r3, [r3, #0]
   d600e:	480d      	ldr	r0, [pc, #52]	; (d6044 <loop+0x6bc>)
   d6010:	f7fe fa56 	bl	d44c0 <_ZN21PublishQueueAsyncBase7publishEPKcS1_N8particle5FlagsI15PublishFlagTypehEES5_>
        delay(2000);
   d6014:	f44f 60fa 	mov.w	r0, #2000	; 0x7d0
   d6018:	f001 ff84 	bl	d7f24 <delay>
        sysStatus.resetCount = 0;                                     // Zero the ResetCount
   d601c:	2300      	movs	r3, #0
        fram.put(FRAM::systemStatusAddr,sysStatus);                   // Won't get back to the main loop
   d601e:	4a0b      	ldr	r2, [pc, #44]	; (d604c <loop+0x6c4>)
   d6020:	480b      	ldr	r0, [pc, #44]	; (d6050 <loop+0x6c8>)
        sysStatus.resetCount = 0;                                     // Zero the ResetCount
   d6022:	6123      	str	r3, [r4, #16]
        fram.put(FRAM::systemStatusAddr,sysStatus);                   // Won't get back to the main loop
   d6024:	2101      	movs	r1, #1
   d6026:	f7ff f820 	bl	d506a <_ZN6MB85RC3putI22systemStatus_structureEERKT_jS4_>
        ab1805.deepPowerDown();                                       // 30 second power cycle of Boron including cellular modem, carrier board and all peripherals
   d602a:	211e      	movs	r1, #30
   d602c:	4809      	ldr	r0, [pc, #36]	; (d6054 <loop+0x6cc>)
   d602e:	f000 fbd9 	bl	d67e4 <_ZN6AB180513deepPowerDownEi>
   d6032:	e560      	b.n	d5af6 <loop+0x16e>
   d6034:	2003e411 	.word	0x2003e411
   d6038:	000de0b7 	.word	0x000de0b7
   d603c:	2003e410 	.word	0x2003e410
   d6040:	000de0d6 	.word	0x000de0d6
   d6044:	2003e4ec 	.word	0x2003e4ec
   d6048:	000de0dc 	.word	0x000de0dc
   d604c:	2003e534 	.word	0x2003e534
   d6050:	2003e498 	.word	0x2003e498
   d6054:	2003e418 	.word	0x2003e418

000d6058 <_ZN10CloudClass12syncTimeDoneEv.isra.0>:
    bool syncTimeDone(void)
   d6058:	b508      	push	{r3, lr}
        return !spark_sync_time_pending(nullptr) || disconnected();
   d605a:	2000      	movs	r0, #0
   d605c:	f001 fe66 	bl	d7d2c <spark_sync_time_pending>
   d6060:	b128      	cbz	r0, d606e <_ZN10CloudClass12syncTimeDoneEv.isra.0+0x16>
    static bool connected(void) { return spark_cloud_flag_connected(); }
   d6062:	f001 fe3b 	bl	d7cdc <spark_cloud_flag_connected>
        return !spark_sync_time_pending(nullptr) || disconnected();
   d6066:	f080 0001 	eor.w	r0, r0, #1
   d606a:	b2c0      	uxtb	r0, r0
    }
   d606c:	bd08      	pop	{r3, pc}
        return !spark_sync_time_pending(nullptr) || disconnected();
   d606e:	2001      	movs	r0, #1
   d6070:	e7fc      	b.n	d606c <_ZN10CloudClass12syncTimeDoneEv.isra.0+0x14>
   d6072:	0000      	movs	r0, r0
   d6074:	0000      	movs	r0, r0
	...

000d6078 <_Z11setTimeZone6String>:
 * Values outside this range will cause the function to return 0 to indicate an invalid entry.
 * 
 * @return 1 if successful, 0 if invalid command
 */
int setTimeZone(String command)
{
   d6078:	e92d 47f0 	stmdb	sp!, {r4, r5, r6, r7, r8, r9, sl, lr}
   d607c:	b0c8      	sub	sp, #288	; 0x120
   d607e:	4680      	mov	r8, r0
    static bool connected(void) { return spark_cloud_flag_connected(); }
   d6080:	f001 fe2c 	bl	d7cdc <spark_cloud_flag_connected>
        if (!connected()) {
   d6084:	b110      	cbz	r0, d608c <_Z11setTimeZone6String+0x14>
        return spark_sync_time(NULL);
   d6086:	2000      	movs	r0, #0
   d6088:	f001 fe48 	bl	d7d1c <spark_sync_time>
        return hal_timer_millis(nullptr);
   d608c:	2000      	movs	r0, #0
   d608e:	f001 fbf1 	bl	d7874 <hal_timer_millis>
   d6092:	f04f 0a00 	mov.w	sl, #0
   d6096:	4681      	mov	r9, r0
        while (_while() && !_condition()) {
   d6098:	f247 562f 	movw	r6, #29999	; 0x752f
   d609c:	2700      	movs	r7, #0
        return hal_timer_millis(nullptr);
   d609e:	2000      	movs	r0, #0
   d60a0:	f001 fbe8 	bl	d7874 <hal_timer_millis>
        return waitConditionWhile(_condition, [=]{ return (millis()-start)<timeout; });
   d60a4:	ebb0 0409 	subs.w	r4, r0, r9
   d60a8:	eb61 050a 	sbc.w	r5, r1, sl
        while (_while() && !_condition()) {
   d60ac:	42af      	cmp	r7, r5
   d60ae:	bf08      	it	eq
   d60b0:	42a6      	cmpeq	r6, r4
   d60b2:	d305      	bcc.n	d60c0 <_Z11setTimeZone6String+0x48>
  char * pEND;
  char data[256];
  Particle.syncTime();                                                        // Set the clock each day
  waitFor(Particle.syncTimeDone,30000);                                       // Wait for up to 30 seconds for the SyncTime to complete
   d60b4:	f7ff ffd0 	bl	d6058 <_ZN10CloudClass12syncTimeDoneEv.isra.0>
   d60b8:	b910      	cbnz	r0, d60c0 <_Z11setTimeZone6String+0x48>
            spark_process();
   d60ba:	f001 fdff 	bl	d7cbc <spark_process>
        while (_while() && !_condition()) {
   d60be:	e7ee      	b.n	d609e <_Z11setTimeZone6String+0x26>
   d60c0:	f7ff ffca 	bl	d6058 <_ZN10CloudClass12syncTimeDoneEv.isra.0>
  int8_t tempTimeZoneOffset = strtol(command,&pEND,10);                       // Looks for the first integer and interprets it
   d60c4:	f8d8 0000 	ldr.w	r0, [r8]
   d60c8:	220a      	movs	r2, #10
   d60ca:	a903      	add	r1, sp, #12
   d60cc:	f006 fd86 	bl	dcbdc <strtol>
  if ((tempTimeZoneOffset < -12) | (tempTimeZoneOffset > 12)) return 0;       // Make sure it falls in a valid range or send a "fail" result
   d60d0:	f100 030c 	add.w	r3, r0, #12
   d60d4:	b2db      	uxtb	r3, r3
   d60d6:	2b18      	cmp	r3, #24
   d60d8:	d848      	bhi.n	d616c <_Z11setTimeZone6String+0xf4>
  int8_t tempTimeZoneOffset = strtol(command,&pEND,10);                       // Looks for the first integer and interprets it
   d60da:	b245      	sxtb	r5, r0
  sysStatus.timezone = (float)tempTimeZoneOffset;
   d60dc:	ee07 5a90 	vmov	s15, r5
   d60e0:	4b27      	ldr	r3, [pc, #156]	; (d6180 <_Z11setTimeZone6String+0x108>)
   d60e2:	eeb8 0ae7 	vcvt.f32.s32	s0, s15
  Time.zone(sysStatus.timezone);
  systemStatusWriteNeeded = true;                                             // Need to store to FRAM back in the main loop
   d60e6:	2401      	movs	r4, #1
  sysStatus.timezone = (float)tempTimeZoneOffset;
   d60e8:	ed83 0a05 	vstr	s0, [r3, #20]
  Time.zone(sysStatus.timezone);
   d60ec:	f004 fb66 	bl	da7bc <_ZN9TimeClass4zoneEf>
  systemStatusWriteNeeded = true;                                             // Need to store to FRAM back in the main loop
   d60f0:	4b24      	ldr	r3, [pc, #144]	; (d6184 <_Z11setTimeZone6String+0x10c>)
   d60f2:	701c      	strb	r4, [r3, #0]
  snprintf(currentOffsetStr,sizeof(currentOffsetStr),"%2.1f UTC",(Time.local() - Time.now()) / 3600.0);
   d60f4:	f004 fd04 	bl	dab00 <_ZN9TimeClass5localEv>
   d60f8:	4606      	mov	r6, r0
   d60fa:	f004 fcc8 	bl	daa8e <_ZN9TimeClass3nowEv>
   d60fe:	1a30      	subs	r0, r6, r0
   d6100:	f005 f946 	bl	db390 <__aeabi_i2d>
   d6104:	a31c      	add	r3, pc, #112	; (adr r3, d6178 <_Z11setTimeZone6String+0x100>)
   d6106:	e9d3 2300 	ldrd	r2, r3, [r3]
   d610a:	f005 fad5 	bl	db6b8 <__aeabi_ddiv>
   d610e:	4a1e      	ldr	r2, [pc, #120]	; (d6188 <_Z11setTimeZone6String+0x110>)
   d6110:	e9cd 0100 	strd	r0, r1, [sp]
   d6114:	210a      	movs	r1, #10
   d6116:	481d      	ldr	r0, [pc, #116]	; (d618c <_Z11setTimeZone6String+0x114>)
   d6118:	f001 feb0 	bl	d7e7c <snprintf>
    static bool connected(void) { return spark_cloud_flag_connected(); }
   d611c:	f001 fdde 	bl	d7cdc <spark_cloud_flag_connected>
  if (Particle.connected()) {
   d6120:	b310      	cbz	r0, d6168 <_Z11setTimeZone6String+0xf0>
    snprintf(data, sizeof(data), "Time zone offset %i",tempTimeZoneOffset);
   d6122:	462b      	mov	r3, r5
   d6124:	4a1a      	ldr	r2, [pc, #104]	; (d6190 <_Z11setTimeZone6String+0x118>)
   d6126:	4d1b      	ldr	r5, [pc, #108]	; (d6194 <_Z11setTimeZone6String+0x11c>)
   d6128:	f44f 7180 	mov.w	r1, #256	; 0x100
        val_(0) {
   d612c:	2600      	movs	r6, #0
   d612e:	a808      	add	r0, sp, #32
   d6130:	f001 fea4 	bl	d7e7c <snprintf>
    publishQueue.publish("Time",data, PRIVATE);
   d6134:	f88d 6000 	strb.w	r6, [sp]
   d6138:	4917      	ldr	r1, [pc, #92]	; (d6198 <_Z11setTimeZone6String+0x120>)
   d613a:	782b      	ldrb	r3, [r5, #0]
   d613c:	4817      	ldr	r0, [pc, #92]	; (d619c <_Z11setTimeZone6String+0x124>)
   d613e:	aa08      	add	r2, sp, #32
   d6140:	f7fe f9be 	bl	d44c0 <_ZN21PublishQueueAsyncBase7publishEPKcS1_N8particle5FlagsI15PublishFlagTypehEES5_>
    publishQueue.publish("Time",Time.timeStr(Time.now()), PRIVATE);
   d6144:	f004 fca3 	bl	daa8e <_ZN9TimeClass3nowEv>
   d6148:	4602      	mov	r2, r0
   d614a:	17c3      	asrs	r3, r0, #31
   d614c:	a804      	add	r0, sp, #16
   d614e:	f004 fb9b 	bl	da888 <_ZN9TimeClass7timeStrEx>
   d6152:	f88d 6000 	strb.w	r6, [sp]
   d6156:	782b      	ldrb	r3, [r5, #0]
   d6158:	9a04      	ldr	r2, [sp, #16]
   d615a:	490f      	ldr	r1, [pc, #60]	; (d6198 <_Z11setTimeZone6String+0x120>)
   d615c:	480f      	ldr	r0, [pc, #60]	; (d619c <_Z11setTimeZone6String+0x124>)
   d615e:	f7fe f9af 	bl	d44c0 <_ZN21PublishQueueAsyncBase7publishEPKcS1_N8particle5FlagsI15PublishFlagTypehEES5_>
   d6162:	a804      	add	r0, sp, #16
   d6164:	f004 f902 	bl	da36c <_ZN6StringD1Ev>
  }

  return 1;
   d6168:	4620      	mov	r0, r4
   d616a:	e000      	b.n	d616e <_Z11setTimeZone6String+0xf6>
  if ((tempTimeZoneOffset < -12) | (tempTimeZoneOffset > 12)) return 0;       // Make sure it falls in a valid range or send a "fail" result
   d616c:	2000      	movs	r0, #0
}
   d616e:	b048      	add	sp, #288	; 0x120
   d6170:	e8bd 87f0 	ldmia.w	sp!, {r4, r5, r6, r7, r8, r9, sl, pc}
   d6174:	f3af 8000 	nop.w
   d6178:	00000000 	.word	0x00000000
   d617c:	40ac2000 	.word	0x40ac2000
   d6180:	2003e534 	.word	0x2003e534
   d6184:	2003e568 	.word	0x2003e568
   d6188:	000ddfdc 	.word	0x000ddfdc
   d618c:	2003e48d 	.word	0x2003e48d
   d6190:	000de1d4 	.word	0x000de1d4
   d6194:	2003e588 	.word	0x2003e588
   d6198:	000ddf01 	.word	0x000ddf01
   d619c:	2003e4ec 	.word	0x2003e4ec

000d61a0 <_Z8isDSTusav>:
 * Adapted from @ScruffR's code posted here https://community.particle.io/t/daylight-savings-problem/38424/4
 * The code works in from months, days and hours in succession toward the two transitions
 *
 * @return true if currently observing DST, false if observing standard time
 */
bool isDSTusa() {
   d61a0:	b538      	push	{r3, r4, r5, lr}
  int dayOfMonth = Time.day();
   d61a2:	f004 fc91 	bl	daac8 <_ZN9TimeClass3dayEv>
   d61a6:	4605      	mov	r5, r0
  int month = Time.month();
   d61a8:	f004 fca2 	bl	daaf0 <_ZN9TimeClass5monthEv>
   d61ac:	4604      	mov	r4, r0
  int dayOfWeek = Time.weekday() - 1; // make Sunday 0 .. Saturday 6
   d61ae:	f004 fc97 	bl	daae0 <_ZN9TimeClass7weekdayEv>

  // By Month - inside or outside the DST window
  if (month >= 4 && month <= 10)
   d61b2:	1f23      	subs	r3, r4, #4
   d61b4:	2b06      	cmp	r3, #6
   d61b6:	d90e      	bls.n	d61d6 <_Z8isDSTusav+0x36>
  { // April to October definetly DST
    return true;
  }
  else if (month < 3 || month > 11)
   d61b8:	1ee3      	subs	r3, r4, #3
   d61ba:	2b08      	cmp	r3, #8
   d61bc:	d80d      	bhi.n	d61da <_Z8isDSTusav+0x3a>
  int dayOfWeek = Time.weekday() - 1; // make Sunday 0 .. Saturday 6
   d61be:	3801      	subs	r0, #1
  }

  boolean beforeFirstSunday = (dayOfMonth - dayOfWeek < 0);
  boolean secondSundayOrAfter = (dayOfMonth - dayOfWeek > 7);

  if (beforeFirstSunday && !secondSundayOrAfter) return (month == 11);
   d61c0:	1a2d      	subs	r5, r5, r0
   d61c2:	d504      	bpl.n	d61ce <_Z8isDSTusav+0x2e>
   d61c4:	2c0b      	cmp	r4, #11
  else if (!beforeFirstSunday && !secondSundayOrAfter) return false;
  else if (!beforeFirstSunday && secondSundayOrAfter) return (month == 3);
   d61c6:	bf14      	ite	ne
   d61c8:	2000      	movne	r0, #0
   d61ca:	2001      	moveq	r0, #1
  if (secSinceMidnightLocal >= 2*3600)
  { // In the US, Daylight Time is based on local time
    return !dayStartedAs;
  }
  return dayStartedAs;
}
   d61cc:	bd38      	pop	{r3, r4, r5, pc}
  else if (!beforeFirstSunday && !secondSundayOrAfter) return false;
   d61ce:	2d07      	cmp	r5, #7
   d61d0:	dd03      	ble.n	d61da <_Z8isDSTusav+0x3a>
  else if (!beforeFirstSunday && secondSundayOrAfter) return (month == 3);
   d61d2:	2c03      	cmp	r4, #3
   d61d4:	e7f7      	b.n	d61c6 <_Z8isDSTusav+0x26>
    return true;
   d61d6:	2001      	movs	r0, #1
   d61d8:	e7f8      	b.n	d61cc <_Z8isDSTusav+0x2c>
    return false;
   d61da:	2000      	movs	r0, #0
   d61dc:	e7f6      	b.n	d61cc <_Z8isDSTusav+0x2c>
	...

000d61e0 <_Z12setDSTOffset6String>:
int setDSTOffset(String command) {                                      // This is the number of hours that will be added for Daylight Savings Time 0 (off) - 2
   d61e0:	b570      	push	{r4, r5, r6, lr}
   d61e2:	ed2d 8b02 	vpush	{d8}
   d61e6:	b0c8      	sub	sp, #288	; 0x120
   d61e8:	4605      	mov	r5, r0
  time_t t = Time.now();
   d61ea:	f004 fc50 	bl	daa8e <_ZN9TimeClass3nowEv>
  int8_t tempDSTOffset = strtol(command,&pEND,10);                      // Looks for the first integer and interprets it
   d61ee:	220a      	movs	r2, #10
  time_t t = Time.now();
   d61f0:	4604      	mov	r4, r0
  int8_t tempDSTOffset = strtol(command,&pEND,10);                      // Looks for the first integer and interprets it
   d61f2:	a903      	add	r1, sp, #12
   d61f4:	6828      	ldr	r0, [r5, #0]
   d61f6:	f006 fcf1 	bl	dcbdc <strtol>
  if ((tempDSTOffset < 0) | (tempDSTOffset > 2)) return 0;              // Make sure it falls in a valid range or send a "fail" result
   d61fa:	b2c3      	uxtb	r3, r0
   d61fc:	2b02      	cmp	r3, #2
   d61fe:	d859      	bhi.n	d62b4 <_Z12setDSTOffset6String+0xd4>
  Time.setDSTOffset((float)tempDSTOffset);                              // Set the DST Offset
   d6200:	b243      	sxtb	r3, r0
   d6202:	ee08 3a10 	vmov	s16, r3
   d6206:	eeb8 8ac8 	vcvt.f32.s32	s16, s16
   d620a:	eeb0 0a48 	vmov.f32	s0, s16
   d620e:	f004 faf5 	bl	da7fc <_ZN9TimeClass12setDSTOffsetEf>
  sysStatus.dstOffset = (float)tempDSTOffset;
   d6212:	4b2d      	ldr	r3, [pc, #180]	; (d62c8 <_Z12setDSTOffset6String+0xe8>)
   d6214:	ed83 8a06 	vstr	s16, [r3, #24]
  systemStatusWriteNeeded = true;
   d6218:	4b2c      	ldr	r3, [pc, #176]	; (d62cc <_Z12setDSTOffset6String+0xec>)
   d621a:	2201      	movs	r2, #1
   d621c:	701a      	strb	r2, [r3, #0]
  snprintf(data, sizeof(data), "DST offset %2.1f",sysStatus.dstOffset);
   d621e:	ee18 0a10 	vmov	r0, s16
   d6222:	f005 f8c7 	bl	db3b4 <__aeabi_f2d>
   d6226:	4a2a      	ldr	r2, [pc, #168]	; (d62d0 <_Z12setDSTOffset6String+0xf0>)
   d6228:	e9cd 0100 	strd	r0, r1, [sp]
   d622c:	f44f 7180 	mov.w	r1, #256	; 0x100
   d6230:	a808      	add	r0, sp, #32
   d6232:	f001 fe23 	bl	d7e7c <snprintf>
  if (Time.isValid()) isDSTusa() ? Time.beginDST() : Time.endDST();     // Perform the DST calculation here
   d6236:	f004 fc0d 	bl	daa54 <_ZN9TimeClass7isValidEv>
   d623a:	b128      	cbz	r0, d6248 <_Z12setDSTOffset6String+0x68>
   d623c:	f7ff ffb0 	bl	d61a0 <_Z8isDSTusav>
   d6240:	2800      	cmp	r0, #0
   d6242:	d034      	beq.n	d62ae <_Z12setDSTOffset6String+0xce>
   d6244:	f004 faf8 	bl	da838 <_ZN9TimeClass8beginDSTEv>
  snprintf(currentOffsetStr,sizeof(currentOffsetStr),"%2.1f UTC",(Time.local() - Time.now()) / 3600.0);
   d6248:	f004 fc5a 	bl	dab00 <_ZN9TimeClass5localEv>
   d624c:	4605      	mov	r5, r0
   d624e:	f004 fc1e 	bl	daa8e <_ZN9TimeClass3nowEv>
   d6252:	1a28      	subs	r0, r5, r0
   d6254:	f005 f89c 	bl	db390 <__aeabi_i2d>
   d6258:	a319      	add	r3, pc, #100	; (adr r3, d62c0 <_Z12setDSTOffset6String+0xe0>)
   d625a:	e9d3 2300 	ldrd	r2, r3, [r3]
   d625e:	f005 fa2b 	bl	db6b8 <__aeabi_ddiv>
   d6262:	4a1c      	ldr	r2, [pc, #112]	; (d62d4 <_Z12setDSTOffset6String+0xf4>)
   d6264:	e9cd 0100 	strd	r0, r1, [sp]
   d6268:	210a      	movs	r1, #10
   d626a:	481b      	ldr	r0, [pc, #108]	; (d62d8 <_Z12setDSTOffset6String+0xf8>)
   d626c:	f001 fe06 	bl	d7e7c <snprintf>
   d6270:	f001 fd34 	bl	d7cdc <spark_cloud_flag_connected>
  if (Particle.connected()) {
   d6274:	b1c8      	cbz	r0, d62aa <_Z12setDSTOffset6String+0xca>
    publishQueue.publish("Time",data, PRIVATE);
   d6276:	4d19      	ldr	r5, [pc, #100]	; (d62dc <_Z12setDSTOffset6String+0xfc>)
   d6278:	4919      	ldr	r1, [pc, #100]	; (d62e0 <_Z12setDSTOffset6String+0x100>)
   d627a:	481a      	ldr	r0, [pc, #104]	; (d62e4 <_Z12setDSTOffset6String+0x104>)
   d627c:	2600      	movs	r6, #0
   d627e:	f88d 6000 	strb.w	r6, [sp]
   d6282:	782b      	ldrb	r3, [r5, #0]
   d6284:	aa08      	add	r2, sp, #32
   d6286:	f7fe f91b 	bl	d44c0 <_ZN21PublishQueueAsyncBase7publishEPKcS1_N8particle5FlagsI15PublishFlagTypehEES5_>
    publishQueue.publish("Time",Time.timeStr(t), PRIVATE);
   d628a:	4622      	mov	r2, r4
   d628c:	17e3      	asrs	r3, r4, #31
   d628e:	a804      	add	r0, sp, #16
   d6290:	f004 fafa 	bl	da888 <_ZN9TimeClass7timeStrEx>
   d6294:	f88d 6000 	strb.w	r6, [sp]
   d6298:	782b      	ldrb	r3, [r5, #0]
   d629a:	9a04      	ldr	r2, [sp, #16]
   d629c:	4910      	ldr	r1, [pc, #64]	; (d62e0 <_Z12setDSTOffset6String+0x100>)
   d629e:	4811      	ldr	r0, [pc, #68]	; (d62e4 <_Z12setDSTOffset6String+0x104>)
   d62a0:	f7fe f90e 	bl	d44c0 <_ZN21PublishQueueAsyncBase7publishEPKcS1_N8particle5FlagsI15PublishFlagTypehEES5_>
   d62a4:	a804      	add	r0, sp, #16
   d62a6:	f004 f861 	bl	da36c <_ZN6StringD1Ev>
  return 1;
   d62aa:	2001      	movs	r0, #1
   d62ac:	e003      	b.n	d62b6 <_Z12setDSTOffset6String+0xd6>
  if (Time.isValid()) isDSTusa() ? Time.beginDST() : Time.endDST();     // Perform the DST calculation here
   d62ae:	f004 facf 	bl	da850 <_ZN9TimeClass6endDSTEv>
   d62b2:	e7c9      	b.n	d6248 <_Z12setDSTOffset6String+0x68>
  if ((tempDSTOffset < 0) | (tempDSTOffset > 2)) return 0;              // Make sure it falls in a valid range or send a "fail" result
   d62b4:	2000      	movs	r0, #0
}
   d62b6:	b048      	add	sp, #288	; 0x120
   d62b8:	ecbd 8b02 	vpop	{d8}
   d62bc:	bd70      	pop	{r4, r5, r6, pc}
   d62be:	bf00      	nop
   d62c0:	00000000 	.word	0x00000000
   d62c4:	40ac2000 	.word	0x40ac2000
   d62c8:	2003e534 	.word	0x2003e534
   d62cc:	2003e568 	.word	0x2003e568
   d62d0:	000de1e8 	.word	0x000de1e8
   d62d4:	000ddfdc 	.word	0x000ddfdc
   d62d8:	2003e48d 	.word	0x2003e48d
   d62dc:	2003e588 	.word	0x2003e588
   d62e0:	000ddf01 	.word	0x000ddf01
   d62e4:	2003e4ec 	.word	0x2003e4ec

000d62e8 <_GLOBAL__sub_I__Z11setTimeZone6String>:
        val_(val) {
   d62e8:	4b01      	ldr	r3, [pc, #4]	; (d62f0 <_GLOBAL__sub_I__Z11setTimeZone6String+0x8>)
   d62ea:	2201      	movs	r2, #1
   d62ec:	701a      	strb	r2, [r3, #0]
  if (secSinceMidnightLocal >= 2*3600)
  { // Daylight Time is based on local time
    return !dayStartedAs;
  }
  return dayStartedAs;
}
   d62ee:	4770      	bx	lr
   d62f0:	2003e588 	.word	0x2003e588

000d62f4 <_ZN6AB1805D1Ev>:
    instance = this;
}

AB1805::~AB1805() {

}
   d62f4:	4770      	bx	lr

000d62f6 <_ZN6AB1805D0Ev>:
AB1805::~AB1805() {
   d62f6:	b510      	push	{r4, lr}
}
   d62f8:	2120      	movs	r1, #32
AB1805::~AB1805() {
   d62fa:	4604      	mov	r4, r0
}
   d62fc:	f004 feed 	bl	db0da <_ZdlPvj>
   d6300:	4620      	mov	r0, r4
   d6302:	bd10      	pop	{r4, pc}

000d6304 <_ZNK5spark6Logger5traceEPKcz>:
inline void spark::Logger::trace(const char *fmt, ...) const {
   d6304:	b40e      	push	{r1, r2, r3}
   d6306:	b510      	push	{r4, lr}
   d6308:	b08d      	sub	sp, #52	; 0x34
   d630a:	aa0f      	add	r2, sp, #60	; 0x3c
    log(LOG_LEVEL_TRACE, fmt, args);
   d630c:	6801      	ldr	r1, [r0, #0]
inline void spark::Logger::trace(const char *fmt, ...) const {
   d630e:	f852 4b04 	ldr.w	r4, [r2], #4
    va_start(args, fmt);
   d6312:	9203      	str	r2, [sp, #12]
    attr.flags = 0;
   d6314:	2300      	movs	r3, #0
   d6316:	2020      	movs	r0, #32
   d6318:	e9cd 0304 	strd	r0, r3, [sp, #16]
    log_message_v(level, name_, &attr, nullptr, fmt, args);
   d631c:	e9cd 4200 	strd	r4, r2, [sp]
   d6320:	2001      	movs	r0, #1
   d6322:	aa04      	add	r2, sp, #16
   d6324:	f001 fc1e 	bl	d7b64 <log_message_v>
}
   d6328:	b00d      	add	sp, #52	; 0x34
   d632a:	e8bd 4010 	ldmia.w	sp!, {r4, lr}
   d632e:	b003      	add	sp, #12
   d6330:	4770      	bx	lr
	...

000d6334 <_ZN6AB1805C1ER7TwoWireh>:
AB1805::AB1805(TwoWire &wire, uint8_t i2cAddr) : wire(wire), i2cAddr(i2cAddr) {
   d6334:	b510      	push	{r4, lr}
   d6336:	7202      	strb	r2, [r0, #8]
   d6338:	22ff      	movs	r2, #255	; 0xff
   d633a:	8142      	strh	r2, [r0, #10]
   d633c:	2200      	movs	r2, #0
   d633e:	e9c0 2203 	strd	r2, r2, [r0, #12]
   d6342:	6142      	str	r2, [r0, #20]
   d6344:	7602      	strb	r2, [r0, #24]
   d6346:	61c2      	str	r2, [r0, #28]
    instance = this;
   d6348:	4a02      	ldr	r2, [pc, #8]	; (d6354 <_ZN6AB1805C1ER7TwoWireh+0x20>)
AB1805::AB1805(TwoWire &wire, uint8_t i2cAddr) : wire(wire), i2cAddr(i2cAddr) {
   d634a:	4c03      	ldr	r4, [pc, #12]	; (d6358 <_ZN6AB1805C1ER7TwoWireh+0x24>)
    instance = this;
   d634c:	6010      	str	r0, [r2, #0]
AB1805::AB1805(TwoWire &wire, uint8_t i2cAddr) : wire(wire), i2cAddr(i2cAddr) {
   d634e:	e9c0 4100 	strd	r4, r1, [r0]
}
   d6352:	bd10      	pop	{r4, pc}
   d6354:	2003e590 	.word	0x2003e590
   d6358:	000de448 	.word	0x000de448

000d635c <_ZN6AB180513readRegistersEhPhjb>:

bool AB1805::readRegister(uint8_t regAddr, uint8_t &value, bool lock) {
    return readRegisters(regAddr, &value, 1, lock);
}

bool AB1805::readRegisters(uint8_t regAddr, uint8_t *array, size_t num, bool lock) {
   d635c:	e92d 43f8 	stmdb	sp!, {r3, r4, r5, r6, r7, r8, r9, lr}
   d6360:	f89d 8020 	ldrb.w	r8, [sp, #32]
   d6364:	4604      	mov	r4, r0
   d6366:	4689      	mov	r9, r1
   d6368:	4616      	mov	r6, r2
   d636a:	461f      	mov	r7, r3
    bool bResult = false;

    if (lock) {
   d636c:	f1b8 0f00 	cmp.w	r8, #0
   d6370:	d002      	beq.n	d6378 <_ZN6AB180513readRegistersEhPhjb+0x1c>
        wire.lock();
   d6372:	6840      	ldr	r0, [r0, #4]
   d6374:	f002 fbd2 	bl	d8b1c <_ZN7TwoWire4lockEv>
    }

    wire.beginTransmission(i2cAddr);
   d6378:	7a21      	ldrb	r1, [r4, #8]
   d637a:	6860      	ldr	r0, [r4, #4]
   d637c:	f002 fbab 	bl	d8ad6 <_ZN7TwoWire17beginTransmissionEh>
    wire.write(regAddr);
   d6380:	6860      	ldr	r0, [r4, #4]
   d6382:	6803      	ldr	r3, [r0, #0]
   d6384:	4649      	mov	r1, r9
   d6386:	689b      	ldr	r3, [r3, #8]
   d6388:	4798      	blx	r3
    int stat = wire.endTransmission(false);
   d638a:	6860      	ldr	r0, [r4, #4]
   d638c:	2100      	movs	r1, #0
   d638e:	f002 fbc1 	bl	d8b14 <_ZN7TwoWire15endTransmissionEh>
    if (stat == 0) {
   d6392:	4605      	mov	r5, r0
   d6394:	bb00      	cbnz	r0, d63d8 <_ZN6AB180513readRegistersEhPhjb+0x7c>
        size_t count = wire.requestFrom(i2cAddr, num, true);
   d6396:	2301      	movs	r3, #1
   d6398:	7a21      	ldrb	r1, [r4, #8]
   d639a:	6860      	ldr	r0, [r4, #4]
   d639c:	463a      	mov	r2, r7
   d639e:	f002 fb88 	bl	d8ab2 <_ZN7TwoWire11requestFromEhjh>
        if (count == num) {
   d63a2:	4287      	cmp	r7, r0
        size_t count = wire.requestFrom(i2cAddr, num, true);
   d63a4:	4603      	mov	r3, r0
        if (count == num) {
   d63a6:	d109      	bne.n	d63bc <_ZN6AB180513readRegistersEhPhjb+0x60>
   d63a8:	4437      	add	r7, r6
            for(size_t ii = 0; ii < num; ii++) {
   d63aa:	42be      	cmp	r6, r7
   d63ac:	d01c      	beq.n	d63e8 <_ZN6AB180513readRegistersEhPhjb+0x8c>
                array[ii] = wire.read();
   d63ae:	6860      	ldr	r0, [r4, #4]
   d63b0:	6803      	ldr	r3, [r0, #0]
   d63b2:	695b      	ldr	r3, [r3, #20]
   d63b4:	4798      	blx	r3
   d63b6:	f806 0b01 	strb.w	r0, [r6], #1
            for(size_t ii = 0; ii < num; ii++) {
   d63ba:	e7f6      	b.n	d63aa <_ZN6AB180513readRegistersEhPhjb+0x4e>
            // _log.print("\n");

            bResult = true;
        }
        else {
            _log.error("failed to read regAddr=%02x count=%u", regAddr, count);
   d63bc:	490b      	ldr	r1, [pc, #44]	; (d63ec <_ZN6AB180513readRegistersEhPhjb+0x90>)
   d63be:	480c      	ldr	r0, [pc, #48]	; (d63f0 <_ZN6AB180513readRegistersEhPhjb+0x94>)
   d63c0:	464a      	mov	r2, r9
   d63c2:	f7fe f866 	bl	d4492 <_ZNK5spark6Logger5errorEPKcz>
    }
    else {
        _log.error("failed to read regAddr=%02x stat=%d", regAddr, stat);
    }

    if (lock) {
   d63c6:	f1b8 0f00 	cmp.w	r8, #0
   d63ca:	d002      	beq.n	d63d2 <_ZN6AB180513readRegistersEhPhjb+0x76>
        wire.unlock();
   d63cc:	6860      	ldr	r0, [r4, #4]
   d63ce:	f002 fbae 	bl	d8b2e <_ZN7TwoWire6unlockEv>
    }
    return bResult;    
}
   d63d2:	4628      	mov	r0, r5
   d63d4:	e8bd 83f8 	ldmia.w	sp!, {r3, r4, r5, r6, r7, r8, r9, pc}
        _log.error("failed to read regAddr=%02x stat=%d", regAddr, stat);
   d63d8:	4603      	mov	r3, r0
   d63da:	4906      	ldr	r1, [pc, #24]	; (d63f4 <_ZN6AB180513readRegistersEhPhjb+0x98>)
   d63dc:	4804      	ldr	r0, [pc, #16]	; (d63f0 <_ZN6AB180513readRegistersEhPhjb+0x94>)
   d63de:	464a      	mov	r2, r9
   d63e0:	f7fe f857 	bl	d4492 <_ZNK5spark6Logger5errorEPKcz>
    bool bResult = false;
   d63e4:	2500      	movs	r5, #0
   d63e6:	e7ee      	b.n	d63c6 <_ZN6AB180513readRegistersEhPhjb+0x6a>
            bResult = true;
   d63e8:	2501      	movs	r5, #1
   d63ea:	e7ec      	b.n	d63c6 <_ZN6AB180513readRegistersEhPhjb+0x6a>
   d63ec:	000de1f9 	.word	0x000de1f9
   d63f0:	2003e58c 	.word	0x2003e58c
   d63f4:	000de21e 	.word	0x000de21e

000d63f8 <_ZN6AB180512readRegisterEhRhb>:
bool AB1805::readRegister(uint8_t regAddr, uint8_t &value, bool lock) {
   d63f8:	b507      	push	{r0, r1, r2, lr}
    return readRegisters(regAddr, &value, 1, lock);
   d63fa:	9300      	str	r3, [sp, #0]
   d63fc:	2301      	movs	r3, #1
   d63fe:	f7ff ffad 	bl	d635c <_ZN6AB180513readRegistersEhPhjb>
}
   d6402:	b003      	add	sp, #12
   d6404:	f85d fb04 	ldr.w	pc, [sp], #4

000d6408 <_ZN6AB180510detectChipEv>:
bool AB1805::detectChip() {
   d6408:	b573      	push	{r0, r1, r4, r5, r6, lr}
    if (foutPin != PIN_INVALID) {
   d640a:	8943      	ldrh	r3, [r0, #10]
   d640c:	2bff      	cmp	r3, #255	; 0xff
bool AB1805::detectChip() {
   d640e:	4604      	mov	r4, r0
    if (foutPin != PIN_INVALID) {
   d6410:	d010      	beq.n	d6434 <_ZN6AB180510detectChipEv+0x2c>
                _log.info("FOUT did not go HIGH");
   d6412:	4e19      	ldr	r6, [pc, #100]	; (d6478 <_ZN6AB180510detectChipEv+0x70>)
   d6414:	4d19      	ldr	r5, [pc, #100]	; (d647c <_ZN6AB180510detectChipEv+0x74>)
   d6416:	f001 fa1d 	bl	d7854 <HAL_Timer_Get_Milli_Seconds>
        while(millis() - start < 1000) {
   d641a:	f5b0 7f7a 	cmp.w	r0, #1000	; 0x3e8
   d641e:	d209      	bcs.n	d6434 <_ZN6AB180510detectChipEv+0x2c>
            if (digitalRead(foutPin) == HIGH) {
   d6420:	8960      	ldrh	r0, [r4, #10]
   d6422:	f004 fdab 	bl	daf7c <digitalRead>
   d6426:	2801      	cmp	r0, #1
   d6428:	d004      	beq.n	d6434 <_ZN6AB180510detectChipEv+0x2c>
                _log.info("FOUT did not go HIGH");
   d642a:	4631      	mov	r1, r6
   d642c:	4628      	mov	r0, r5
   d642e:	f7fe f819 	bl	d4464 <_ZNK5spark6Logger4infoEPKcz>
   d6432:	e7f0      	b.n	d6416 <_ZN6AB180510detectChipEv+0xe>
    bResult = readRegister(REG_ID0, value);
   d6434:	2301      	movs	r3, #1
   d6436:	f10d 0207 	add.w	r2, sp, #7
   d643a:	2128      	movs	r1, #40	; 0x28
   d643c:	4620      	mov	r0, r4
   d643e:	f7ff ffdb 	bl	d63f8 <_ZN6AB180512readRegisterEhRhb>
    if (bResult && value == REG_ID0_AB18XX) {
   d6442:	b930      	cbnz	r0, d6452 <_ZN6AB180510detectChipEv+0x4a>
        _log.info("not detected");
   d6444:	480d      	ldr	r0, [pc, #52]	; (d647c <_ZN6AB180510detectChipEv+0x74>)
   d6446:	490e      	ldr	r1, [pc, #56]	; (d6480 <_ZN6AB180510detectChipEv+0x78>)
   d6448:	f7fe f80c 	bl	d4464 <_ZNK5spark6Logger4infoEPKcz>
   d644c:	2000      	movs	r0, #0
}
   d644e:	b002      	add	sp, #8
   d6450:	bd70      	pop	{r4, r5, r6, pc}
    if (bResult && value == REG_ID0_AB18XX) {
   d6452:	f89d 3007 	ldrb.w	r3, [sp, #7]
   d6456:	2b18      	cmp	r3, #24
   d6458:	d1f4      	bne.n	d6444 <_ZN6AB180510detectChipEv+0x3c>
        bResult = readRegister(REG_ID1, value);
   d645a:	2301      	movs	r3, #1
   d645c:	f10d 0207 	add.w	r2, sp, #7
   d6460:	2129      	movs	r1, #41	; 0x29
   d6462:	4620      	mov	r0, r4
   d6464:	f7ff ffc8 	bl	d63f8 <_ZN6AB180512readRegisterEhRhb>
        if (bResult && value == REG_ID1_ABXX05) {
   d6468:	2800      	cmp	r0, #0
   d646a:	d0eb      	beq.n	d6444 <_ZN6AB180510detectChipEv+0x3c>
   d646c:	f89d 3007 	ldrb.w	r3, [sp, #7]
   d6470:	2b05      	cmp	r3, #5
   d6472:	d1e7      	bne.n	d6444 <_ZN6AB180510detectChipEv+0x3c>
   d6474:	e7eb      	b.n	d644e <_ZN6AB180510detectChipEv+0x46>
   d6476:	bf00      	nop
   d6478:	000de242 	.word	0x000de242
   d647c:	2003e58c 	.word	0x2003e58c
   d6480:	000de257 	.word	0x000de257

000d6484 <_ZN6AB180512readRegisterEhb>:


uint8_t AB1805::readRegister(uint8_t regAddr, bool lock) {
   d6484:	b507      	push	{r0, r1, r2, lr}
   d6486:	4613      	mov	r3, r2
    uint8_t value = 0;
   d6488:	2200      	movs	r2, #0
   d648a:	f88d 2007 	strb.w	r2, [sp, #7]

    (void) readRegister(regAddr, value, lock);
   d648e:	f10d 0207 	add.w	r2, sp, #7
   d6492:	f7ff ffb1 	bl	d63f8 <_ZN6AB180512readRegisterEhRhb>
    
    return value;
}
   d6496:	f89d 0007 	ldrb.w	r0, [sp, #7]
   d649a:	b003      	add	sp, #12
   d649c:	f85d fb04 	ldr.w	pc, [sp], #4

000d64a0 <_ZN6AB180514writeRegistersEhPKhjb>:
bool AB1805::writeRegister(uint8_t regAddr, uint8_t value, bool lock) {
    return writeRegisters(regAddr, &value, 1, lock);
}


bool AB1805::writeRegisters(uint8_t regAddr, const uint8_t *array, size_t num, bool lock) {
   d64a0:	e92d 41f0 	stmdb	sp!, {r4, r5, r6, r7, r8, lr}
   d64a4:	f89d 8018 	ldrb.w	r8, [sp, #24]
   d64a8:	4604      	mov	r4, r0
   d64aa:	460f      	mov	r7, r1
   d64ac:	4615      	mov	r5, r2
   d64ae:	461e      	mov	r6, r3
    bool bResult = false;

    if (lock) {
   d64b0:	f1b8 0f00 	cmp.w	r8, #0
   d64b4:	d002      	beq.n	d64bc <_ZN6AB180514writeRegistersEhPKhjb+0x1c>
        wire.lock();
   d64b6:	6840      	ldr	r0, [r0, #4]
   d64b8:	f002 fb30 	bl	d8b1c <_ZN7TwoWire4lockEv>
    }

    wire.beginTransmission(i2cAddr);
   d64bc:	7a21      	ldrb	r1, [r4, #8]
   d64be:	6860      	ldr	r0, [r4, #4]
   d64c0:	f002 fb09 	bl	d8ad6 <_ZN7TwoWire17beginTransmissionEh>
    wire.write(regAddr);
   d64c4:	6860      	ldr	r0, [r4, #4]
   d64c6:	6803      	ldr	r3, [r0, #0]
   d64c8:	4639      	mov	r1, r7
   d64ca:	689b      	ldr	r3, [r3, #8]
   d64cc:	4798      	blx	r3
    for(size_t ii = 0; ii < num; ii++) {
   d64ce:	442e      	add	r6, r5
   d64d0:	42b5      	cmp	r5, r6
   d64d2:	6860      	ldr	r0, [r4, #4]
   d64d4:	d005      	beq.n	d64e2 <_ZN6AB180514writeRegistersEhPKhjb+0x42>
        wire.write(array[ii]);
   d64d6:	6803      	ldr	r3, [r0, #0]
   d64d8:	f815 1b01 	ldrb.w	r1, [r5], #1
   d64dc:	689b      	ldr	r3, [r3, #8]
   d64de:	4798      	blx	r3
    for(size_t ii = 0; ii < num; ii++) {
   d64e0:	e7f6      	b.n	d64d0 <_ZN6AB180514writeRegistersEhPKhjb+0x30>
    }
    int stat = wire.endTransmission(true);
   d64e2:	2101      	movs	r1, #1
   d64e4:	f002 fb16 	bl	d8b14 <_ZN7TwoWire15endTransmissionEh>
    if (stat == 0) {
   d64e8:	4603      	mov	r3, r0
   d64ea:	b170      	cbz	r0, d650a <_ZN6AB180514writeRegistersEhPKhjb+0x6a>
        // _log.dump(array, num);
        // _log.print("\n");
        bResult = true;
    }
    else {
        _log.error("failed to write regAddr=%02x stat=%d", regAddr, stat);
   d64ec:	4908      	ldr	r1, [pc, #32]	; (d6510 <_ZN6AB180514writeRegistersEhPKhjb+0x70>)
   d64ee:	4809      	ldr	r0, [pc, #36]	; (d6514 <_ZN6AB180514writeRegistersEhPKhjb+0x74>)
   d64f0:	463a      	mov	r2, r7
   d64f2:	f7fd ffce 	bl	d4492 <_ZNK5spark6Logger5errorEPKcz>
    bool bResult = false;
   d64f6:	2500      	movs	r5, #0
    }

    if (lock) {
   d64f8:	f1b8 0f00 	cmp.w	r8, #0
   d64fc:	d002      	beq.n	d6504 <_ZN6AB180514writeRegistersEhPKhjb+0x64>
        wire.unlock();
   d64fe:	6860      	ldr	r0, [r4, #4]
   d6500:	f002 fb15 	bl	d8b2e <_ZN7TwoWire6unlockEv>
    }
    return bResult;
}
   d6504:	4628      	mov	r0, r5
   d6506:	e8bd 81f0 	ldmia.w	sp!, {r4, r5, r6, r7, r8, pc}
        bResult = true;
   d650a:	2501      	movs	r5, #1
   d650c:	e7f4      	b.n	d64f8 <_ZN6AB180514writeRegistersEhPKhjb+0x58>
   d650e:	bf00      	nop
   d6510:	000de264 	.word	0x000de264
   d6514:	2003e58c 	.word	0x2003e58c

000d6518 <_ZN6AB180513writeRegisterEhhb>:
bool AB1805::writeRegister(uint8_t regAddr, uint8_t value, bool lock) {
   d6518:	b51f      	push	{r0, r1, r2, r3, r4, lr}
   d651a:	f88d 200f 	strb.w	r2, [sp, #15]
    return writeRegisters(regAddr, &value, 1, lock);
   d651e:	9300      	str	r3, [sp, #0]
   d6520:	f10d 020f 	add.w	r2, sp, #15
   d6524:	2301      	movs	r3, #1
   d6526:	f7ff ffbb 	bl	d64a0 <_ZN6AB180514writeRegistersEhPKhjb>
}
   d652a:	b005      	add	sp, #20
   d652c:	f85d fb04 	ldr.w	pc, [sp], #4

000d6530 <_ZN6AB18056setWDTEi>:
bool AB1805::setWDT(int seconds) {
   d6530:	b5f8      	push	{r3, r4, r5, r6, r7, lr}
    _log.info("setWDT %d", seconds);
   d6532:	460a      	mov	r2, r1
bool AB1805::setWDT(int seconds) {
   d6534:	460c      	mov	r4, r1
   d6536:	4605      	mov	r5, r0
    _log.info("setWDT %d", seconds);
   d6538:	491a      	ldr	r1, [pc, #104]	; (d65a4 <_ZN6AB18056setWDTEi+0x74>)
   d653a:	481b      	ldr	r0, [pc, #108]	; (d65a8 <_ZN6AB18056setWDTEi+0x78>)
   d653c:	f7fd ff92 	bl	d4464 <_ZNK5spark6Logger4infoEPKcz>
    if (seconds < 0) {
   d6540:	2c00      	cmp	r4, #0
        seconds = watchdogSecs;
   d6542:	bfb8      	it	lt
   d6544:	68ec      	ldrlt	r4, [r5, #12]
    if (seconds == 0) {
   d6546:	b97c      	cbnz	r4, d6568 <_ZN6AB18056setWDTEi+0x38>
        bResult = writeRegister(REG_WDT, 0x00);
   d6548:	2301      	movs	r3, #1
   d654a:	4622      	mov	r2, r4
   d654c:	211b      	movs	r1, #27
   d654e:	4628      	mov	r0, r5
   d6550:	f7ff ffe2 	bl	d6518 <_ZN6AB180513writeRegisterEhhb>
        _log.trace("watchdog cleared bResult=%d", bResult);
   d6554:	4915      	ldr	r1, [pc, #84]	; (d65ac <_ZN6AB18056setWDTEi+0x7c>)
   d6556:	4602      	mov	r2, r0
        bResult = writeRegister(REG_WDT, 0x00);
   d6558:	4606      	mov	r6, r0
        _log.trace("watchdog cleared bResult=%d", bResult);
   d655a:	4813      	ldr	r0, [pc, #76]	; (d65a8 <_ZN6AB18056setWDTEi+0x78>)
   d655c:	f7ff fed2 	bl	d6304 <_ZNK5spark6Logger5traceEPKcz>
        watchdogSecs = 0;
   d6560:	60ec      	str	r4, [r5, #12]
        watchdogUpdatePeriod = 0;
   d6562:	616c      	str	r4, [r5, #20]
}
   d6564:	4630      	mov	r0, r6
   d6566:	bdf8      	pop	{r3, r4, r5, r6, r7, pc}
        if (fourSecs < 1) {
   d6568:	2c03      	cmp	r4, #3
   d656a:	dd19      	ble.n	d65a0 <_ZN6AB18056setWDTEi+0x70>
        int fourSecs = seconds / 4;
   d656c:	10a7      	asrs	r7, r4, #2
   d656e:	2f1f      	cmp	r7, #31
   d6570:	bfa8      	it	ge
   d6572:	271f      	movge	r7, #31
        bResult = writeRegister(REG_WDT, REG_WDT_RESET | (fourSecs << 2) | REG_WDT_WRB_1_4_HZ);
   d6574:	00ba      	lsls	r2, r7, #2
   d6576:	f062 027c 	orn	r2, r2, #124	; 0x7c
   d657a:	2301      	movs	r3, #1
   d657c:	b2d2      	uxtb	r2, r2
   d657e:	211b      	movs	r1, #27
   d6580:	4628      	mov	r0, r5
   d6582:	f7ff ffc9 	bl	d6518 <_ZN6AB180513writeRegisterEhhb>
        _log.trace("watchdog set fourSecs=%d bResult=%d", fourSecs, bResult);
   d6586:	463a      	mov	r2, r7
   d6588:	4603      	mov	r3, r0
   d658a:	4909      	ldr	r1, [pc, #36]	; (d65b0 <_ZN6AB18056setWDTEi+0x80>)
        bResult = writeRegister(REG_WDT, REG_WDT_RESET | (fourSecs << 2) | REG_WDT_WRB_1_4_HZ);
   d658c:	4606      	mov	r6, r0
        _log.trace("watchdog set fourSecs=%d bResult=%d", fourSecs, bResult);
   d658e:	4806      	ldr	r0, [pc, #24]	; (d65a8 <_ZN6AB18056setWDTEi+0x78>)
   d6590:	f7ff feb8 	bl	d6304 <_ZNK5spark6Logger5traceEPKcz>
        watchdogUpdatePeriod = (fourSecs * 2000);
   d6594:	f44f 63fa 	mov.w	r3, #2000	; 0x7d0
   d6598:	435f      	muls	r7, r3
        watchdogSecs = seconds;
   d659a:	60ec      	str	r4, [r5, #12]
        watchdogUpdatePeriod = (fourSecs * 2000);
   d659c:	616f      	str	r7, [r5, #20]
   d659e:	e7e1      	b.n	d6564 <_ZN6AB18056setWDTEi+0x34>
            fourSecs = 1;
   d65a0:	2701      	movs	r7, #1
   d65a2:	e7e7      	b.n	d6574 <_ZN6AB18056setWDTEi+0x44>
   d65a4:	000de289 	.word	0x000de289
   d65a8:	2003e58c 	.word	0x2003e58c
   d65ac:	000de293 	.word	0x000de293
   d65b0:	000de2af 	.word	0x000de2af

000d65b4 <_ZN6AB180517systemEventStaticEyi>:
        }
    }
}

// [static] 
void AB1805::systemEventStatic(system_event_t event, int param) {
   d65b4:	460b      	mov	r3, r1
    if (instance) {
   d65b6:	4907      	ldr	r1, [pc, #28]	; (d65d4 <_ZN6AB180517systemEventStaticEyi+0x20>)
void AB1805::systemEventStatic(system_event_t event, int param) {
   d65b8:	4602      	mov	r2, r0
    if (instance) {
   d65ba:	6808      	ldr	r0, [r1, #0]
   d65bc:	b148      	cbz	r0, d65d2 <_ZN6AB180517systemEventStaticEyi+0x1e>
    if (event == reset) {
   d65be:	2b00      	cmp	r3, #0
   d65c0:	bf08      	it	eq
   d65c2:	f5b2 6f00 	cmpeq.w	r2, #2048	; 0x800
   d65c6:	d104      	bne.n	d65d2 <_ZN6AB180517systemEventStaticEyi+0x1e>
        if (watchdogSecs != 0) {
   d65c8:	68c3      	ldr	r3, [r0, #12]
   d65ca:	b113      	cbz	r3, d65d2 <_ZN6AB180517systemEventStaticEyi+0x1e>
            setWDT(0);
   d65cc:	2100      	movs	r1, #0
   d65ce:	f7ff bfaf 	b.w	d6530 <_ZN6AB18056setWDTEi>
        instance->systemEvent(event, param);
    }
}
   d65d2:	4770      	bx	lr
   d65d4:	2003e590 	.word	0x2003e590

000d65d8 <_ZN6AB180512maskRegisterEhhhb>:
bool AB1805::maskRegister(uint8_t regAddr, uint8_t andValue, uint8_t orValue, bool lock) {
   d65d8:	e92d 41ff 	stmdb	sp!, {r0, r1, r2, r3, r4, r5, r6, r7, r8, lr}
   d65dc:	f89d 8028 	ldrb.w	r8, [sp, #40]	; 0x28
   d65e0:	4605      	mov	r5, r0
   d65e2:	4616      	mov	r6, r2
   d65e4:	461f      	mov	r7, r3
    if (lock) {
   d65e6:	f1b8 0f00 	cmp.w	r8, #0
   d65ea:	d004      	beq.n	d65f6 <_ZN6AB180512maskRegisterEhhhb+0x1e>
        wire.lock();
   d65ec:	6840      	ldr	r0, [r0, #4]
   d65ee:	9101      	str	r1, [sp, #4]
   d65f0:	f002 fa94 	bl	d8b1c <_ZN7TwoWire4lockEv>
   d65f4:	9901      	ldr	r1, [sp, #4]
    bResult = readRegister(regAddr, value, false);
   d65f6:	9101      	str	r1, [sp, #4]
   d65f8:	2300      	movs	r3, #0
   d65fa:	f10d 020f 	add.w	r2, sp, #15
   d65fe:	4628      	mov	r0, r5
   d6600:	f7ff fefa 	bl	d63f8 <_ZN6AB180512readRegisterEhRhb>
    if (bResult) {
   d6604:	4604      	mov	r4, r0
   d6606:	b160      	cbz	r0, d6622 <_ZN6AB180512maskRegisterEhhhb+0x4a>
        uint8_t newValue = (value & andValue) | orValue;
   d6608:	f89d 300f 	ldrb.w	r3, [sp, #15]
   d660c:	ea03 0206 	and.w	r2, r3, r6
   d6610:	433a      	orrs	r2, r7
        if (newValue != value) {
   d6612:	4293      	cmp	r3, r2
   d6614:	d005      	beq.n	d6622 <_ZN6AB180512maskRegisterEhhhb+0x4a>
            bResult = writeRegister(regAddr, newValue, false);
   d6616:	9901      	ldr	r1, [sp, #4]
   d6618:	2300      	movs	r3, #0
   d661a:	4628      	mov	r0, r5
   d661c:	f7ff ff7c 	bl	d6518 <_ZN6AB180513writeRegisterEhhb>
   d6620:	4604      	mov	r4, r0
    if (lock) {
   d6622:	f1b8 0f00 	cmp.w	r8, #0
   d6626:	d002      	beq.n	d662e <_ZN6AB180512maskRegisterEhhhb+0x56>
        wire.unlock();
   d6628:	6868      	ldr	r0, [r5, #4]
   d662a:	f002 fa80 	bl	d8b2e <_ZN7TwoWire6unlockEv>
}
   d662e:	4620      	mov	r0, r4
   d6630:	b004      	add	sp, #16
   d6632:	e8bd 81f0 	ldmia.w	sp!, {r4, r5, r6, r7, r8, pc}

000d6636 <_ZN6AB180510isBitClearEhhb>:
bool AB1805::isBitClear(uint8_t regAddr, uint8_t bitMask, bool lock) {
   d6636:	b513      	push	{r0, r1, r4, lr}
   d6638:	4614      	mov	r4, r2
    bResult = readRegister(regAddr, value, lock);
   d663a:	f10d 0207 	add.w	r2, sp, #7
   d663e:	f7ff fedb 	bl	d63f8 <_ZN6AB180512readRegisterEhRhb>
    return bResult && ((value & bitMask) == 0);
   d6642:	b128      	cbz	r0, d6650 <_ZN6AB180510isBitClearEhhb+0x1a>
   d6644:	f89d 3007 	ldrb.w	r3, [sp, #7]
   d6648:	421c      	tst	r4, r3
   d664a:	bf0c      	ite	eq
   d664c:	2001      	moveq	r0, #1
   d664e:	2000      	movne	r0, #0
}
   d6650:	b002      	add	sp, #8
   d6652:	bd10      	pop	{r4, pc}

000d6654 <_ZN6AB18058isBitSetEhhb>:
bool AB1805::isBitSet(uint8_t regAddr, uint8_t bitMask, bool lock) {
   d6654:	b513      	push	{r0, r1, r4, lr}
   d6656:	4614      	mov	r4, r2
    bResult = readRegister(regAddr, value, lock);
   d6658:	f10d 0207 	add.w	r2, sp, #7
   d665c:	f7ff fecc 	bl	d63f8 <_ZN6AB180512readRegisterEhRhb>
    return bResult && ((value & bitMask) != 0);
   d6660:	b128      	cbz	r0, d666e <_ZN6AB18058isBitSetEhhb+0x1a>
   d6662:	f89d 3007 	ldrb.w	r3, [sp, #7]
   d6666:	421c      	tst	r4, r3
   d6668:	bf14      	ite	ne
   d666a:	2001      	movne	r0, #1
   d666c:	2000      	moveq	r0, #0
}
   d666e:	b002      	add	sp, #8
   d6670:	bd10      	pop	{r4, pc}

000d6672 <_ZN6AB180516clearRegisterBitEhhb>:
bool AB1805::clearRegisterBit(uint8_t regAddr, uint8_t bitMask, bool lock) {
   d6672:	b507      	push	{r0, r1, r2, lr}
    return maskRegister(regAddr, ~bitMask, 0x00, lock);
   d6674:	43d2      	mvns	r2, r2
   d6676:	9300      	str	r3, [sp, #0]
   d6678:	b2d2      	uxtb	r2, r2
   d667a:	2300      	movs	r3, #0
   d667c:	f7ff ffac 	bl	d65d8 <_ZN6AB180512maskRegisterEhhhb>
}
   d6680:	b003      	add	sp, #12
   d6682:	f85d fb04 	ldr.w	pc, [sp], #4
	...

000d6688 <_ZN6AB180516updateWakeReasonEv>:
bool AB1805::updateWakeReason() {
   d6688:	b537      	push	{r0, r1, r2, r4, r5, lr}
    bool bResult = readRegister(REG_STATUS, status);
   d668a:	2301      	movs	r3, #1
   d668c:	f10d 0207 	add.w	r2, sp, #7
   d6690:	210f      	movs	r1, #15
bool AB1805::updateWakeReason() {
   d6692:	4604      	mov	r4, r0
    bool bResult = readRegister(REG_STATUS, status);
   d6694:	f7ff feb0 	bl	d63f8 <_ZN6AB180512readRegisterEhRhb>
    if (!bResult) {
   d6698:	4605      	mov	r5, r0
   d669a:	b938      	cbnz	r0, d66ac <_ZN6AB180516updateWakeReasonEv+0x24>
        _log.error(errorMsg, __LINE__);
   d669c:	491e      	ldr	r1, [pc, #120]	; (d6718 <_ZN6AB180516updateWakeReasonEv+0x90>)
   d669e:	481f      	ldr	r0, [pc, #124]	; (d671c <_ZN6AB180516updateWakeReasonEv+0x94>)
   d66a0:	22ad      	movs	r2, #173	; 0xad
   d66a2:	f7fd fef6 	bl	d4492 <_ZNK5spark6Logger5errorEPKcz>
}
   d66a6:	4628      	mov	r0, r5
   d66a8:	b003      	add	sp, #12
   d66aa:	bd30      	pop	{r4, r5, pc}
    if ((status & REG_STATUS_WDT) != 0) {
   d66ac:	f89d 3007 	ldrb.w	r3, [sp, #7]
   d66b0:	f013 0f20 	tst.w	r3, #32
        wakeReason = WakeReason::WATCHDOG;
   d66b4:	f04f 0301 	mov.w	r3, #1
    if ((status & REG_STATUS_WDT) != 0) {
   d66b8:	d00b      	beq.n	d66d2 <_ZN6AB180516updateWakeReasonEv+0x4a>
        clearRegisterBit(REG_STATUS, REG_STATUS_WDT);
   d66ba:	2220      	movs	r2, #32
        wakeReason = WakeReason::WATCHDOG;
   d66bc:	61e3      	str	r3, [r4, #28]
        clearRegisterBit(REG_STATUS, REG_STATUS_WDT);
   d66be:	210f      	movs	r1, #15
   d66c0:	4620      	mov	r0, r4
   d66c2:	f7ff ffd6 	bl	d6672 <_ZN6AB180516clearRegisterBitEhhb>
        reason = "WATCHDOG";
   d66c6:	4a16      	ldr	r2, [pc, #88]	; (d6720 <_ZN6AB180516updateWakeReasonEv+0x98>)
        _log.info("wake reason = %s", reason);
   d66c8:	4916      	ldr	r1, [pc, #88]	; (d6724 <_ZN6AB180516updateWakeReasonEv+0x9c>)
   d66ca:	4814      	ldr	r0, [pc, #80]	; (d671c <_ZN6AB180516updateWakeReasonEv+0x94>)
   d66cc:	f7fd feca 	bl	d4464 <_ZNK5spark6Logger4infoEPKcz>
   d66d0:	e7e9      	b.n	d66a6 <_ZN6AB180516updateWakeReasonEv+0x1e>
    else if (isBitSet(REG_SLEEP_CTRL, REG_SLEEP_CTRL_SLST)) {
   d66d2:	2208      	movs	r2, #8
   d66d4:	2117      	movs	r1, #23
   d66d6:	4620      	mov	r0, r4
   d66d8:	f7ff ffbc 	bl	d6654 <_ZN6AB18058isBitSetEhhb>
   d66dc:	b118      	cbz	r0, d66e6 <_ZN6AB180516updateWakeReasonEv+0x5e>
        wakeReason = WakeReason::DEEP_POWER_DOWN;
   d66de:	2302      	movs	r3, #2
        reason = "DEEP_POWER_DOWN";
   d66e0:	4a11      	ldr	r2, [pc, #68]	; (d6728 <_ZN6AB180516updateWakeReasonEv+0xa0>)
        wakeReason = WakeReason::DEEP_POWER_DOWN;
   d66e2:	61e3      	str	r3, [r4, #28]
   d66e4:	e7f0      	b.n	d66c8 <_ZN6AB180516updateWakeReasonEv+0x40>
    else if ((status & REG_STATUS_TIM) != 0) {
   d66e6:	f89d 3007 	ldrb.w	r3, [sp, #7]
   d66ea:	071a      	lsls	r2, r3, #28
   d66ec:	d509      	bpl.n	d6702 <_ZN6AB180516updateWakeReasonEv+0x7a>
        wakeReason = WakeReason::COUNTDOWN_TIMER;
   d66ee:	2303      	movs	r3, #3
   d66f0:	61e3      	str	r3, [r4, #28]
        clearRegisterBit(REG_STATUS, REG_STATUS_TIM);            
   d66f2:	2208      	movs	r2, #8
   d66f4:	2301      	movs	r3, #1
   d66f6:	210f      	movs	r1, #15
   d66f8:	4620      	mov	r0, r4
   d66fa:	f7ff ffba 	bl	d6672 <_ZN6AB180516clearRegisterBitEhhb>
        reason = "COUNTDOWN_TIMER";
   d66fe:	4a0b      	ldr	r2, [pc, #44]	; (d672c <_ZN6AB180516updateWakeReasonEv+0xa4>)
   d6700:	e7e2      	b.n	d66c8 <_ZN6AB180516updateWakeReasonEv+0x40>
    else if ((status & REG_STATUS_ALM) != 0) {
   d6702:	075b      	lsls	r3, r3, #29
   d6704:	d5cf      	bpl.n	d66a6 <_ZN6AB180516updateWakeReasonEv+0x1e>
        wakeReason = WakeReason::ALARM;
   d6706:	2204      	movs	r2, #4
   d6708:	61e2      	str	r2, [r4, #28]
        clearRegisterBit(REG_STATUS, REG_STATUS_ALM);            
   d670a:	2301      	movs	r3, #1
   d670c:	210f      	movs	r1, #15
   d670e:	4620      	mov	r0, r4
   d6710:	f7ff ffaf 	bl	d6672 <_ZN6AB180516clearRegisterBitEhhb>
        reason = "ALARM";
   d6714:	4a06      	ldr	r2, [pc, #24]	; (d6730 <_ZN6AB180516updateWakeReasonEv+0xa8>)
   d6716:	e7d7      	b.n	d66c8 <_ZN6AB180516updateWakeReasonEv+0x40>
   d6718:	000de302 	.word	0x000de302
   d671c:	2003e58c 	.word	0x2003e58c
   d6720:	000de2d3 	.word	0x000de2d3
   d6724:	000de321 	.word	0x000de321
   d6728:	000de2dc 	.word	0x000de2dc
   d672c:	000de2ec 	.word	0x000de2ec
   d6730:	000de2fc 	.word	0x000de2fc

000d6734 <_ZN6AB180514setRegisterBitEhhb>:
bool AB1805::setRegisterBit(uint8_t regAddr, uint8_t bitMask, bool lock) {
   d6734:	b507      	push	{r0, r1, r2, lr}
    return maskRegister(regAddr, 0xff, bitMask, lock);
   d6736:	9300      	str	r3, [sp, #0]
   d6738:	4613      	mov	r3, r2
   d673a:	22ff      	movs	r2, #255	; 0xff
   d673c:	f7ff ff4c 	bl	d65d8 <_ZN6AB180512maskRegisterEhhhb>
}
   d6740:	b003      	add	sp, #12
   d6742:	f85d fb04 	ldr.w	pc, [sp], #4
	...

000d6748 <_ZN6AB180517setCountdownTimerEib>:
bool AB1805::setCountdownTimer(int value, bool minutes) {
   d6748:	b5f8      	push	{r3, r4, r5, r6, r7, lr}
   d674a:	460f      	mov	r7, r1
   d674c:	4616      	mov	r6, r2
    bResult = writeRegister(REG_STATUS, REG_STATUS_DEFAULT);
   d674e:	2301      	movs	r3, #1
   d6750:	2200      	movs	r2, #0
   d6752:	210f      	movs	r1, #15
bool AB1805::setCountdownTimer(int value, bool minutes) {
   d6754:	4605      	mov	r5, r0
    bResult = writeRegister(REG_STATUS, REG_STATUS_DEFAULT);
   d6756:	f7ff fedf 	bl	d6518 <_ZN6AB180513writeRegisterEhhb>
    if (!bResult) {
   d675a:	4604      	mov	r4, r0
   d675c:	b938      	cbnz	r0, d676e <_ZN6AB180517setCountdownTimerEib+0x26>
        _log.error(errorMsg, __LINE__);
   d675e:	f44f 7225 	mov.w	r2, #660	; 0x294
        _log.error(errorMsg, __LINE__);
   d6762:	491e      	ldr	r1, [pc, #120]	; (d67dc <_ZN6AB180517setCountdownTimerEib+0x94>)
   d6764:	481e      	ldr	r0, [pc, #120]	; (d67e0 <_ZN6AB180517setCountdownTimerEib+0x98>)
   d6766:	f7fd fe94 	bl	d4492 <_ZNK5spark6Logger5errorEPKcz>
}
   d676a:	4620      	mov	r0, r4
   d676c:	bdf8      	pop	{r3, r4, r5, r6, r7, pc}
    bResult = writeRegister(REG_TIMER_CTRL, REG_TIMER_CTRL_DEFAULT);
   d676e:	2301      	movs	r3, #1
   d6770:	2223      	movs	r2, #35	; 0x23
   d6772:	2118      	movs	r1, #24
   d6774:	4628      	mov	r0, r5
   d6776:	f7ff fecf 	bl	d6518 <_ZN6AB180513writeRegisterEhhb>
    if (!bResult) {
   d677a:	4604      	mov	r4, r0
   d677c:	b910      	cbnz	r0, d6784 <_ZN6AB180517setCountdownTimerEib+0x3c>
        _log.error(errorMsg, __LINE__);
   d677e:	f240 229b 	movw	r2, #667	; 0x29b
   d6782:	e7ee      	b.n	d6762 <_ZN6AB180517setCountdownTimerEib+0x1a>
    bResult = writeRegister(REG_TIMER, (uint8_t)value);
   d6784:	2fff      	cmp	r7, #255	; 0xff
   d6786:	bfa8      	it	ge
   d6788:	27ff      	movge	r7, #255	; 0xff
   d678a:	2f01      	cmp	r7, #1
   d678c:	bfb8      	it	lt
   d678e:	2701      	movlt	r7, #1
   d6790:	2301      	movs	r3, #1
   d6792:	b2fa      	uxtb	r2, r7
   d6794:	2119      	movs	r1, #25
   d6796:	4628      	mov	r0, r5
   d6798:	f7ff febe 	bl	d6518 <_ZN6AB180513writeRegisterEhhb>
    if (!bResult) {
   d679c:	4604      	mov	r4, r0
   d679e:	b910      	cbnz	r0, d67a6 <_ZN6AB180517setCountdownTimerEib+0x5e>
        _log.error(errorMsg, __LINE__);
   d67a0:	f44f 722a 	mov.w	r2, #680	; 0x2a8
   d67a4:	e7dd      	b.n	d6762 <_ZN6AB180517setCountdownTimerEib+0x1a>
    bResult = setRegisterBit(REG_INT_MASK, REG_INT_MASK_TIE);
   d67a6:	2301      	movs	r3, #1
   d67a8:	2208      	movs	r2, #8
   d67aa:	2112      	movs	r1, #18
   d67ac:	4628      	mov	r0, r5
   d67ae:	f7ff ffc1 	bl	d6734 <_ZN6AB180514setRegisterBitEhhb>
    if (!bResult) {
   d67b2:	4604      	mov	r4, r0
   d67b4:	b910      	cbnz	r0, d67bc <_ZN6AB180517setCountdownTimerEib+0x74>
        _log.error(errorMsg, __LINE__);
   d67b6:	f240 22af 	movw	r2, #687	; 0x2af
   d67ba:	e7d2      	b.n	d6762 <_ZN6AB180517setCountdownTimerEib+0x1a>
    uint8_t tfs = (minutes ? REG_TIMER_CTRL_TFS_1_60 : REG_TIMER_CTRL_TFS_1);
   d67bc:	2e00      	cmp	r6, #0
    bResult = writeRegister(REG_TIMER_CTRL, REG_TIMER_CTRL_TE | tfs);
   d67be:	f04f 0301 	mov.w	r3, #1
   d67c2:	bf14      	ite	ne
   d67c4:	2283      	movne	r2, #131	; 0x83
   d67c6:	2282      	moveq	r2, #130	; 0x82
   d67c8:	2118      	movs	r1, #24
   d67ca:	4628      	mov	r0, r5
   d67cc:	f7ff fea4 	bl	d6518 <_ZN6AB180513writeRegisterEhhb>
    if (!bResult) {
   d67d0:	4604      	mov	r4, r0
   d67d2:	2800      	cmp	r0, #0
   d67d4:	d1c9      	bne.n	d676a <_ZN6AB180517setCountdownTimerEib+0x22>
        _log.error(errorMsg, __LINE__);
   d67d6:	f240 22b9 	movw	r2, #697	; 0x2b9
   d67da:	e7c2      	b.n	d6762 <_ZN6AB180517setCountdownTimerEib+0x1a>
   d67dc:	000de332 	.word	0x000de332
   d67e0:	2003e58c 	.word	0x2003e58c

000d67e4 <_ZN6AB180513deepPowerDownEi>:
bool AB1805::deepPowerDown(int seconds) {
   d67e4:	e92d 43f7 	stmdb	sp!, {r0, r1, r2, r4, r5, r6, r7, r8, r9, lr}
    _log.info("deepPowerDown %d", seconds);
   d67e8:	460a      	mov	r2, r1
bool AB1805::deepPowerDown(int seconds) {
   d67ea:	4605      	mov	r5, r0
   d67ec:	460f      	mov	r7, r1
    _log.info("deepPowerDown %d", seconds);
   d67ee:	484f      	ldr	r0, [pc, #316]	; (d692c <_ZN6AB180513deepPowerDownEi+0x148>)
   d67f0:	494f      	ldr	r1, [pc, #316]	; (d6930 <_ZN6AB180513deepPowerDownEi+0x14c>)
   d67f2:	f7fd fe37 	bl	d4464 <_ZNK5spark6Logger4infoEPKcz>
    bResult = setWDT(0);
   d67f6:	2100      	movs	r1, #0
   d67f8:	4628      	mov	r0, r5
   d67fa:	f7ff fe99 	bl	d6530 <_ZN6AB18056setWDTEi>
    if (!bResult) {
   d67fe:	4604      	mov	r4, r0
   d6800:	b948      	cbnz	r0, d6816 <_ZN6AB180513deepPowerDownEi+0x32>
        _log.error(errorMsg, __LINE__);
   d6802:	f240 12f7 	movw	r2, #503	; 0x1f7
        _log.error(errorMsg, __LINE__);
   d6806:	494b      	ldr	r1, [pc, #300]	; (d6934 <_ZN6AB180513deepPowerDownEi+0x150>)
   d6808:	4848      	ldr	r0, [pc, #288]	; (d692c <_ZN6AB180513deepPowerDownEi+0x148>)
   d680a:	f7fd fe42 	bl	d4492 <_ZNK5spark6Logger5errorEPKcz>
}
   d680e:	4620      	mov	r0, r4
   d6810:	b003      	add	sp, #12
   d6812:	e8bd 83f0 	ldmia.w	sp!, {r4, r5, r6, r7, r8, r9, pc}
    bResult = setRegisterBit(REG_OCTRL, REG_OCTRL_O1EN);
   d6816:	2301      	movs	r3, #1
   d6818:	461a      	mov	r2, r3
   d681a:	2130      	movs	r1, #48	; 0x30
   d681c:	4628      	mov	r0, r5
   d681e:	f7ff ff89 	bl	d6734 <_ZN6AB180514setRegisterBitEhhb>
    if (!bResult) {
   d6822:	4604      	mov	r4, r0
   d6824:	b910      	cbnz	r0, d682c <_ZN6AB180513deepPowerDownEi+0x48>
        _log.error(errorMsg, __LINE__);
   d6826:	f240 2205 	movw	r2, #517	; 0x205
   d682a:	e7ec      	b.n	d6806 <_ZN6AB180513deepPowerDownEi+0x22>
    bResult = clearRegisterBit(REG_CTRL_1, REG_CTRL_1_OUT);
   d682c:	2210      	movs	r2, #16
   d682e:	2301      	movs	r3, #1
   d6830:	4611      	mov	r1, r2
   d6832:	4628      	mov	r0, r5
   d6834:	f7ff ff1d 	bl	d6672 <_ZN6AB180516clearRegisterBitEhhb>
    if (!bResult) {
   d6838:	4604      	mov	r4, r0
   d683a:	b910      	cbnz	r0, d6842 <_ZN6AB180513deepPowerDownEi+0x5e>
        _log.error(errorMsg, __LINE__);
   d683c:	f44f 7203 	mov.w	r2, #524	; 0x20c
   d6840:	e7e1      	b.n	d6806 <_ZN6AB180513deepPowerDownEi+0x22>
    bResult = writeRegister(REG_SQW, REG_SQW_DEFAULT);
   d6842:	2301      	movs	r3, #1
   d6844:	2226      	movs	r2, #38	; 0x26
   d6846:	2113      	movs	r1, #19
   d6848:	4628      	mov	r0, r5
   d684a:	f7ff fe65 	bl	d6518 <_ZN6AB180513writeRegisterEhhb>
    if (!bResult) {
   d684e:	4604      	mov	r4, r0
   d6850:	b910      	cbnz	r0, d6858 <_ZN6AB180513deepPowerDownEi+0x74>
        _log.error(errorMsg, __LINE__);
   d6852:	f240 2213 	movw	r2, #531	; 0x213
   d6856:	e7d6      	b.n	d6806 <_ZN6AB180513deepPowerDownEi+0x22>
    bResult = maskRegister(REG_CTRL_2, ~REG_CTRL_2_OUT1S_MASK, REG_CTRL_2_OUT1S_SQW);
   d6858:	2601      	movs	r6, #1
   d685a:	9600      	str	r6, [sp, #0]
   d685c:	4633      	mov	r3, r6
   d685e:	22fc      	movs	r2, #252	; 0xfc
   d6860:	2111      	movs	r1, #17
   d6862:	4628      	mov	r0, r5
   d6864:	f7ff feb8 	bl	d65d8 <_ZN6AB180512maskRegisterEhhhb>
    if (!bResult) {
   d6868:	4604      	mov	r4, r0
   d686a:	b910      	cbnz	r0, d6872 <_ZN6AB180513deepPowerDownEi+0x8e>
        _log.error(errorMsg, __LINE__);
   d686c:	f240 221b 	movw	r2, #539	; 0x21b
   d6870:	e7c9      	b.n	d6806 <_ZN6AB180513deepPowerDownEi+0x22>
    bResult = setCountdownTimer(seconds, false);
   d6872:	2200      	movs	r2, #0
   d6874:	4639      	mov	r1, r7
   d6876:	4628      	mov	r0, r5
   d6878:	f7ff ff66 	bl	d6748 <_ZN6AB180517setCountdownTimerEib>
    if (!bResult) {
   d687c:	4604      	mov	r4, r0
   d687e:	b910      	cbnz	r0, d6886 <_ZN6AB180513deepPowerDownEi+0xa2>
        _log.error(errorMsg, __LINE__);
   d6880:	f240 2222 	movw	r2, #546	; 0x222
   d6884:	e7bf      	b.n	d6806 <_ZN6AB180513deepPowerDownEi+0x22>
    bResult = maskRegister(REG_CTRL_1, (uint8_t)~(REG_CTRL_1_STOP | REG_CTRL_1_RSP), REG_CTRL_1_PWR2);
   d6886:	9600      	str	r6, [sp, #0]
   d6888:	2302      	movs	r3, #2
   d688a:	2277      	movs	r2, #119	; 0x77
   d688c:	2110      	movs	r1, #16
   d688e:	4628      	mov	r0, r5
   d6890:	f7ff fea2 	bl	d65d8 <_ZN6AB180512maskRegisterEhhhb>
    if (!bResult) {
   d6894:	4604      	mov	r4, r0
   d6896:	b910      	cbnz	r0, d689e <_ZN6AB180513deepPowerDownEi+0xba>
        _log.error(errorMsg, __LINE__);
   d6898:	f240 222b 	movw	r2, #555	; 0x22b
   d689c:	e7b3      	b.n	d6806 <_ZN6AB180513deepPowerDownEi+0x22>
    bResult = setRegisterBit(REG_OSC_CTRL, REG_OSC_CTRL_PWGT);
   d689e:	4633      	mov	r3, r6
   d68a0:	2204      	movs	r2, #4
   d68a2:	211c      	movs	r1, #28
   d68a4:	4628      	mov	r0, r5
   d68a6:	f7ff ff45 	bl	d6734 <_ZN6AB180514setRegisterBitEhhb>
    if (!bResult) {
   d68aa:	4604      	mov	r4, r0
   d68ac:	b910      	cbnz	r0, d68b4 <_ZN6AB180513deepPowerDownEi+0xd0>
        _log.error(errorMsg, __LINE__);
   d68ae:	f240 2232 	movw	r2, #562	; 0x232
   d68b2:	e7a8      	b.n	d6806 <_ZN6AB180513deepPowerDownEi+0x22>
    bResult = maskRegister(REG_CTRL_2, (uint8_t)~REG_CTRL_2_OUT2S_MASK, REG_CTRL_2_OUT2S_SLEEP);
   d68b4:	9600      	str	r6, [sp, #0]
   d68b6:	2318      	movs	r3, #24
   d68b8:	22e3      	movs	r2, #227	; 0xe3
   d68ba:	2111      	movs	r1, #17
   d68bc:	4628      	mov	r0, r5
   d68be:	f7ff fe8b 	bl	d65d8 <_ZN6AB180512maskRegisterEhhhb>
    if (!bResult) {
   d68c2:	4604      	mov	r4, r0
   d68c4:	b910      	cbnz	r0, d68cc <_ZN6AB180513deepPowerDownEi+0xe8>
        _log.error(errorMsg, __LINE__);
   d68c6:	f240 2239 	movw	r2, #569	; 0x239
   d68ca:	e79c      	b.n	d6806 <_ZN6AB180513deepPowerDownEi+0x22>
    bResult = writeRegister(REG_SLEEP_CTRL, REG_SLEEP_CTRL_SLP | REG_SLEEP_CTRL_SLRES);
   d68cc:	4633      	mov	r3, r6
   d68ce:	22c0      	movs	r2, #192	; 0xc0
   d68d0:	2117      	movs	r1, #23
   d68d2:	4628      	mov	r0, r5
   d68d4:	f7ff fe20 	bl	d6518 <_ZN6AB180513writeRegisterEhhb>
    if (!bResult) {
   d68d8:	4604      	mov	r4, r0
   d68da:	b910      	cbnz	r0, d68e2 <_ZN6AB180513deepPowerDownEi+0xfe>
        _log.error(errorMsg, __LINE__);
   d68dc:	f44f 7210 	mov.w	r2, #576	; 0x240
   d68e0:	e791      	b.n	d6806 <_ZN6AB180513deepPowerDownEi+0x22>
   d68e2:	f000 ffb7 	bl	d7854 <HAL_Timer_Get_Milli_Seconds>
        _log.info("REG_SLEEP_CTRL=0x%2x", readRegister(REG_SLEEP_CTRL));
   d68e6:	f8df 9054 	ldr.w	r9, [pc, #84]	; d693c <_ZN6AB180513deepPowerDownEi+0x158>
   d68ea:	f8df 8040 	ldr.w	r8, [pc, #64]	; d692c <_ZN6AB180513deepPowerDownEi+0x148>
    while(millis() - start < (unsigned long) (seconds * 1000)) {
   d68ee:	f44f 717a 	mov.w	r1, #1000	; 0x3e8
   d68f2:	4606      	mov	r6, r0
   d68f4:	434f      	muls	r7, r1
   d68f6:	f000 ffad 	bl	d7854 <HAL_Timer_Get_Milli_Seconds>
   d68fa:	1b80      	subs	r0, r0, r6
   d68fc:	42b8      	cmp	r0, r7
   d68fe:	d20e      	bcs.n	d691e <_ZN6AB180513deepPowerDownEi+0x13a>
        _log.info("REG_SLEEP_CTRL=0x%2x", readRegister(REG_SLEEP_CTRL));
   d6900:	2201      	movs	r2, #1
   d6902:	2117      	movs	r1, #23
   d6904:	4628      	mov	r0, r5
   d6906:	f7ff fdbd 	bl	d6484 <_ZN6AB180512readRegisterEhb>
   d690a:	4649      	mov	r1, r9
   d690c:	4602      	mov	r2, r0
   d690e:	4640      	mov	r0, r8
   d6910:	f7fd fda8 	bl	d4464 <_ZNK5spark6Logger4infoEPKcz>
        delay(1000);
   d6914:	f44f 707a 	mov.w	r0, #1000	; 0x3e8
   d6918:	f001 fb04 	bl	d7f24 <delay>
    while(millis() - start < (unsigned long) (seconds * 1000)) {
   d691c:	e7eb      	b.n	d68f6 <_ZN6AB180513deepPowerDownEi+0x112>
    _log.error("didn't power down");
   d691e:	4906      	ldr	r1, [pc, #24]	; (d6938 <_ZN6AB180513deepPowerDownEi+0x154>)
   d6920:	4802      	ldr	r0, [pc, #8]	; (d692c <_ZN6AB180513deepPowerDownEi+0x148>)
   d6922:	f7fd fdb6 	bl	d4492 <_ZNK5spark6Logger5errorEPKcz>
    System.reset();
   d6926:	f003 fe5b 	bl	da5e0 <_ZN11SystemClass5resetEv>
    return true;
   d692a:	e770      	b.n	d680e <_ZN6AB180513deepPowerDownEi+0x2a>
   d692c:	2003e58c 	.word	0x2003e58c
   d6930:	000de35d 	.word	0x000de35d
   d6934:	000de352 	.word	0x000de352
   d6938:	000de383 	.word	0x000de383
   d693c:	000de36e 	.word	0x000de36e

000d6940 <_ZN6AB18057readRamEjPhjb>:
bool AB1805::readRam(size_t ramAddr, uint8_t *data, size_t dataLen, bool lock) {
   d6940:	e92d 47f3 	stmdb	sp!, {r0, r1, r4, r5, r6, r7, r8, r9, sl, lr}
   d6944:	f89d a028 	ldrb.w	sl, [sp, #40]	; 0x28
   d6948:	4605      	mov	r5, r0
   d694a:	460c      	mov	r4, r1
   d694c:	4691      	mov	r9, r2
   d694e:	461f      	mov	r7, r3
    if (lock) {
   d6950:	f1ba 0f00 	cmp.w	sl, #0
   d6954:	d002      	beq.n	d695c <_ZN6AB18057readRamEjPhjb+0x1c>
        wire.lock();
   d6956:	6840      	ldr	r0, [r0, #4]
   d6958:	f002 f8e0 	bl	d8b1c <_ZN7TwoWire4lockEv>
    while(dataLen > 0) {
   d695c:	b307      	cbz	r7, d69a0 <_ZN6AB18057readRamEjPhjb+0x60>
        if (count > 32) {
   d695e:	2f20      	cmp	r7, #32
   d6960:	463e      	mov	r6, r7
   d6962:	bf28      	it	cs
   d6964:	2620      	movcs	r6, #32
        if ((ramAddr < 128) && ((ramAddr + count) > 128)) {
   d6966:	2c7f      	cmp	r4, #127	; 0x7f
   d6968:	d826      	bhi.n	d69b8 <_ZN6AB18057readRamEjPhjb+0x78>
   d696a:	1933      	adds	r3, r6, r4
   d696c:	2b80      	cmp	r3, #128	; 0x80
   d696e:	d901      	bls.n	d6974 <_ZN6AB18057readRamEjPhjb+0x34>
            count = 128 - ramAddr;
   d6970:	f1c4 0680 	rsb	r6, r4, #128	; 0x80
            clearRegisterBit(REG_EXT_ADDR, REG_EXT_ADDR_XADA);
   d6974:	2301      	movs	r3, #1
   d6976:	2204      	movs	r2, #4
   d6978:	213f      	movs	r1, #63	; 0x3f
   d697a:	4628      	mov	r0, r5
   d697c:	f7ff fe79 	bl	d6672 <_ZN6AB180516clearRegisterBitEhhb>
        bResult = readRegisters(REG_ALT_RAM + (ramAddr & 0x7f), data, count, false);
   d6980:	2300      	movs	r3, #0
   d6982:	f064 017f 	orn	r1, r4, #127	; 0x7f
   d6986:	9300      	str	r3, [sp, #0]
   d6988:	464a      	mov	r2, r9
   d698a:	4633      	mov	r3, r6
   d698c:	b2c9      	uxtb	r1, r1
   d698e:	4628      	mov	r0, r5
   d6990:	f7ff fce4 	bl	d635c <_ZN6AB180513readRegistersEhPhjb>
        if (!bResult) {
   d6994:	4680      	mov	r8, r0
   d6996:	b128      	cbz	r0, d69a4 <_ZN6AB18057readRamEjPhjb+0x64>
        ramAddr += count;
   d6998:	4434      	add	r4, r6
        dataLen -= count;
   d699a:	1bbf      	subs	r7, r7, r6
        data += count;
   d699c:	44b1      	add	r9, r6
    while(dataLen > 0) {
   d699e:	e7dd      	b.n	d695c <_ZN6AB18057readRamEjPhjb+0x1c>
   d69a0:	f04f 0801 	mov.w	r8, #1
    if (lock) {
   d69a4:	f1ba 0f00 	cmp.w	sl, #0
   d69a8:	d002      	beq.n	d69b0 <_ZN6AB18057readRamEjPhjb+0x70>
        wire.unlock();
   d69aa:	6868      	ldr	r0, [r5, #4]
   d69ac:	f002 f8bf 	bl	d8b2e <_ZN7TwoWire6unlockEv>
}
   d69b0:	4640      	mov	r0, r8
   d69b2:	b002      	add	sp, #8
   d69b4:	e8bd 87f0 	ldmia.w	sp!, {r4, r5, r6, r7, r8, r9, sl, pc}
            setRegisterBit(REG_EXT_ADDR, REG_EXT_ADDR_XADA);
   d69b8:	2301      	movs	r3, #1
   d69ba:	2204      	movs	r2, #4
   d69bc:	213f      	movs	r1, #63	; 0x3f
   d69be:	4628      	mov	r0, r5
   d69c0:	f7ff feb8 	bl	d6734 <_ZN6AB180514setRegisterBitEhhb>
   d69c4:	e7dc      	b.n	d6980 <_ZN6AB18057readRamEjPhjb+0x40>

000d69c6 <_ZN6AB18058writeRamEjPKhjb>:
bool AB1805::writeRam(size_t ramAddr, const uint8_t *data, size_t dataLen, bool lock) {
   d69c6:	e92d 47f3 	stmdb	sp!, {r0, r1, r4, r5, r6, r7, r8, r9, sl, lr}
   d69ca:	f89d a028 	ldrb.w	sl, [sp, #40]	; 0x28
   d69ce:	4605      	mov	r5, r0
   d69d0:	460c      	mov	r4, r1
   d69d2:	4691      	mov	r9, r2
   d69d4:	461f      	mov	r7, r3
    if (lock) {
   d69d6:	f1ba 0f00 	cmp.w	sl, #0
   d69da:	d002      	beq.n	d69e2 <_ZN6AB18058writeRamEjPKhjb+0x1c>
        wire.lock();
   d69dc:	6840      	ldr	r0, [r0, #4]
   d69de:	f002 f89d 	bl	d8b1c <_ZN7TwoWire4lockEv>
    while(dataLen > 0) {
   d69e2:	b307      	cbz	r7, d6a26 <_ZN6AB18058writeRamEjPKhjb+0x60>
        if (count > 31) {
   d69e4:	2f1f      	cmp	r7, #31
   d69e6:	463e      	mov	r6, r7
   d69e8:	bf28      	it	cs
   d69ea:	261f      	movcs	r6, #31
        if ((ramAddr < 128) && ((ramAddr + count) > 128)) {
   d69ec:	2c7f      	cmp	r4, #127	; 0x7f
   d69ee:	d826      	bhi.n	d6a3e <_ZN6AB18058writeRamEjPKhjb+0x78>
   d69f0:	1933      	adds	r3, r6, r4
   d69f2:	2b80      	cmp	r3, #128	; 0x80
   d69f4:	d901      	bls.n	d69fa <_ZN6AB18058writeRamEjPKhjb+0x34>
            count = 128 - ramAddr;
   d69f6:	f1c4 0680 	rsb	r6, r4, #128	; 0x80
            clearRegisterBit(REG_EXT_ADDR, REG_EXT_ADDR_XADA);
   d69fa:	2301      	movs	r3, #1
   d69fc:	2204      	movs	r2, #4
   d69fe:	213f      	movs	r1, #63	; 0x3f
   d6a00:	4628      	mov	r0, r5
   d6a02:	f7ff fe36 	bl	d6672 <_ZN6AB180516clearRegisterBitEhhb>
        bResult = writeRegisters(REG_ALT_RAM + (ramAddr & 0x7f), data, count, false);
   d6a06:	2300      	movs	r3, #0
   d6a08:	f064 017f 	orn	r1, r4, #127	; 0x7f
   d6a0c:	9300      	str	r3, [sp, #0]
   d6a0e:	464a      	mov	r2, r9
   d6a10:	4633      	mov	r3, r6
   d6a12:	b2c9      	uxtb	r1, r1
   d6a14:	4628      	mov	r0, r5
   d6a16:	f7ff fd43 	bl	d64a0 <_ZN6AB180514writeRegistersEhPKhjb>
        if (!bResult) {
   d6a1a:	4680      	mov	r8, r0
   d6a1c:	b128      	cbz	r0, d6a2a <_ZN6AB18058writeRamEjPKhjb+0x64>
        ramAddr += count;
   d6a1e:	4434      	add	r4, r6
        dataLen -= count;
   d6a20:	1bbf      	subs	r7, r7, r6
        data += count;
   d6a22:	44b1      	add	r9, r6
    while(dataLen > 0) {
   d6a24:	e7dd      	b.n	d69e2 <_ZN6AB18058writeRamEjPKhjb+0x1c>
   d6a26:	f04f 0801 	mov.w	r8, #1
    if (lock) {
   d6a2a:	f1ba 0f00 	cmp.w	sl, #0
   d6a2e:	d002      	beq.n	d6a36 <_ZN6AB18058writeRamEjPKhjb+0x70>
        wire.unlock();
   d6a30:	6868      	ldr	r0, [r5, #4]
   d6a32:	f002 f87c 	bl	d8b2e <_ZN7TwoWire6unlockEv>
}
   d6a36:	4640      	mov	r0, r8
   d6a38:	b002      	add	sp, #8
   d6a3a:	e8bd 87f0 	ldmia.w	sp!, {r4, r5, r6, r7, r8, r9, sl, pc}
            setRegisterBit(REG_EXT_ADDR, REG_EXT_ADDR_XADA);
   d6a3e:	2301      	movs	r3, #1
   d6a40:	2204      	movs	r2, #4
   d6a42:	213f      	movs	r1, #63	; 0x3f
   d6a44:	4628      	mov	r0, r5
   d6a46:	f7ff fe75 	bl	d6734 <_ZN6AB180514setRegisterBitEhhb>
   d6a4a:	e7dc      	b.n	d6a06 <_ZN6AB18058writeRamEjPKhjb+0x40>

000d6a4c <_ZN6AB180510tmToStringEPK2tm>:
String AB1805::tmToString(const struct tm *timeptr) {
   d6a4c:	b530      	push	{r4, r5, lr}
   d6a4e:	b085      	sub	sp, #20
        timeptr->tm_hour, timeptr->tm_min, timeptr->tm_sec);
   d6a50:	680d      	ldr	r5, [r1, #0]
   d6a52:	e9d1 3204 	ldrd	r3, r2, [r1, #16]
   d6a56:	9503      	str	r5, [sp, #12]
   d6a58:	684d      	ldr	r5, [r1, #4]
   d6a5a:	9502      	str	r5, [sp, #8]
   d6a5c:	688d      	ldr	r5, [r1, #8]
   d6a5e:	9501      	str	r5, [sp, #4]
   d6a60:	68c9      	ldr	r1, [r1, #12]
   d6a62:	9100      	str	r1, [sp, #0]
   d6a64:	3301      	adds	r3, #1
   d6a66:	4904      	ldr	r1, [pc, #16]	; (d6a78 <_ZN6AB180510tmToStringEPK2tm+0x2c>)
   d6a68:	f202 726c 	addw	r2, r2, #1900	; 0x76c
String AB1805::tmToString(const struct tm *timeptr) {
   d6a6c:	4604      	mov	r4, r0
        timeptr->tm_hour, timeptr->tm_min, timeptr->tm_sec);
   d6a6e:	f003 fd49 	bl	da504 <_ZN6String6formatEPKcz>
}
   d6a72:	4620      	mov	r0, r4
   d6a74:	b005      	add	sp, #20
   d6a76:	bd30      	pop	{r4, r5, pc}
   d6a78:	000de395 	.word	0x000de395

000d6a7c <_ZN6AB180510bcdToValueEh>:
    return (bcd >> 4) * 10 + (bcd & 0x0f);
   d6a7c:	1103      	asrs	r3, r0, #4
}
   d6a7e:	220a      	movs	r2, #10
    return (bcd >> 4) * 10 + (bcd & 0x0f);
   d6a80:	f000 000f 	and.w	r0, r0, #15
}
   d6a84:	fb02 0003 	mla	r0, r2, r3, r0
   d6a88:	4770      	bx	lr

000d6a8a <_ZN6AB180513registersToTmEPKhP2tmb>:
void AB1805::registersToTm(const uint8_t *array, struct tm *timeptr, bool includeYear) {
   d6a8a:	b538      	push	{r3, r4, r5, lr}
   d6a8c:	4604      	mov	r4, r0
    timeptr->tm_sec = bcdToValue(*p++);
   d6a8e:	7800      	ldrb	r0, [r0, #0]
void AB1805::registersToTm(const uint8_t *array, struct tm *timeptr, bool includeYear) {
   d6a90:	4615      	mov	r5, r2
    timeptr->tm_sec = bcdToValue(*p++);
   d6a92:	f7ff fff3 	bl	d6a7c <_ZN6AB180510bcdToValueEh>
   d6a96:	6008      	str	r0, [r1, #0]
    timeptr->tm_min = bcdToValue(*p++);
   d6a98:	7860      	ldrb	r0, [r4, #1]
   d6a9a:	f7ff ffef 	bl	d6a7c <_ZN6AB180510bcdToValueEh>
   d6a9e:	6048      	str	r0, [r1, #4]
    timeptr->tm_hour = bcdToValue(*p++);
   d6aa0:	78a0      	ldrb	r0, [r4, #2]
   d6aa2:	f7ff ffeb 	bl	d6a7c <_ZN6AB180510bcdToValueEh>
   d6aa6:	6088      	str	r0, [r1, #8]
    timeptr->tm_mday = bcdToValue(*p++);
   d6aa8:	78e0      	ldrb	r0, [r4, #3]
   d6aaa:	f7ff ffe7 	bl	d6a7c <_ZN6AB180510bcdToValueEh>
   d6aae:	60c8      	str	r0, [r1, #12]
    timeptr->tm_mon = bcdToValue(*p++) - 1; // struct tm is 0-11, not 1-12!
   d6ab0:	7920      	ldrb	r0, [r4, #4]
   d6ab2:	f7ff ffe3 	bl	d6a7c <_ZN6AB180510bcdToValueEh>
   d6ab6:	3801      	subs	r0, #1
   d6ab8:	6108      	str	r0, [r1, #16]
    if (includeYear) {
   d6aba:	b92d      	cbnz	r5, d6ac8 <_ZN6AB180513registersToTmEPKhP2tmb+0x3e>
    timeptr->tm_mon = bcdToValue(*p++) - 1; // struct tm is 0-11, not 1-12!
   d6abc:	1d65      	adds	r5, r4, #5
    timeptr->tm_wday = bcdToValue(*p++);
   d6abe:	7828      	ldrb	r0, [r5, #0]
   d6ac0:	f7ff ffdc 	bl	d6a7c <_ZN6AB180510bcdToValueEh>
   d6ac4:	6188      	str	r0, [r1, #24]
}
   d6ac6:	bd38      	pop	{r3, r4, r5, pc}
        timeptr->tm_year = bcdToValue(*p++) + 100;
   d6ac8:	7960      	ldrb	r0, [r4, #5]
   d6aca:	f7ff ffd7 	bl	d6a7c <_ZN6AB180510bcdToValueEh>
   d6ace:	3064      	adds	r0, #100	; 0x64
   d6ad0:	1da5      	adds	r5, r4, #6
   d6ad2:	6148      	str	r0, [r1, #20]
   d6ad4:	e7f3      	b.n	d6abe <_ZN6AB180513registersToTmEPKhP2tmb+0x34>
	...

000d6ad8 <_ZN6AB180510getRtcAsTmEP2tm>:
bool AB1805::getRtcAsTm(struct tm *timeptr) {
   d6ad8:	b570      	push	{r4, r5, r6, lr}
    if (isBitClear(REG_CTRL_1, REG_CTRL_1_WRTC)) {
   d6ada:	2301      	movs	r3, #1
bool AB1805::getRtcAsTm(struct tm *timeptr) {
   d6adc:	b088      	sub	sp, #32
   d6ade:	460d      	mov	r5, r1
    if (isBitClear(REG_CTRL_1, REG_CTRL_1_WRTC)) {
   d6ae0:	461a      	mov	r2, r3
   d6ae2:	2110      	movs	r1, #16
bool AB1805::getRtcAsTm(struct tm *timeptr) {
   d6ae4:	4604      	mov	r4, r0
    if (isBitClear(REG_CTRL_1, REG_CTRL_1_WRTC)) {
   d6ae6:	f7ff fda6 	bl	d6636 <_ZN6AB180510isBitClearEhhb>
   d6aea:	b1f0      	cbz	r0, d6b2a <_ZN6AB180510getRtcAsTmEP2tm+0x52>
        bResult = readRegisters(REG_HUNDREDTH, array, sizeof(array));
   d6aec:	2308      	movs	r3, #8
   d6aee:	2601      	movs	r6, #1
   d6af0:	4620      	mov	r0, r4
   d6af2:	9600      	str	r6, [sp, #0]
   d6af4:	eb0d 0203 	add.w	r2, sp, r3
   d6af8:	2100      	movs	r1, #0
   d6afa:	f7ff fc2f 	bl	d635c <_ZN6AB180513readRegistersEhPhjb>
        if (bResult) {
   d6afe:	4604      	mov	r4, r0
   d6b00:	b198      	cbz	r0, d6b2a <_ZN6AB180510getRtcAsTmEP2tm+0x52>
            registersToTm(&array[1], timeptr, true);
   d6b02:	4632      	mov	r2, r6
   d6b04:	4629      	mov	r1, r5
   d6b06:	f10d 0009 	add.w	r0, sp, #9
   d6b0a:	f7ff ffbe 	bl	d6a8a <_ZN6AB180513registersToTmEPKhP2tmb>
            _log.info("getRtcAsTm %s", tmToString(timeptr).c_str());
   d6b0e:	a804      	add	r0, sp, #16
   d6b10:	f7ff ff9c 	bl	d6a4c <_ZN6AB180510tmToStringEPK2tm>
   d6b14:	4808      	ldr	r0, [pc, #32]	; (d6b38 <_ZN6AB180510getRtcAsTmEP2tm+0x60>)
   d6b16:	9a04      	ldr	r2, [sp, #16]
   d6b18:	4908      	ldr	r1, [pc, #32]	; (d6b3c <_ZN6AB180510getRtcAsTmEP2tm+0x64>)
   d6b1a:	f7fd fca3 	bl	d4464 <_ZNK5spark6Logger4infoEPKcz>
   d6b1e:	a804      	add	r0, sp, #16
   d6b20:	f003 fc24 	bl	da36c <_ZN6StringD1Ev>
}
   d6b24:	4620      	mov	r0, r4
   d6b26:	b008      	add	sp, #32
   d6b28:	bd70      	pop	{r4, r5, r6, pc}
        memset(timeptr, 0, sizeof(*timeptr));
   d6b2a:	2224      	movs	r2, #36	; 0x24
   d6b2c:	2100      	movs	r1, #0
   d6b2e:	4628      	mov	r0, r5
   d6b30:	f005 f8a4 	bl	dbc7c <memset>
   d6b34:	2400      	movs	r4, #0
   d6b36:	e7f5      	b.n	d6b24 <_ZN6AB180510getRtcAsTmEP2tm+0x4c>
   d6b38:	2003e58c 	.word	0x2003e58c
   d6b3c:	000de3b3 	.word	0x000de3b3

000d6b40 <_ZN6AB180512getRtcAsTimeERx>:
bool AB1805::getRtcAsTime(time_t &time) {
   d6b40:	b530      	push	{r4, r5, lr}
   d6b42:	b08b      	sub	sp, #44	; 0x2c
   d6b44:	460d      	mov	r5, r1
    bool bResult = getRtcAsTm(&tmstruct);
   d6b46:	a901      	add	r1, sp, #4
   d6b48:	f7ff ffc6 	bl	d6ad8 <_ZN6AB180510getRtcAsTmEP2tm>
    if (bResult) {
   d6b4c:	4604      	mov	r4, r0
   d6b4e:	b120      	cbz	r0, d6b5a <_ZN6AB180512getRtcAsTimeERx+0x1a>
        time = mktime(&tmstruct);
   d6b50:	a801      	add	r0, sp, #4
   d6b52:	f001 f9d3 	bl	d7efc <mktime>
   d6b56:	e9c5 0100 	strd	r0, r1, [r5]
}
   d6b5a:	4620      	mov	r0, r4
   d6b5c:	b00b      	add	sp, #44	; 0x2c
   d6b5e:	bd30      	pop	{r4, r5, pc}

000d6b60 <_ZN6AB18055setupEb>:
void AB1805::setup(bool callBegin) {
   d6b60:	b510      	push	{r4, lr}
   d6b62:	4604      	mov	r4, r0
   d6b64:	b088      	sub	sp, #32
    if (callBegin) {
   d6b66:	b111      	cbz	r1, d6b6e <_ZN6AB18055setupEb+0xe>
        wire.begin();
   d6b68:	6840      	ldr	r0, [r0, #4]
   d6b6a:	f001 ff85 	bl	d8a78 <_ZN7TwoWire5beginEv>
    if (detectChip()) {
   d6b6e:	4620      	mov	r0, r4
   d6b70:	f7ff fc4a 	bl	d6408 <_ZN6AB180510detectChipEv>
   d6b74:	b370      	cbz	r0, d6bd4 <_ZN6AB18055setupEb+0x74>
        updateWakeReason();
   d6b76:	4620      	mov	r0, r4
   d6b78:	f7ff fd86 	bl	d6688 <_ZN6AB180516updateWakeReasonEv>
        if (isBitClear(REG_CTRL_1, REG_CTRL_1_WRTC) && !Time.isValid()) {
   d6b7c:	2301      	movs	r3, #1
   d6b7e:	461a      	mov	r2, r3
   d6b80:	2110      	movs	r1, #16
   d6b82:	4620      	mov	r0, r4
   d6b84:	f7ff fd57 	bl	d6636 <_ZN6AB180510isBitClearEhhb>
   d6b88:	b1d8      	cbz	r0, d6bc2 <_ZN6AB18055setupEb+0x62>
   d6b8a:	f003 ff63 	bl	daa54 <_ZN9TimeClass7isValidEv>
   d6b8e:	b9c0      	cbnz	r0, d6bc2 <_ZN6AB18055setupEb+0x62>
            getRtcAsTime(time);
   d6b90:	a902      	add	r1, sp, #8
   d6b92:	4620      	mov	r0, r4
   d6b94:	f7ff ffd4 	bl	d6b40 <_ZN6AB180512getRtcAsTimeERx>
            Time.setTime(time);
   d6b98:	e9dd 0102 	ldrd	r0, r1, [sp, #8]
   d6b9c:	f003 fe60 	bl	da860 <_ZN9TimeClass7setTimeEx>
            _log.info("set system clock from RTC %s", Time.format(time, TIME_FORMAT_DEFAULT).c_str());
   d6ba0:	4b0f      	ldr	r3, [pc, #60]	; (d6be0 <_ZN6AB18055setupEb+0x80>)
   d6ba2:	4910      	ldr	r1, [pc, #64]	; (d6be4 <_ZN6AB18055setupEb+0x84>)
   d6ba4:	681b      	ldr	r3, [r3, #0]
   d6ba6:	9300      	str	r3, [sp, #0]
   d6ba8:	a804      	add	r0, sp, #16
   d6baa:	e9dd 2302 	ldrd	r2, r3, [sp, #8]
   d6bae:	f003 ff0f 	bl	da9d0 <_ZN9TimeClass6formatExPKc>
   d6bb2:	480d      	ldr	r0, [pc, #52]	; (d6be8 <_ZN6AB18055setupEb+0x88>)
   d6bb4:	9a04      	ldr	r2, [sp, #16]
   d6bb6:	490d      	ldr	r1, [pc, #52]	; (d6bec <_ZN6AB18055setupEb+0x8c>)
   d6bb8:	f7fd fc54 	bl	d4464 <_ZNK5spark6Logger4infoEPKcz>
   d6bbc:	a804      	add	r0, sp, #16
   d6bbe:	f003 fbd5 	bl	da36c <_ZN6StringD1Ev>
        return system_subscribe_event(events, reinterpret_cast<system_event_handler_t*>(handler), NULL);
   d6bc2:	4a0b      	ldr	r2, [pc, #44]	; (d6bf0 <_ZN6AB18055setupEb+0x90>)
   d6bc4:	2300      	movs	r3, #0
   d6bc6:	2100      	movs	r1, #0
   d6bc8:	f44f 6000 	mov.w	r0, #2048	; 0x800
   d6bcc:	f001 f804 	bl	d7bd8 <system_subscribe_event>
}
   d6bd0:	b008      	add	sp, #32
   d6bd2:	bd10      	pop	{r4, pc}
        _log.error("failed to detect AB1805");
   d6bd4:	4907      	ldr	r1, [pc, #28]	; (d6bf4 <_ZN6AB18055setupEb+0x94>)
   d6bd6:	4804      	ldr	r0, [pc, #16]	; (d6be8 <_ZN6AB18055setupEb+0x88>)
   d6bd8:	f7fd fc5b 	bl	d4492 <_ZNK5spark6Logger5errorEPKcz>
   d6bdc:	e7f1      	b.n	d6bc2 <_ZN6AB18055setupEb+0x62>
   d6bde:	bf00      	nop
   d6be0:	2003e1d8 	.word	0x2003e1d8
   d6be4:	2003e634 	.word	0x2003e634
   d6be8:	2003e58c 	.word	0x2003e58c
   d6bec:	000de3c1 	.word	0x000de3c1
   d6bf0:	000d65b5 	.word	0x000d65b5
   d6bf4:	000de3de 	.word	0x000de3de

000d6bf8 <_ZN6AB180510valueToBcdEi>:
    int tens = (value / 10) % 10;
   d6bf8:	220a      	movs	r2, #10
   d6bfa:	fb90 f3f2 	sdiv	r3, r0, r2
    int ones = value % 10;
   d6bfe:	fb02 0013 	mls	r0, r2, r3, r0
    int tens = (value / 10) % 10;
   d6c02:	fb93 f1f2 	sdiv	r1, r3, r2
   d6c06:	fb02 3111 	mls	r1, r2, r1, r3
    return (uint8_t) ((tens << 4) | ones);
   d6c0a:	ea40 1001 	orr.w	r0, r0, r1, lsl #4
}
   d6c0e:	b2c0      	uxtb	r0, r0
   d6c10:	4770      	bx	lr

000d6c12 <_ZN6AB180513tmToRegistersEPK2tmPhb>:
void AB1805::tmToRegisters(const struct tm *timeptr, uint8_t *array, bool includeYear) {
   d6c12:	b570      	push	{r4, r5, r6, lr}
   d6c14:	4605      	mov	r5, r0
    *p++ = valueToBcd(timeptr->tm_sec);
   d6c16:	6800      	ldr	r0, [r0, #0]
void AB1805::tmToRegisters(const struct tm *timeptr, uint8_t *array, bool includeYear) {
   d6c18:	460c      	mov	r4, r1
   d6c1a:	4616      	mov	r6, r2
    *p++ = valueToBcd(timeptr->tm_sec);
   d6c1c:	f7ff ffec 	bl	d6bf8 <_ZN6AB180510valueToBcdEi>
   d6c20:	7020      	strb	r0, [r4, #0]
    *p++ = valueToBcd(timeptr->tm_min);
   d6c22:	6868      	ldr	r0, [r5, #4]
   d6c24:	f7ff ffe8 	bl	d6bf8 <_ZN6AB180510valueToBcdEi>
   d6c28:	7060      	strb	r0, [r4, #1]
    *p++ = valueToBcd(timeptr->tm_hour);
   d6c2a:	68a8      	ldr	r0, [r5, #8]
   d6c2c:	f7ff ffe4 	bl	d6bf8 <_ZN6AB180510valueToBcdEi>
   d6c30:	70a0      	strb	r0, [r4, #2]
    *p++ = valueToBcd(timeptr->tm_mday);
   d6c32:	68e8      	ldr	r0, [r5, #12]
   d6c34:	f7ff ffe0 	bl	d6bf8 <_ZN6AB180510valueToBcdEi>
   d6c38:	70e0      	strb	r0, [r4, #3]
    *p++ = valueToBcd(timeptr->tm_mon + 1); // struct tm is 0-11, not 1-12!
   d6c3a:	6928      	ldr	r0, [r5, #16]
   d6c3c:	3001      	adds	r0, #1
   d6c3e:	f7ff ffdb 	bl	d6bf8 <_ZN6AB180510valueToBcdEi>
   d6c42:	7120      	strb	r0, [r4, #4]
    if (includeYear) {
   d6c44:	b92e      	cbnz	r6, d6c52 <_ZN6AB180513tmToRegistersEPK2tmPhb+0x40>
    *p++ = valueToBcd(timeptr->tm_mon + 1); // struct tm is 0-11, not 1-12!
   d6c46:	1d66      	adds	r6, r4, #5
    *p++ = valueToBcd(timeptr->tm_wday);
   d6c48:	69a8      	ldr	r0, [r5, #24]
   d6c4a:	f7ff ffd5 	bl	d6bf8 <_ZN6AB180510valueToBcdEi>
   d6c4e:	7030      	strb	r0, [r6, #0]
}
   d6c50:	bd70      	pop	{r4, r5, r6, pc}
        *p++ = valueToBcd(timeptr->tm_year % 100);
   d6c52:	696a      	ldr	r2, [r5, #20]
   d6c54:	2364      	movs	r3, #100	; 0x64
   d6c56:	fb92 f0f3 	sdiv	r0, r2, r3
   d6c5a:	fb03 2010 	mls	r0, r3, r0, r2
   d6c5e:	f7ff ffcb 	bl	d6bf8 <_ZN6AB180510valueToBcdEi>
   d6c62:	1da6      	adds	r6, r4, #6
   d6c64:	7160      	strb	r0, [r4, #5]
   d6c66:	e7ef      	b.n	d6c48 <_ZN6AB180513tmToRegistersEPK2tmPhb+0x36>

000d6c68 <_ZN6AB180512setRtcFromTmEPK2tmb>:
bool AB1805::setRtcFromTm(const struct tm *timeptr, bool lock) {
   d6c68:	b5f0      	push	{r4, r5, r6, r7, lr}
   d6c6a:	b087      	sub	sp, #28
   d6c6c:	4605      	mov	r5, r0
    _log.info("setRtcAsTm %s", tmToString(timeptr).c_str());
   d6c6e:	a802      	add	r0, sp, #8
bool AB1805::setRtcFromTm(const struct tm *timeptr, bool lock) {
   d6c70:	4616      	mov	r6, r2
   d6c72:	460c      	mov	r4, r1
    _log.info("setRtcAsTm %s", tmToString(timeptr).c_str());
   d6c74:	f7ff feea 	bl	d6a4c <_ZN6AB180510tmToStringEPK2tm>
   d6c78:	481e      	ldr	r0, [pc, #120]	; (d6cf4 <_ZN6AB180512setRtcFromTmEPK2tmb+0x8c>)
   d6c7a:	9a02      	ldr	r2, [sp, #8]
   d6c7c:	491e      	ldr	r1, [pc, #120]	; (d6cf8 <_ZN6AB180512setRtcFromTmEPK2tmb+0x90>)
   d6c7e:	f7fd fbf1 	bl	d4464 <_ZNK5spark6Logger4infoEPKcz>
   d6c82:	a802      	add	r0, sp, #8
   d6c84:	f003 fb72 	bl	da36c <_ZN6StringD1Ev>
    if (lock) {
   d6c88:	b116      	cbz	r6, d6c90 <_ZN6AB180512setRtcFromTmEPK2tmb+0x28>
        wire.lock();
   d6c8a:	6868      	ldr	r0, [r5, #4]
   d6c8c:	f001 ff46 	bl	d8b1c <_ZN7TwoWire4lockEv>
    tmToRegisters(timeptr, &array[1], true);
   d6c90:	4620      	mov	r0, r4
   d6c92:	2201      	movs	r2, #1
   d6c94:	f10d 0109 	add.w	r1, sp, #9
    array[0] = 0x00; // hundredths
   d6c98:	2700      	movs	r7, #0
   d6c9a:	f88d 7008 	strb.w	r7, [sp, #8]
    tmToRegisters(timeptr, &array[1], true);
   d6c9e:	f7ff ffb8 	bl	d6c12 <_ZN6AB180513tmToRegistersEPK2tmPhb>
    bool bResult = setRegisterBit(REG_CTRL_1, REG_CTRL_1_WRTC);
   d6ca2:	2301      	movs	r3, #1
   d6ca4:	461a      	mov	r2, r3
   d6ca6:	2110      	movs	r1, #16
   d6ca8:	4628      	mov	r0, r5
   d6caa:	f7ff fd43 	bl	d6734 <_ZN6AB180514setRegisterBitEhhb>
    if (bResult) {
   d6cae:	4604      	mov	r4, r0
   d6cb0:	b1e8      	cbz	r0, d6cee <_ZN6AB180512setRtcFromTmEPK2tmb+0x86>
        bResult = writeRegisters(REG_HUNDREDTH, array, sizeof(array), false);
   d6cb2:	2308      	movs	r3, #8
   d6cb4:	9700      	str	r7, [sp, #0]
   d6cb6:	eb0d 0203 	add.w	r2, sp, r3
   d6cba:	4639      	mov	r1, r7
   d6cbc:	4628      	mov	r0, r5
   d6cbe:	f7ff fbef 	bl	d64a0 <_ZN6AB180514writeRegistersEhPKhjb>
        if (bResult) {
   d6cc2:	4604      	mov	r4, r0
   d6cc4:	b160      	cbz	r0, d6ce0 <_ZN6AB180512setRtcFromTmEPK2tmb+0x78>
            clearRegisterBit(REG_CTRL_1, REG_CTRL_1_WRTC);
   d6cc6:	2301      	movs	r3, #1
   d6cc8:	461a      	mov	r2, r3
   d6cca:	2110      	movs	r1, #16
   d6ccc:	4628      	mov	r0, r5
   d6cce:	f7ff fcd0 	bl	d6672 <_ZN6AB180516clearRegisterBitEhhb>
    if (lock) {
   d6cd2:	b116      	cbz	r6, d6cda <_ZN6AB180512setRtcFromTmEPK2tmb+0x72>
        wire.unlock();
   d6cd4:	6868      	ldr	r0, [r5, #4]
   d6cd6:	f001 ff2a 	bl	d8b2e <_ZN7TwoWire6unlockEv>
}
   d6cda:	4620      	mov	r0, r4
   d6cdc:	b007      	add	sp, #28
   d6cde:	bdf0      	pop	{r4, r5, r6, r7, pc}
            _log.error(errorMsg, __LINE__);
   d6ce0:	f44f 728d 	mov.w	r2, #282	; 0x11a
        _log.error(errorMsg, __LINE__);
   d6ce4:	4905      	ldr	r1, [pc, #20]	; (d6cfc <_ZN6AB180512setRtcFromTmEPK2tmb+0x94>)
   d6ce6:	4803      	ldr	r0, [pc, #12]	; (d6cf4 <_ZN6AB180512setRtcFromTmEPK2tmb+0x8c>)
   d6ce8:	f7fd fbd3 	bl	d4492 <_ZNK5spark6Logger5errorEPKcz>
   d6cec:	e7f1      	b.n	d6cd2 <_ZN6AB180512setRtcFromTmEPK2tmb+0x6a>
   d6cee:	f44f 728f 	mov.w	r2, #286	; 0x11e
   d6cf2:	e7f7      	b.n	d6ce4 <_ZN6AB180512setRtcFromTmEPK2tmb+0x7c>
   d6cf4:	2003e58c 	.word	0x2003e58c
   d6cf8:	000de3f6 	.word	0x000de3f6
   d6cfc:	000de404 	.word	0x000de404

000d6d00 <_ZN6AB180514setRtcFromTimeExb>:
bool AB1805::setRtcFromTime(time_t time, bool lock) {
   d6d00:	b513      	push	{r0, r1, r4, lr}
   d6d02:	4604      	mov	r4, r0
    struct tm *tm = gmtime(&time);
   d6d04:	4668      	mov	r0, sp
bool AB1805::setRtcFromTime(time_t time, bool lock) {
   d6d06:	e9cd 2300 	strd	r2, r3, [sp]
    struct tm *tm = gmtime(&time);
   d6d0a:	f004 ff7d 	bl	dbc08 <gmtime>
    return setRtcFromTm(tm, lock);
   d6d0e:	f89d 2010 	ldrb.w	r2, [sp, #16]
    struct tm *tm = gmtime(&time);
   d6d12:	4601      	mov	r1, r0
    return setRtcFromTm(tm, lock);
   d6d14:	4620      	mov	r0, r4
   d6d16:	f7ff ffa7 	bl	d6c68 <_ZN6AB180512setRtcFromTmEPK2tmb>
}
   d6d1a:	b002      	add	sp, #8
   d6d1c:	bd10      	pop	{r4, pc}
	...

000d6d20 <_ZN6AB18054loopEv>:
void AB1805::loop() {
   d6d20:	b5f0      	push	{r4, r5, r6, r7, lr}
    if (!timeSet && Time.isValid() && Particle.timeSyncedLast() != 0) {
   d6d22:	7e05      	ldrb	r5, [r0, #24]
void AB1805::loop() {
   d6d24:	b089      	sub	sp, #36	; 0x24
   d6d26:	4604      	mov	r4, r0
    if (!timeSet && Time.isValid() && Particle.timeSyncedLast() != 0) {
   d6d28:	bb75      	cbnz	r5, d6d88 <_ZN6AB18054loopEv+0x68>
   d6d2a:	f003 fe93 	bl	daa54 <_ZN9TimeClass7isValidEv>
   d6d2e:	b358      	cbz	r0, d6d88 <_ZN6AB18054loopEv+0x68>
        tm = 0;
   d6d30:	2600      	movs	r6, #0
   d6d32:	2700      	movs	r7, #0
        return spark_sync_time_last(nullptr, &tm);
   d6d34:	a904      	add	r1, sp, #16
   d6d36:	4628      	mov	r0, r5
        tm = 0;
   d6d38:	e9cd 6704 	strd	r6, r7, [sp, #16]
        return spark_sync_time_last(nullptr, &tm);
   d6d3c:	f000 fffe 	bl	d7d3c <spark_sync_time_last>
   d6d40:	b310      	cbz	r0, d6d88 <_ZN6AB18054loopEv+0x68>
        timeSet = true;
   d6d42:	2501      	movs	r5, #1
   d6d44:	7625      	strb	r5, [r4, #24]
        time_t time = Time.now();
   d6d46:	f003 fea2 	bl	daa8e <_ZN9TimeClass3nowEv>
        setRtcFromTime(time);
   d6d4a:	9500      	str	r5, [sp, #0]
        time_t time = Time.now();
   d6d4c:	4602      	mov	r2, r0
   d6d4e:	17c3      	asrs	r3, r0, #31
        setRtcFromTime(time);
   d6d50:	4620      	mov	r0, r4
        time_t time = Time.now();
   d6d52:	e9cd 2302 	strd	r2, r3, [sp, #8]
        setRtcFromTime(time);
   d6d56:	f7ff ffd3 	bl	d6d00 <_ZN6AB180514setRtcFromTimeExb>
        getRtcAsTime(time);
   d6d5a:	a902      	add	r1, sp, #8
   d6d5c:	4620      	mov	r0, r4
        time = 0;
   d6d5e:	e9cd 6702 	strd	r6, r7, [sp, #8]
        getRtcAsTime(time);
   d6d62:	f7ff feed 	bl	d6b40 <_ZN6AB180512getRtcAsTimeERx>
        _log.info("set RTC from cloud %s", Time.format(time, TIME_FORMAT_DEFAULT).c_str());
   d6d66:	4b12      	ldr	r3, [pc, #72]	; (d6db0 <_ZN6AB18054loopEv+0x90>)
   d6d68:	4912      	ldr	r1, [pc, #72]	; (d6db4 <_ZN6AB18054loopEv+0x94>)
   d6d6a:	681b      	ldr	r3, [r3, #0]
   d6d6c:	9300      	str	r3, [sp, #0]
   d6d6e:	a804      	add	r0, sp, #16
   d6d70:	e9dd 2302 	ldrd	r2, r3, [sp, #8]
   d6d74:	f003 fe2c 	bl	da9d0 <_ZN9TimeClass6formatExPKc>
   d6d78:	480f      	ldr	r0, [pc, #60]	; (d6db8 <_ZN6AB18054loopEv+0x98>)
   d6d7a:	9a04      	ldr	r2, [sp, #16]
   d6d7c:	490f      	ldr	r1, [pc, #60]	; (d6dbc <_ZN6AB18054loopEv+0x9c>)
   d6d7e:	f7fd fb71 	bl	d4464 <_ZNK5spark6Logger4infoEPKcz>
   d6d82:	a804      	add	r0, sp, #16
   d6d84:	f003 faf2 	bl	da36c <_ZN6StringD1Ev>
    if (watchdogUpdatePeriod) {
   d6d88:	6963      	ldr	r3, [r4, #20]
   d6d8a:	b173      	cbz	r3, d6daa <_ZN6AB18054loopEv+0x8a>
   d6d8c:	f000 fd62 	bl	d7854 <HAL_Timer_Get_Milli_Seconds>
        if (millis() - lastWatchdogMillis >= watchdogUpdatePeriod) {
   d6d90:	6923      	ldr	r3, [r4, #16]
   d6d92:	1ac0      	subs	r0, r0, r3
   d6d94:	6963      	ldr	r3, [r4, #20]
   d6d96:	4298      	cmp	r0, r3
   d6d98:	d307      	bcc.n	d6daa <_ZN6AB18054loopEv+0x8a>
   d6d9a:	f000 fd5b 	bl	d7854 <HAL_Timer_Get_Milli_Seconds>
            setWDT();
   d6d9e:	f04f 31ff 	mov.w	r1, #4294967295	; 0xffffffff
            lastWatchdogMillis = millis();
   d6da2:	6120      	str	r0, [r4, #16]
            setWDT();
   d6da4:	4620      	mov	r0, r4
   d6da6:	f7ff fbc3 	bl	d6530 <_ZN6AB18056setWDTEi>
}
   d6daa:	b009      	add	sp, #36	; 0x24
   d6dac:	bdf0      	pop	{r4, r5, r6, r7, pc}
   d6dae:	bf00      	nop
   d6db0:	2003e1d8 	.word	0x2003e1d8
   d6db4:	2003e634 	.word	0x2003e634
   d6db8:	2003e58c 	.word	0x2003e58c
   d6dbc:	000de41f 	.word	0x000de41f

000d6dc0 <_GLOBAL__sub_I__ZN6AB18058instanceE>:
        name_(name) {
   d6dc0:	4b01      	ldr	r3, [pc, #4]	; (d6dc8 <_GLOBAL__sub_I__ZN6AB18058instanceE+0x8>)
   d6dc2:	4a02      	ldr	r2, [pc, #8]	; (d6dcc <_GLOBAL__sub_I__ZN6AB18058instanceE+0xc>)
   d6dc4:	601a      	str	r2, [r3, #0]
}
   d6dc6:	4770      	bx	lr
   d6dc8:	2003e58c 	.word	0x2003e58c
   d6dcc:	000de435 	.word	0x000de435

000d6dd0 <_ZN6MB85RCD1Ev>:
MB85RC::MB85RC(TwoWire &wire, size_t memorySize, int addr) :
	wire(wire), memorySize(memorySize), addr(addr) {
}

MB85RC::~MB85RC() {
}
   d6dd0:	4770      	bx	lr

000d6dd2 <_ZN6MB85RCD0Ev>:
MB85RC::~MB85RC() {
   d6dd2:	b510      	push	{r4, lr}
}
   d6dd4:	2110      	movs	r1, #16
MB85RC::~MB85RC() {
   d6dd6:	4604      	mov	r4, r0
}
   d6dd8:	f004 f97f 	bl	db0da <_ZdlPvj>
   d6ddc:	4620      	mov	r0, r4
   d6dde:	bd10      	pop	{r4, pc}

000d6de0 <_ZN7TwoWire5writeEj>:
  bool lock();
  bool unlock();

  inline size_t write(unsigned long n) { return write((uint8_t)n); }
  inline size_t write(long n) { return write((uint8_t)n); }
  inline size_t write(unsigned int n) { return write((uint8_t)n); }
   d6de0:	6803      	ldr	r3, [r0, #0]
   d6de2:	b2c9      	uxtb	r1, r1
   d6de4:	689b      	ldr	r3, [r3, #8]
   d6de6:	4718      	bx	r3

000d6de8 <_ZN6MB85RCC1ER7TwoWireji>:
MB85RC::MB85RC(TwoWire &wire, size_t memorySize, int addr) :
   d6de8:	b530      	push	{r4, r5, lr}
	wire(wire), memorySize(memorySize), addr(addr) {
   d6dea:	4d03      	ldr	r5, [pc, #12]	; (d6df8 <_ZN6MB85RCC1ER7TwoWireji+0x10>)
   d6dec:	e9c0 2302 	strd	r2, r3, [r0, #8]
   d6df0:	e9c0 5100 	strd	r5, r1, [r0]
}
   d6df4:	bd30      	pop	{r4, r5, pc}
   d6df6:	bf00      	nop
   d6df8:	000de48c 	.word	0x000de48c

000d6dfc <_ZN6MB85RC5beginEv>:

void MB85RC::begin() {
	wire.begin();
   d6dfc:	6840      	ldr	r0, [r0, #4]
   d6dfe:	f001 be3b 	b.w	d8a78 <_ZN7TwoWire5beginEv>

000d6e02 <_ZNSt10lock_guardIR7TwoWireED1Ev>:
      { _M_device.lock(); }

      lock_guard(mutex_type& __m, adopt_lock_t) noexcept : _M_device(__m)
      { } // calling thread owns mutex

      ~lock_guard()
   d6e02:	b510      	push	{r4, lr}
   d6e04:	4604      	mov	r4, r0
      { _M_device.unlock(); }
   d6e06:	6800      	ldr	r0, [r0, #0]
   d6e08:	f001 fe91 	bl	d8b2e <_ZN7TwoWire6unlockEv>
   d6e0c:	4620      	mov	r0, r4
   d6e0e:	bd10      	pop	{r4, pc}

000d6e10 <_ZN6MB85RC5eraseEv>:
}

bool MB85RC::erase() {
   d6e10:	e92d 41f0 	stmdb	sp!, {r4, r5, r6, r7, r8, lr}
   d6e14:	b08a      	sub	sp, #40	; 0x28
   d6e16:	4604      	mov	r4, r0

	WITH_LOCK(wire) {
   d6e18:	6840      	ldr	r0, [r0, #4]
      explicit lock_guard(mutex_type& __m) : _M_device(__m)
   d6e1a:	9001      	str	r0, [sp, #4]
      { _M_device.lock(); }
   d6e1c:	f001 fe7e 	bl	d8b1c <_ZN7TwoWire4lockEv>
		size_t framAddr = 0;
		size_t totalLen = memorySize;

		uint8_t zero[30];
		memset(zero, 0, sizeof(zero));
   d6e20:	221e      	movs	r2, #30
   d6e22:	2100      	movs	r1, #0
   d6e24:	a802      	add	r0, sp, #8
		size_t totalLen = memorySize;
   d6e26:	68a7      	ldr	r7, [r4, #8]
		memset(zero, 0, sizeof(zero));
   d6e28:	f004 ff28 	bl	dbc7c <memset>
		size_t framAddr = 0;
   d6e2c:	2600      	movs	r6, #0

		while(totalLen > 0) {
   d6e2e:	b1ef      	cbz	r7, d6e6c <_ZN6MB85RC5eraseEv+0x5c>
			size_t count = totalLen;
			if (count > sizeof(zero)) {
				count = sizeof(zero);
			}

			bool result = writeData(framAddr, zero, count);
   d6e30:	6823      	ldr	r3, [r4, #0]
   d6e32:	2f1e      	cmp	r7, #30
   d6e34:	46b8      	mov	r8, r7
   d6e36:	bf28      	it	cs
   d6e38:	f04f 081e 	movcs.w	r8, #30
   d6e3c:	68dd      	ldr	r5, [r3, #12]
   d6e3e:	aa02      	add	r2, sp, #8
   d6e40:	4643      	mov	r3, r8
   d6e42:	4631      	mov	r1, r6
   d6e44:	4620      	mov	r0, r4
   d6e46:	47a8      	blx	r5
			if (!result) {
   d6e48:	4605      	mov	r5, r0
   d6e4a:	b958      	cbnz	r0, d6e64 <_ZN6MB85RC5eraseEv+0x54>
				Log.info("writeData failed during erase framAddr=%u", framAddr);
   d6e4c:	480a      	ldr	r0, [pc, #40]	; (d6e78 <_ZN6MB85RC5eraseEv+0x68>)
   d6e4e:	490b      	ldr	r1, [pc, #44]	; (d6e7c <_ZN6MB85RC5eraseEv+0x6c>)
   d6e50:	4632      	mov	r2, r6
   d6e52:	f7fd fb07 	bl	d4464 <_ZNK5spark6Logger4infoEPKcz>
	WITH_LOCK(wire) {
   d6e56:	a801      	add	r0, sp, #4
   d6e58:	f7ff ffd3 	bl	d6e02 <_ZNSt10lock_guardIR7TwoWireED1Ev>
			framAddr += count;
		}
	}

	return true;
}
   d6e5c:	4628      	mov	r0, r5
   d6e5e:	b00a      	add	sp, #40	; 0x28
   d6e60:	e8bd 81f0 	ldmia.w	sp!, {r4, r5, r6, r7, r8, pc}
			totalLen -= count;
   d6e64:	eba7 0708 	sub.w	r7, r7, r8
			framAddr += count;
   d6e68:	4446      	add	r6, r8
		while(totalLen > 0) {
   d6e6a:	e7e0      	b.n	d6e2e <_ZN6MB85RC5eraseEv+0x1e>
	WITH_LOCK(wire) {
   d6e6c:	a801      	add	r0, sp, #4
   d6e6e:	f7ff ffc8 	bl	d6e02 <_ZNSt10lock_guardIR7TwoWireED1Ev>
	return true;
   d6e72:	2501      	movs	r5, #1
   d6e74:	e7f2      	b.n	d6e5c <_ZN6MB85RC5eraseEv+0x4c>
   d6e76:	bf00      	nop
   d6e78:	2003e5e0 	.word	0x2003e5e0
   d6e7c:	000de458 	.word	0x000de458

000d6e80 <_ZN6MB85RC8readDataEjPhj>:


bool MB85RC::readData(size_t framAddr, uint8_t *data, size_t dataLen) {
   d6e80:	e92d 43f7 	stmdb	sp!, {r0, r1, r2, r4, r5, r6, r7, r8, r9, lr}
   d6e84:	4604      	mov	r4, r0
	bool result = true;

	WITH_LOCK(wire) {
   d6e86:	6840      	ldr	r0, [r0, #4]
      explicit lock_guard(mutex_type& __m) : _M_device(__m)
   d6e88:	9001      	str	r0, [sp, #4]
bool MB85RC::readData(size_t framAddr, uint8_t *data, size_t dataLen) {
   d6e8a:	460d      	mov	r5, r1
   d6e8c:	4616      	mov	r6, r2
   d6e8e:	461f      	mov	r7, r3
      { _M_device.lock(); }
   d6e90:	f001 fe44 	bl	d8b1c <_ZN7TwoWire4lockEv>

		while(dataLen > 0) {
   d6e94:	b1a7      	cbz	r7, d6ec0 <_ZN6MB85RC8readDataEjPhj+0x40>
			wire.beginTransmission(addr | DEVICE_ADDR);
   d6e96:	68e1      	ldr	r1, [r4, #12]
   d6e98:	6860      	ldr	r0, [r4, #4]
   d6e9a:	f041 0150 	orr.w	r1, r1, #80	; 0x50
   d6e9e:	f001 fe1e 	bl	d8ade <_ZN7TwoWire17beginTransmissionEi>
			wire.write(framAddr >> 8);
   d6ea2:	0a29      	lsrs	r1, r5, #8
   d6ea4:	6860      	ldr	r0, [r4, #4]
   d6ea6:	f7ff ff9b 	bl	d6de0 <_ZN7TwoWire5writeEj>
			wire.write(framAddr);
   d6eaa:	4629      	mov	r1, r5
   d6eac:	6860      	ldr	r0, [r4, #4]
   d6eae:	f7ff ff97 	bl	d6de0 <_ZN7TwoWire5writeEj>
			int stat = wire.endTransmission(false);
   d6eb2:	6860      	ldr	r0, [r4, #4]
   d6eb4:	2100      	movs	r1, #0
   d6eb6:	f001 fe2d 	bl	d8b14 <_ZN7TwoWire15endTransmissionEh>
			if (stat != 0) {
   d6eba:	b148      	cbz	r0, d6ed0 <_ZN6MB85RC8readDataEjPhj+0x50>
				//Serial.printlnf("read set address failed %d", stat);
				result = false;
   d6ebc:	2400      	movs	r4, #0
   d6ebe:	e000      	b.n	d6ec2 <_ZN6MB85RC8readDataEjPhj+0x42>
   d6ec0:	2401      	movs	r4, #1
	WITH_LOCK(wire) {
   d6ec2:	a801      	add	r0, sp, #4
   d6ec4:	f7ff ff9d 	bl	d6e02 <_ZNSt10lock_guardIR7TwoWireED1Ev>
				dataLen--;
			}
		}
	}
	return result;
}
   d6ec8:	4620      	mov	r0, r4
   d6eca:	b003      	add	sp, #12
   d6ecc:	e8bd 83f0 	ldmia.w	sp!, {r4, r5, r6, r7, r8, r9, pc}
			if (bytesToRead > 32) {
   d6ed0:	2f20      	cmp	r7, #32
			wire.requestFrom((uint8_t)(addr | DEVICE_ADDR), bytesToRead, (uint8_t) true);
   d6ed2:	7b21      	ldrb	r1, [r4, #12]
   d6ed4:	6860      	ldr	r0, [r4, #4]
   d6ed6:	46b8      	mov	r8, r7
   d6ed8:	bf28      	it	cs
   d6eda:	f04f 0820 	movcs.w	r8, #32
   d6ede:	2301      	movs	r3, #1
   d6ee0:	4642      	mov	r2, r8
   d6ee2:	f041 0150 	orr.w	r1, r1, #80	; 0x50
   d6ee6:	f001 fde4 	bl	d8ab2 <_ZN7TwoWire11requestFromEhjh>
			if (Wire.available() < (int) bytesToRead) {
   d6eea:	f004 f8a1 	bl	db030 <_Z19__fetch_global_Wirev>
   d6eee:	6803      	ldr	r3, [r0, #0]
   d6ef0:	691b      	ldr	r3, [r3, #16]
   d6ef2:	4798      	blx	r3
   d6ef4:	4540      	cmp	r0, r8
   d6ef6:	dbe1      	blt.n	d6ebc <_ZN6MB85RC8readDataEjPhj+0x3c>
   d6ef8:	eb06 0908 	add.w	r9, r6, r8
				*data++ = Wire.read();    // receive a byte as character
   d6efc:	f004 f898 	bl	db030 <_Z19__fetch_global_Wirev>
   d6f00:	6803      	ldr	r3, [r0, #0]
   d6f02:	695b      	ldr	r3, [r3, #20]
   d6f04:	4798      	blx	r3
   d6f06:	f806 0b01 	strb.w	r0, [r6], #1
			for(size_t ii = 0; ii < bytesToRead; ii++) {
   d6f0a:	454e      	cmp	r6, r9
   d6f0c:	d1f6      	bne.n	d6efc <_ZN6MB85RC8readDataEjPhj+0x7c>
   d6f0e:	4445      	add	r5, r8
   d6f10:	eba7 0708 	sub.w	r7, r7, r8
   d6f14:	e7be      	b.n	d6e94 <_ZN6MB85RC8readDataEjPhj+0x14>

000d6f16 <_ZN6MB85RC9writeDataEjPKhj>:


bool MB85RC::writeData(size_t framAddr, const uint8_t *data, size_t dataLen) {
   d6f16:	e92d 4ff7 	stmdb	sp!, {r0, r1, r2, r4, r5, r6, r7, r8, r9, sl, fp, lr}
   d6f1a:	4604      	mov	r4, r0
	bool result = true;

	WITH_LOCK(wire) {
   d6f1c:	6840      	ldr	r0, [r0, #4]
      explicit lock_guard(mutex_type& __m) : _M_device(__m)
   d6f1e:	9001      	str	r0, [sp, #4]
bool MB85RC::writeData(size_t framAddr, const uint8_t *data, size_t dataLen) {
   d6f20:	460e      	mov	r6, r1
   d6f22:	4690      	mov	r8, r2
   d6f24:	461d      	mov	r5, r3
      { _M_device.lock(); }
   d6f26:	f001 fdf9 	bl	d8b1c <_ZN7TwoWire4lockEv>
   d6f2a:	f04f 0901 	mov.w	r9, #1
	WITH_LOCK(wire) {
   d6f2e:	f1b9 0f00 	cmp.w	r9, #0
   d6f32:	d02a      	beq.n	d6f8a <_ZN6MB85RC9writeDataEjPKhj+0x74>
		while(dataLen > 0) {
   d6f34:	b34d      	cbz	r5, d6f8a <_ZN6MB85RC9writeDataEjPKhj+0x74>
			wire.beginTransmission(addr | DEVICE_ADDR);
   d6f36:	68e1      	ldr	r1, [r4, #12]
   d6f38:	6860      	ldr	r0, [r4, #4]
   d6f3a:	f041 0150 	orr.w	r1, r1, #80	; 0x50
   d6f3e:	f001 fdce 	bl	d8ade <_ZN7TwoWire17beginTransmissionEi>
			wire.write(framAddr >> 8);
   d6f42:	0a31      	lsrs	r1, r6, #8
   d6f44:	6860      	ldr	r0, [r4, #4]
   d6f46:	f7ff ff4b 	bl	d6de0 <_ZN7TwoWire5writeEj>
			wire.write(framAddr);
   d6f4a:	6860      	ldr	r0, [r4, #4]
   d6f4c:	4631      	mov	r1, r6
   d6f4e:	f7ff ff47 	bl	d6de0 <_ZN7TwoWire5writeEj>

			for(size_t ii = 0; ii < 30 && dataLen > 0; ii++) {
   d6f52:	f1a5 0a1e 	sub.w	sl, r5, #30
			wire.write(framAddr);
   d6f56:	4647      	mov	r7, r8
   d6f58:	eba6 0b08 	sub.w	fp, r6, r8
				wire.write(*data);
   d6f5c:	6860      	ldr	r0, [r4, #4]
   d6f5e:	f817 1b01 	ldrb.w	r1, [r7], #1
   d6f62:	6803      	ldr	r3, [r0, #0]
				framAddr++;
				data++;
				dataLen--;
   d6f64:	3d01      	subs	r5, #1
				wire.write(*data);
   d6f66:	689b      	ldr	r3, [r3, #8]
   d6f68:	4798      	blx	r3
			for(size_t ii = 0; ii < 30 && dataLen > 0; ii++) {
   d6f6a:	4555      	cmp	r5, sl
   d6f6c:	eb0b 0607 	add.w	r6, fp, r7
				data++;
   d6f70:	46b8      	mov	r8, r7
			for(size_t ii = 0; ii < 30 && dataLen > 0; ii++) {
   d6f72:	d001      	beq.n	d6f78 <_ZN6MB85RC9writeDataEjPKhj+0x62>
   d6f74:	2d00      	cmp	r5, #0
   d6f76:	d1f1      	bne.n	d6f5c <_ZN6MB85RC9writeDataEjPKhj+0x46>
			}

			int stat = wire.endTransmission(true);
   d6f78:	6860      	ldr	r0, [r4, #4]
   d6f7a:	2101      	movs	r1, #1
   d6f7c:	f001 fdca 	bl	d8b14 <_ZN7TwoWire15endTransmissionEh>
			if (stat != 0) {
   d6f80:	2800      	cmp	r0, #0
   d6f82:	d0d7      	beq.n	d6f34 <_ZN6MB85RC9writeDataEjPKhj+0x1e>
				//Serial.printlnf("write failed %d", stat);
				result = false;
   d6f84:	f04f 0900 	mov.w	r9, #0
   d6f88:	e7d1      	b.n	d6f2e <_ZN6MB85RC9writeDataEjPKhj+0x18>
	WITH_LOCK(wire) {
   d6f8a:	a801      	add	r0, sp, #4
   d6f8c:	f7ff ff39 	bl	d6e02 <_ZNSt10lock_guardIR7TwoWireED1Ev>
				break;
			}
		}
	}
	return result;
}
   d6f90:	4648      	mov	r0, r9
   d6f92:	b003      	add	sp, #12
   d6f94:	e8bd 8ff0 	ldmia.w	sp!, {r4, r5, r6, r7, r8, r9, sl, fp, pc}

000d6f98 <_ZN6MB85RC8moveDataEjjj>:


bool MB85RC::moveData(size_t framAddrFrom, size_t framAddrTo, size_t numBytes) {
   d6f98:	e92d 43f0 	stmdb	sp!, {r4, r5, r6, r7, r8, r9, lr}
   d6f9c:	b08b      	sub	sp, #44	; 0x2c
   d6f9e:	460e      	mov	r6, r1
   d6fa0:	4615      	mov	r5, r2
   d6fa2:	4680      	mov	r8, r0
	bool result = true;

	// Maximum number of bytes we can write is 30
	uint8_t buf[30];

	WITH_LOCK(wire) {
   d6fa4:	6840      	ldr	r0, [r0, #4]
      explicit lock_guard(mutex_type& __m) : _M_device(__m)
   d6fa6:	9001      	str	r0, [sp, #4]
bool MB85RC::moveData(size_t framAddrFrom, size_t framAddrTo, size_t numBytes) {
   d6fa8:	461c      	mov	r4, r3
      { _M_device.lock(); }
   d6faa:	f001 fdb7 	bl	d8b1c <_ZN7TwoWire4lockEv>
		if (framAddrFrom < framAddrTo) {
   d6fae:	42ae      	cmp	r6, r5
   d6fb0:	d229      	bcs.n	d7006 <_ZN6MB85RC8moveDataEjjj+0x6e>
			// Moving to a higher address - copy from the end of the from buffer
			framAddrFrom += numBytes;
   d6fb2:	4426      	add	r6, r4
			framAddrTo += numBytes;
   d6fb4:	4425      	add	r5, r4
			while(numBytes > 0) {
   d6fb6:	b18c      	cbz	r4, d6fdc <_ZN6MB85RC8moveDataEjjj+0x44>
				size_t count = numBytes;
				if (count > sizeof(buf)) {
   d6fb8:	2c1e      	cmp	r4, #30
   d6fba:	4627      	mov	r7, r4
					count = sizeof(buf);
				}
				framAddrFrom -= count;
				framAddrTo -= count;

				result = readData(framAddrFrom, buf, count);
   d6fbc:	f8d8 3000 	ldr.w	r3, [r8]
   d6fc0:	bf28      	it	cs
   d6fc2:	271e      	movcs	r7, #30
				framAddrFrom -= count;
   d6fc4:	1bf6      	subs	r6, r6, r7
				result = readData(framAddrFrom, buf, count);
   d6fc6:	f8d3 9008 	ldr.w	r9, [r3, #8]
   d6fca:	aa02      	add	r2, sp, #8
   d6fcc:	463b      	mov	r3, r7
   d6fce:	4631      	mov	r1, r6
   d6fd0:	4640      	mov	r0, r8
				framAddrTo -= count;
   d6fd2:	1bed      	subs	r5, r5, r7
				result = readData(framAddrFrom, buf, count);
   d6fd4:	47c8      	blx	r9
				if (!result) {
   d6fd6:	b948      	cbnz	r0, d6fec <_ZN6MB85RC8moveDataEjjj+0x54>
bool MB85RC::moveData(size_t framAddrFrom, size_t framAddrTo, size_t numBytes) {
   d6fd8:	2400      	movs	r4, #0
   d6fda:	e000      	b.n	d6fde <_ZN6MB85RC8moveDataEjjj+0x46>
   d6fdc:	2401      	movs	r4, #1
	WITH_LOCK(wire) {
   d6fde:	a801      	add	r0, sp, #4
   d6fe0:	f7ff ff0f 	bl	d6e02 <_ZNSt10lock_guardIR7TwoWireED1Ev>
				numBytes -= count;
			}
		}
	}
	return result;
}
   d6fe4:	4620      	mov	r0, r4
   d6fe6:	b00b      	add	sp, #44	; 0x2c
   d6fe8:	e8bd 83f0 	ldmia.w	sp!, {r4, r5, r6, r7, r8, r9, pc}
				result = writeData(framAddrTo, buf, count);
   d6fec:	f8d8 3000 	ldr.w	r3, [r8]
   d6ff0:	aa02      	add	r2, sp, #8
   d6ff2:	f8d3 900c 	ldr.w	r9, [r3, #12]
   d6ff6:	4629      	mov	r1, r5
   d6ff8:	463b      	mov	r3, r7
   d6ffa:	4640      	mov	r0, r8
   d6ffc:	47c8      	blx	r9
				if (!result) {
   d6ffe:	2800      	cmp	r0, #0
   d7000:	d0ea      	beq.n	d6fd8 <_ZN6MB85RC8moveDataEjjj+0x40>
				numBytes -= count;
   d7002:	1be4      	subs	r4, r4, r7
			while(numBytes > 0) {
   d7004:	e7d7      	b.n	d6fb6 <_ZN6MB85RC8moveDataEjjj+0x1e>
		if (framAddrFrom > framAddrTo) {
   d7006:	d9e9      	bls.n	d6fdc <_ZN6MB85RC8moveDataEjjj+0x44>
			while(numBytes > 0) {
   d7008:	2c00      	cmp	r4, #0
   d700a:	d0e7      	beq.n	d6fdc <_ZN6MB85RC8moveDataEjjj+0x44>
				result = readData(framAddrFrom, buf, count);
   d700c:	f8d8 3000 	ldr.w	r3, [r8]
   d7010:	2c1e      	cmp	r4, #30
   d7012:	4627      	mov	r7, r4
   d7014:	bf28      	it	cs
   d7016:	271e      	movcs	r7, #30
   d7018:	f8d3 9008 	ldr.w	r9, [r3, #8]
   d701c:	aa02      	add	r2, sp, #8
   d701e:	463b      	mov	r3, r7
   d7020:	4631      	mov	r1, r6
   d7022:	4640      	mov	r0, r8
   d7024:	47c8      	blx	r9
				if (!result) {
   d7026:	2800      	cmp	r0, #0
   d7028:	d0d6      	beq.n	d6fd8 <_ZN6MB85RC8moveDataEjjj+0x40>
				result = writeData(framAddrTo, buf, count);
   d702a:	f8d8 3000 	ldr.w	r3, [r8]
   d702e:	aa02      	add	r2, sp, #8
   d7030:	f8d3 900c 	ldr.w	r9, [r3, #12]
   d7034:	4629      	mov	r1, r5
   d7036:	463b      	mov	r3, r7
   d7038:	4640      	mov	r0, r8
   d703a:	47c8      	blx	r9
				if (!result) {
   d703c:	2800      	cmp	r0, #0
   d703e:	d0cb      	beq.n	d6fd8 <_ZN6MB85RC8moveDataEjjj+0x40>
				framAddrFrom += count;
   d7040:	443e      	add	r6, r7
				framAddrTo += count;
   d7042:	443d      	add	r5, r7
				numBytes -= count;
   d7044:	1be4      	subs	r4, r4, r7
			while(numBytes > 0) {
   d7046:	e7df      	b.n	d7008 <_ZN6MB85RC8moveDataEjjj+0x70>

000d7048 <_ZNSt17_Function_handlerIFvR21PublishQueueAsyncBaseEMS0_FvvEE10_M_managerERSt9_Any_dataRKS6_St18_Manager_operation>:
	switch (__op)
   d7048:	2a01      	cmp	r2, #1
      _M_manager(_Any_data& __dest, const _Any_data& __source,
   d704a:	4603      	mov	r3, r0
	switch (__op)
   d704c:	d102      	bne.n	d7054 <_ZNSt17_Function_handlerIFvR21PublishQueueAsyncBaseEMS0_FvvEE10_M_managerERSt9_Any_dataRKS6_St18_Manager_operation+0xc>
	    __dest._M_access<_Functor*>() =
   d704e:	6001      	str	r1, [r0, #0]
      }
   d7050:	2000      	movs	r0, #0
   d7052:	4770      	bx	lr
	  switch (__op)
   d7054:	2a02      	cmp	r2, #2
	  ::new (__dest._M_access()) _Functor(__source._M_access<_Functor>());
   d7056:	bf04      	itt	eq
   d7058:	e9d1 0100 	ldrdeq	r0, r1, [r1]
   d705c:	e9c3 0100 	strdeq	r0, r1, [r3]
	}
   d7060:	e7f6      	b.n	d7050 <_ZNSt17_Function_handlerIFvR21PublishQueueAsyncBaseEMS0_FvvEE10_M_managerERSt9_Any_dataRKS6_St18_Manager_operation+0x8>

000d7062 <_ZN6Thread3runEPv>:
        return *this;
    }

private:

    static os_thread_return_t run(void* param) {
   d7062:	b510      	push	{r4, lr}
        Data* th = (Data*)param;
        th->started = true;
   d7064:	2301      	movs	r3, #1
   d7066:	7403      	strb	r3, [r0, #16]
        if (th->func) {
   d7068:	6883      	ldr	r3, [r0, #8]
    static os_thread_return_t run(void* param) {
   d706a:	4604      	mov	r4, r0
        if (th->func) {
   d706c:	b143      	cbz	r3, d7080 <_ZN6Thread3runEPv+0x1e>
            (*(th->func))(th->func_param);
   d706e:	68c0      	ldr	r0, [r0, #12]
      return _M_invoker(_M_functor, std::forward<_ArgTypes>(__args)...);
   d7070:	4798      	blx	r3
        } else if (th->wrapper) {
            (*(th->wrapper))();
        }
        th->exited = true;
   d7072:	2301      	movs	r3, #1
   d7074:	7463      	strb	r3, [r4, #17]
        os_thread_exit(nullptr);
   d7076:	2000      	movs	r0, #0
    }
   d7078:	e8bd 4010 	ldmia.w	sp!, {r4, lr}
        os_thread_exit(nullptr);
   d707c:	f000 bbb2 	b.w	d77e4 <os_thread_exit>
      template<typename _Del>
      __uniq_ptr_impl(pointer __p, _Del&& __d)
	: _M_t(__p, std::forward<_Del>(__d)) { }

      pointer&   _M_ptr() { return std::get<0>(_M_t); }
      pointer    _M_ptr() const { return std::get<0>(_M_t); }
   d7080:	6800      	ldr	r0, [r0, #0]
        } else if (th->wrapper) {
   d7082:	2800      	cmp	r0, #0
   d7084:	d0f5      	beq.n	d7072 <_ZN6Thread3runEPv+0x10>
      if (_M_empty())
   d7086:	6883      	ldr	r3, [r0, #8]
   d7088:	b90b      	cbnz	r3, d708e <_ZN6Thread3runEPv+0x2c>
	__throw_bad_function_call();
   d708a:	f004 f82c 	bl	db0e6 <_ZSt25__throw_bad_function_callv>
      return _M_invoker(_M_functor, std::forward<_ArgTypes>(__args)...);
   d708e:	68c3      	ldr	r3, [r0, #12]
   d7090:	e7ee      	b.n	d7070 <_ZN6Thread3runEPv+0xe>

000d7092 <_ZNSt17_Function_handlerIFvR21PublishQueueAsyncBaseEMS0_FvvEE9_M_invokeERKSt9_Any_dataS1_>:
      _M_invoke(const _Any_data& __functor, _ArgTypes&&... __args)
   d7092:	b410      	push	{r4}

  template<typename _Res, typename _MemFun, typename _Tp, typename... _Args>
    constexpr _Res
    __invoke_impl(__invoke_memfun_ref, _MemFun&& __f, _Tp&& __t,
		  _Args&&... __args)
    { return (__invfwd<_Tp>(__t).*__f)(std::forward<_Args>(__args)...); }
   d7094:	6842      	ldr	r2, [r0, #4]
   d7096:	4603      	mov	r3, r0
   d7098:	1054      	asrs	r4, r2, #1
   d709a:	eb01 0062 	add.w	r0, r1, r2, asr #1
   d709e:	07d2      	lsls	r2, r2, #31
   d70a0:	bf48      	it	mi
   d70a2:	590a      	ldrmi	r2, [r1, r4]
   d70a4:	681b      	ldr	r3, [r3, #0]
      }
   d70a6:	f85d 4b04 	ldr.w	r4, [sp], #4
   d70aa:	bf48      	it	mi
   d70ac:	58d3      	ldrmi	r3, [r2, r3]
   d70ae:	4718      	bx	r3

000d70b0 <_ZN21PublishQueueAsyncBase5setupEv>:

PublishQueueAsyncBase::~PublishQueueAsyncBase() {

}

void PublishQueueAsyncBase::setup() {
   d70b0:	b5f7      	push	{r0, r1, r2, r4, r5, r6, r7, lr}
   d70b2:	4606      	mov	r6, r0

	if (system_thread_get_state(nullptr) != spark::feature::ENABLED) {
   d70b4:	2000      	movs	r0, #0
   d70b6:	f000 fdaf 	bl	d7c18 <system_thread_get_state>
   d70ba:	2801      	cmp	r0, #1
   d70bc:	d005      	beq.n	d70ca <_ZN21PublishQueueAsyncBase5setupEv+0x1a>
		pubqLogger.error("SYSTEM_THREAD(ENABLED) is required");
   d70be:	4923      	ldr	r1, [pc, #140]	; (d714c <_ZN21PublishQueueAsyncBase5setupEv+0x9c>)
   d70c0:	4823      	ldr	r0, [pc, #140]	; (d7150 <_ZN21PublishQueueAsyncBase5setupEv+0xa0>)
   d70c2:	f7fd f9e6 	bl	d4492 <_ZNK5spark6Logger5errorEPKcz>

	os_mutex_create(&mutex);

	thread = new Thread("PublishQueueAsync", threadFunctionStatic, this, OS_THREAD_PRIORITY_DEFAULT, 2048);

}
   d70c6:	b003      	add	sp, #12
   d70c8:	bdf0      	pop	{r4, r5, r6, r7, pc}
	haveSetup = true;
   d70ca:	f886 0029 	strb.w	r0, [r6, #41]	; 0x29
	os_mutex_create(&mutex);
   d70ce:	f106 0008 	add.w	r0, r6, #8
   d70d2:	f000 fb4f 	bl	d7774 <os_mutex_create>
	thread = new Thread("PublishQueueAsync", threadFunctionStatic, this, OS_THREAD_PRIORITY_DEFAULT, 2048);
   d70d6:	2004      	movs	r0, #4
   d70d8:	f7fc ffdd 	bl	d4096 <_Znwj>
   d70dc:	4605      	mov	r5, r0
   d70de:	b398      	cbz	r0, d7148 <_ZN21PublishQueueAsyncBase5setupEv+0x98>
        : d_(new(std::nothrow) Data)
   d70e0:	491c      	ldr	r1, [pc, #112]	; (d7154 <_ZN21PublishQueueAsyncBase5setupEv+0xa4>)
   d70e2:	2014      	movs	r0, #20
   d70e4:	f003 fffb 	bl	db0de <_ZnwjRKSt9nothrow_t>
   d70e8:	b130      	cbz	r0, d70f8 <_ZN21PublishQueueAsyncBase5setupEv+0x48>

  template<std::size_t _Idx, typename _Head>
    struct _Head_base<_Idx, _Head, false>
    {
      constexpr _Head_base()
      : _M_head_impl() { }
   d70ea:	2300      	movs	r3, #0
            exited(false) {
   d70ec:	e9c0 3300 	strd	r3, r3, [r0]
   d70f0:	e9c0 3302 	strd	r3, r3, [r0, #8]
   d70f4:	7403      	strb	r3, [r0, #16]
   d70f6:	7443      	strb	r3, [r0, #17]
      __uniq_ptr_impl(pointer __p) : _M_t() { _M_ptr() = __p; }
   d70f8:	6028      	str	r0, [r5, #0]
        if (!d_) {
   d70fa:	b1a0      	cbz	r0, d7126 <_ZN21PublishQueueAsyncBase5setupEv+0x76>
        d_->func = function;
   d70fc:	4b16      	ldr	r3, [pc, #88]	; (d7158 <_ZN21PublishQueueAsyncBase5setupEv+0xa8>)
        if (os_thread_create(&d_->handle, name, priority, &Thread::run, d_.get(), stack_size) != 0) {
   d70fe:	4917      	ldr	r1, [pc, #92]	; (d715c <_ZN21PublishQueueAsyncBase5setupEv+0xac>)
        d_->func_param = function_param;
   d7100:	e9c0 3602 	strd	r3, r6, [r0, #8]
        if (os_thread_create(&d_->handle, name, priority, &Thread::run, d_.get(), stack_size) != 0) {
   d7104:	f44f 6300 	mov.w	r3, #2048	; 0x800
   d7108:	e9cd 0300 	strd	r0, r3, [sp]
   d710c:	2202      	movs	r2, #2
   d710e:	4b14      	ldr	r3, [pc, #80]	; (d7160 <_ZN21PublishQueueAsyncBase5setupEv+0xb0>)
   d7110:	3004      	adds	r0, #4
   d7112:	f000 faf7 	bl	d7704 <os_thread_create>
   d7116:	b930      	cbnz	r0, d7126 <_ZN21PublishQueueAsyncBase5setupEv+0x76>
      pointer    _M_ptr() const { return std::get<0>(_M_t); }
   d7118:	682b      	ldr	r3, [r5, #0]
        while (!d_->started) {
   d711a:	7c1b      	ldrb	r3, [r3, #16]
   d711c:	b9a3      	cbnz	r3, d7148 <_ZN21PublishQueueAsyncBase5setupEv+0x98>
            HAL_Delay_Milliseconds(1);
   d711e:	2001      	movs	r0, #1
   d7120:	f000 fb88 	bl	d7834 <HAL_Delay_Milliseconds>
        while (!d_->started) {
   d7124:	e7f8      	b.n	d7118 <_ZN21PublishQueueAsyncBase5setupEv+0x68>
      _Tp __tmp = _GLIBCXX_MOVE(__a);
   d7126:	682c      	ldr	r4, [r5, #0]
      __a = _GLIBCXX_MOVE(__b);
   d7128:	2300      	movs	r3, #0
   d712a:	602b      	str	r3, [r5, #0]
      {
	static_assert(__is_invocable<deleter_type&, pointer>::value,
		      "unique_ptr's deleter must be invocable with a pointer");
	using std::swap;
	swap(_M_t._M_ptr(), __p);
	if (__p != pointer())
   d712c:	b164      	cbz	r4, d7148 <_ZN21PublishQueueAsyncBase5setupEv+0x98>
	if (__ptr != nullptr)
   d712e:	6827      	ldr	r7, [r4, #0]
   d7130:	b137      	cbz	r7, d7140 <_ZN21PublishQueueAsyncBase5setupEv+0x90>
    class function<_Res(_ArgTypes...)>
   d7132:	4638      	mov	r0, r7
   d7134:	f7fd f8e6 	bl	d4304 <_ZNSt14_Function_baseD1Ev>
	delete __ptr;
   d7138:	2110      	movs	r1, #16
   d713a:	4638      	mov	r0, r7
   d713c:	f003 ffcd 	bl	db0da <_ZdlPvj>
   d7140:	2114      	movs	r1, #20
   d7142:	4620      	mov	r0, r4
   d7144:	f003 ffc9 	bl	db0da <_ZdlPvj>
   d7148:	6075      	str	r5, [r6, #4]
   d714a:	e7bc      	b.n	d70c6 <_ZN21PublishQueueAsyncBase5setupEv+0x16>
   d714c:	000de4a0 	.word	0x000de4a0
   d7150:	2003e594 	.word	0x2003e594
   d7154:	000de9d4 	.word	0x000de9d4
   d7158:	000d73ab 	.word	0x000d73ab
   d715c:	000de4c3 	.word	0x000de4c3
   d7160:	000d7063 	.word	0x000d7063

000d7164 <_ZN21PublishQueueAsyncBaseC1Ev>:
PublishQueueAsyncBase::PublishQueueAsyncBase() {
   d7164:	f247 5130 	movw	r1, #30000	; 0x7530
   d7168:	4a08      	ldr	r2, [pc, #32]	; (d718c <_ZN21PublishQueueAsyncBaseC1Ev+0x28>)
   d716a:	60c1      	str	r1, [r0, #12]
	{ ::new (__functor._M_access()) _Functor(std::move(__f)); }
   d716c:	4908      	ldr	r1, [pc, #32]	; (d7190 <_ZN21PublishQueueAsyncBaseC1Ev+0x2c>)
   d716e:	6002      	str	r2, [r0, #0]
   d7170:	2200      	movs	r2, #0
   d7172:	e9c0 1204 	strd	r1, r2, [r0, #16]
	    _M_invoker = &_My_handler::_M_invoke;
   d7176:	4907      	ldr	r1, [pc, #28]	; (d7194 <_ZN21PublishQueueAsyncBaseC1Ev+0x30>)
   d7178:	61c1      	str	r1, [r0, #28]
	    _M_manager = &_My_handler::_M_manager;
   d717a:	4907      	ldr	r1, [pc, #28]	; (d7198 <_ZN21PublishQueueAsyncBaseC1Ev+0x34>)
   d717c:	6042      	str	r2, [r0, #4]
   d717e:	e9c0 2208 	strd	r2, r2, [r0, #32]
   d7182:	6181      	str	r1, [r0, #24]
   d7184:	8502      	strh	r2, [r0, #40]	; 0x28
   d7186:	f880 202a 	strb.w	r2, [r0, #42]	; 0x2a
}
   d718a:	4770      	bx	lr
   d718c:	000de6a8 	.word	0x000de6a8
   d7190:	000d7595 	.word	0x000d7595
   d7194:	000d7093 	.word	0x000d7093
   d7198:	000d7049 	.word	0x000d7049

000d719c <_ZN21PublishQueueAsyncBaseD1Ev>:
PublishQueueAsyncBase::~PublishQueueAsyncBase() {
   d719c:	b510      	push	{r4, lr}
   d719e:	4b04      	ldr	r3, [pc, #16]	; (d71b0 <_ZN21PublishQueueAsyncBaseD1Ev+0x14>)
   d71a0:	4604      	mov	r4, r0
   d71a2:	f840 3b10 	str.w	r3, [r0], #16
    class function<_Res(_ArgTypes...)>
   d71a6:	f7fd f8ad 	bl	d4304 <_ZNSt14_Function_baseD1Ev>
}
   d71aa:	4620      	mov	r0, r4
   d71ac:	bd10      	pop	{r4, pc}
   d71ae:	bf00      	nop
   d71b0:	000de6a8 	.word	0x000de6a8

000d71b4 <_ZN25PublishQueueAsyncRetainedD1Ev>:
PublishQueueAsyncRetained::PublishQueueAsyncRetained(uint8_t *retainedBuffer, uint16_t retainedBufferSize) :
		retainedBuffer(retainedBuffer), retainedBufferSize(retainedBufferSize) {

}

PublishQueueAsyncRetained::~PublishQueueAsyncRetained() {
   d71b4:	b510      	push	{r4, lr}
   d71b6:	4b03      	ldr	r3, [pc, #12]	; (d71c4 <_ZN25PublishQueueAsyncRetainedD1Ev+0x10>)
   d71b8:	6003      	str	r3, [r0, #0]
   d71ba:	4604      	mov	r4, r0
   d71bc:	f7ff ffee 	bl	d719c <_ZN21PublishQueueAsyncBaseD1Ev>

}
   d71c0:	4620      	mov	r0, r4
   d71c2:	bd10      	pop	{r4, pc}
   d71c4:	000de6d0 	.word	0x000de6d0

000d71c8 <_ZN25PublishQueueAsyncRetainedD0Ev>:
PublishQueueAsyncRetained::~PublishQueueAsyncRetained() {
   d71c8:	b510      	push	{r4, lr}
   d71ca:	4604      	mov	r4, r0
}
   d71cc:	f7ff fff2 	bl	d71b4 <_ZN25PublishQueueAsyncRetainedD1Ev>
   d71d0:	4620      	mov	r0, r4
   d71d2:	2138      	movs	r1, #56	; 0x38
   d71d4:	f003 ff81 	bl	db0da <_ZdlPvj>
   d71d8:	4620      	mov	r0, r4
   d71da:	bd10      	pop	{r4, pc}

000d71dc <_ZNK21PublishQueueAsyncBase9mutexLockEv>:
	os_mutex_lock(mutex);
   d71dc:	6880      	ldr	r0, [r0, #8]
   d71de:	f000 bad1 	b.w	d7784 <os_mutex_lock>

000d71e2 <_ZNK21PublishQueueAsyncBase11mutexUnlockEv>:
	os_mutex_unlock(mutex);
   d71e2:	6880      	ldr	r0, [r0, #8]
   d71e4:	f000 bad6 	b.w	d7794 <os_mutex_unlock>

000d71e8 <_ZN11StMutexLockD1Ev>:
	}

	/**
	 * @brief Unlock the mutex on destructor
	 */
	~StMutexLock() {
   d71e8:	b510      	push	{r4, lr}
   d71ea:	4604      	mov	r4, r0
		publishQueue->mutexUnlock();
   d71ec:	6800      	ldr	r0, [r0, #0]
   d71ee:	f7ff fff8 	bl	d71e2 <_ZNK21PublishQueueAsyncBase11mutexUnlockEv>
	}
   d71f2:	4620      	mov	r0, r4
   d71f4:	bd10      	pop	{r4, pc}

000d71f6 <_ZN25PublishQueueAsyncRetained14getOldestEventEv>:
	// Not reached
	return false;
}


PublishQueueEventData *PublishQueueAsyncRetained::getOldestEvent() {
   d71f6:	b513      	push	{r0, r1, r4, lr}
   d71f8:	4604      	mov	r4, r0
	StMutexLock(const PublishQueueAsyncBase *publishQueue) : publishQueue(publishQueue) {
   d71fa:	9001      	str	r0, [sp, #4]
		publishQueue->mutexLock();
   d71fc:	f7ff ffee 	bl	d71dc <_ZNK21PublishQueueAsyncBase9mutexLockEv>
	// This entire function holds a mutex lock that's released when returning
	StMutexLock lock(this);
	PublishQueueEventData *eventData = NULL;

	volatile PublishQueueHeader *hdr = reinterpret_cast<PublishQueueHeader *>(retainedBuffer);
   d7200:	6ae3      	ldr	r3, [r4, #44]	; 0x2c
	if (hdr->numEvents > 0) {
   d7202:	88dc      	ldrh	r4, [r3, #6]
   d7204:	b2a4      	uxth	r4, r4
   d7206:	b10c      	cbz	r4, d720c <_ZN25PublishQueueAsyncRetained14getOldestEventEv+0x16>
		eventData = reinterpret_cast<PublishQueueEventData *>(&retainedBuffer[sizeof(PublishQueueHeader)]);
   d7208:	f103 0408 	add.w	r4, r3, #8
	StMutexLock lock(this);
   d720c:	a801      	add	r0, sp, #4
   d720e:	f7ff ffeb 	bl	d71e8 <_ZN11StMutexLockD1Ev>
	}

	return eventData;
}
   d7212:	4620      	mov	r0, r4
   d7214:	b002      	add	sp, #8
   d7216:	bd10      	pop	{r4, pc}

000d7218 <_ZN25PublishQueueAsyncRetained11clearEventsEv>:

bool PublishQueueAsyncRetained::clearEvents() {
   d7218:	b513      	push	{r0, r1, r4, lr}
   d721a:	4604      	mov	r4, r0
	StMutexLock(const PublishQueueAsyncBase *publishQueue) : publishQueue(publishQueue) {
   d721c:	9001      	str	r0, [sp, #4]
		publishQueue->mutexLock();
   d721e:	f7ff ffdd 	bl	d71dc <_ZNK21PublishQueueAsyncBase9mutexLockEv>

	// This entire function holds a mutex lock that's released when returning
	StMutexLock lock(this);

	PublishQueueHeader *hdr = reinterpret_cast<PublishQueueHeader *>(retainedBuffer);
   d7222:	6ae2      	ldr	r2, [r4, #44]	; 0x2c
	hdr->numEvents = 0;
	nextFree = &retainedBuffer[sizeof(PublishQueueHeader)];
	isSending = false;
	lastPublish = 0;

    pubqLogger.trace("clearEvents numEvents=%d size=%d", (int)hdr->numEvents, (int)hdr->size);
   d7224:	4809      	ldr	r0, [pc, #36]	; (d724c <_ZN25PublishQueueAsyncRetained11clearEventsEv+0x34>)
	hdr->numEvents = 0;
   d7226:	2300      	movs	r3, #0
   d7228:	80d3      	strh	r3, [r2, #6]
	nextFree = &retainedBuffer[sizeof(PublishQueueHeader)];
   d722a:	6ae1      	ldr	r1, [r4, #44]	; 0x2c
	isSending = false;
   d722c:	f884 3028 	strb.w	r3, [r4, #40]	; 0x28
	nextFree = &retainedBuffer[sizeof(PublishQueueHeader)];
   d7230:	3108      	adds	r1, #8
   d7232:	6361      	str	r1, [r4, #52]	; 0x34
	lastPublish = 0;
   d7234:	6263      	str	r3, [r4, #36]	; 0x24
    pubqLogger.trace("clearEvents numEvents=%d size=%d", (int)hdr->numEvents, (int)hdr->size);
   d7236:	8893      	ldrh	r3, [r2, #4]
   d7238:	4905      	ldr	r1, [pc, #20]	; (d7250 <_ZN25PublishQueueAsyncRetained11clearEventsEv+0x38>)
   d723a:	88d2      	ldrh	r2, [r2, #6]
   d723c:	f7ff f862 	bl	d6304 <_ZNK5spark6Logger5traceEPKcz>
	StMutexLock lock(this);
   d7240:	a801      	add	r0, sp, #4
   d7242:	f7ff ffd1 	bl	d71e8 <_ZN11StMutexLockD1Ev>

	return true;
}
   d7246:	2001      	movs	r0, #1
   d7248:	b002      	add	sp, #8
   d724a:	bd10      	pop	{r4, pc}
   d724c:	2003e594 	.word	0x2003e594
   d7250:	000de4d5 	.word	0x000de4d5

000d7254 <_ZNK25PublishQueueAsyncRetained12getNumEventsEv>:


	return true;
}

uint16_t PublishQueueAsyncRetained::getNumEvents() const {
   d7254:	b513      	push	{r0, r1, r4, lr}
   d7256:	4604      	mov	r4, r0
	StMutexLock(const PublishQueueAsyncBase *publishQueue) : publishQueue(publishQueue) {
   d7258:	9001      	str	r0, [sp, #4]
		publishQueue->mutexLock();
   d725a:	f7ff ffbf 	bl	d71dc <_ZNK21PublishQueueAsyncBase9mutexLockEv>

	{
		StMutexLock lock(this);

		PublishQueueHeader *hdr = reinterpret_cast<PublishQueueHeader *>(retainedBuffer);
		numEvents = hdr->numEvents;
   d725e:	6ae3      	ldr	r3, [r4, #44]	; 0x2c
		StMutexLock lock(this);
   d7260:	a801      	add	r0, sp, #4
		numEvents = hdr->numEvents;
   d7262:	88dc      	ldrh	r4, [r3, #6]
		StMutexLock lock(this);
   d7264:	f7ff ffc0 	bl	d71e8 <_ZN11StMutexLockD1Ev>
	}

	return numEvents;
}
   d7268:	4620      	mov	r0, r4
   d726a:	b002      	add	sp, #8
   d726c:	bd10      	pop	{r4, pc}
	...

000d7270 <_ZN25PublishQueueAsyncRetained13publishCommonEPKcS1_iN8particle5FlagsI15PublishFlagTypehEES5_>:
bool PublishQueueAsyncRetained::publishCommon(const char *eventName, const char *data, int ttl, PublishFlags flags1, PublishFlags flags2) {
   d7270:	e92d 47f0 	stmdb	sp!, {r4, r5, r6, r7, r8, r9, sl, lr}
   d7274:	4699      	mov	r9, r3
   d7276:	b086      	sub	sp, #24
	if (!haveSetup) {
   d7278:	f890 3029 	ldrb.w	r3, [r0, #41]	; 0x29
   d727c:	f89d a038 	ldrb.w	sl, [sp, #56]	; 0x38
   d7280:	f89d 803c 	ldrb.w	r8, [sp, #60]	; 0x3c
bool PublishQueueAsyncRetained::publishCommon(const char *eventName, const char *data, int ttl, PublishFlags flags1, PublishFlags flags2) {
   d7284:	4604      	mov	r4, r0
   d7286:	460f      	mov	r7, r1
   d7288:	4616      	mov	r6, r2
	if (!haveSetup) {
   d728a:	b913      	cbnz	r3, d7292 <_ZN25PublishQueueAsyncRetained13publishCommonEPKcS1_iN8particle5FlagsI15PublishFlagTypehEES5_+0x22>
		setup();
   d728c:	6803      	ldr	r3, [r0, #0]
   d728e:	689b      	ldr	r3, [r3, #8]
   d7290:	4798      	blx	r3
		data = "";
   d7292:	4b39      	ldr	r3, [pc, #228]	; (d7378 <_ZN25PublishQueueAsyncRetained13publishCommonEPKcS1_iN8particle5FlagsI15PublishFlagTypehEES5_+0x108>)
	size_t size = sizeof(PublishQueueEventData) + strlen(eventName) + strlen(data) + 2;
   d7294:	4638      	mov	r0, r7
		data = "";
   d7296:	2e00      	cmp	r6, #0
   d7298:	bf08      	it	eq
   d729a:	461e      	moveq	r6, r3
	size_t size = sizeof(PublishQueueEventData) + strlen(eventName) + strlen(data) + 2;
   d729c:	f004 fd61 	bl	dbd62 <strlen>
   d72a0:	4605      	mov	r5, r0
   d72a2:	4630      	mov	r0, r6
   d72a4:	f004 fd5d 	bl	dbd62 <strlen>
   d72a8:	4428      	add	r0, r5
   d72aa:	f100 050a 	add.w	r5, r0, #10
	if ((size % 4) != 0) {
   d72ae:	07ab      	lsls	r3, r5, #30
		size += 4 - (size % 4);
   d72b0:	bf1c      	itt	ne
   d72b2:	f025 0503 	bicne.w	r5, r5, #3
   d72b6:	3504      	addne	r5, #4
	pubqLogger.info("queueing eventName=%s data=%s ttl=%d flags1=%d flags2=%d size=%d", eventName, data, ttl, flags1.value(), flags2.value(), size);
   d72b8:	4633      	mov	r3, r6
   d72ba:	e9cd 8502 	strd	r8, r5, [sp, #8]
   d72be:	e9cd 9a00 	strd	r9, sl, [sp]
   d72c2:	492e      	ldr	r1, [pc, #184]	; (d737c <_ZN25PublishQueueAsyncRetained13publishCommonEPKcS1_iN8particle5FlagsI15PublishFlagTypehEES5_+0x10c>)
   d72c4:	482e      	ldr	r0, [pc, #184]	; (d7380 <_ZN25PublishQueueAsyncRetained13publishCommonEPKcS1_iN8particle5FlagsI15PublishFlagTypehEES5_+0x110>)
   d72c6:	463a      	mov	r2, r7
   d72c8:	f7fd f8cc 	bl	d4464 <_ZNK5spark6Logger4infoEPKcz>
	if  (size > (retainedBufferSize - sizeof(PublishQueueHeader))) {
   d72cc:	8e23      	ldrh	r3, [r4, #48]	; 0x30
   d72ce:	3b08      	subs	r3, #8
   d72d0:	42ab      	cmp	r3, r5
   d72d2:	d212      	bcs.n	d72fa <_ZN25PublishQueueAsyncRetained13publishCommonEPKcS1_iN8particle5FlagsI15PublishFlagTypehEES5_+0x8a>
		return false;
   d72d4:	2400      	movs	r4, #0
}
   d72d6:	4620      	mov	r0, r4
   d72d8:	b006      	add	sp, #24
   d72da:	e8bd 87f0 	ldmia.w	sp!, {r4, r5, r6, r7, r8, r9, sl, pc}
			if (hdr->numEvents == 1) {
   d72de:	88db      	ldrh	r3, [r3, #6]
   d72e0:	2b01      	cmp	r3, #1
   d72e2:	d047      	beq.n	d7374 <_ZN25PublishQueueAsyncRetained13publishCommonEPKcS1_iN8particle5FlagsI15PublishFlagTypehEES5_+0x104>
			StMutexLock lock(this);
   d72e4:	a805      	add	r0, sp, #20
   d72e6:	f7ff ff7f 	bl	d71e8 <_ZN11StMutexLockD1Ev>
		if (!discardOldEvent(isSending)) {
   d72ea:	6823      	ldr	r3, [r4, #0]
   d72ec:	f894 1028 	ldrb.w	r1, [r4, #40]	; 0x28
   d72f0:	699b      	ldr	r3, [r3, #24]
   d72f2:	4620      	mov	r0, r4
   d72f4:	4798      	blx	r3
   d72f6:	2800      	cmp	r0, #0
   d72f8:	d0ec      	beq.n	d72d4 <_ZN25PublishQueueAsyncRetained13publishCommonEPKcS1_iN8particle5FlagsI15PublishFlagTypehEES5_+0x64>
   d72fa:	4620      	mov	r0, r4
	StMutexLock(const PublishQueueAsyncBase *publishQueue) : publishQueue(publishQueue) {
   d72fc:	9405      	str	r4, [sp, #20]
		publishQueue->mutexLock();
   d72fe:	f7ff ff6d 	bl	d71dc <_ZNK21PublishQueueAsyncBase9mutexLockEv>
			uint8_t *end = &retainedBuffer[retainedBufferSize];
   d7302:	6ae3      	ldr	r3, [r4, #44]	; 0x2c
   d7304:	8e21      	ldrh	r1, [r4, #48]	; 0x30
			if ((size_t)(end - nextFree) >= size) {
   d7306:	6b62      	ldr	r2, [r4, #52]	; 0x34
			uint8_t *end = &retainedBuffer[retainedBufferSize];
   d7308:	4419      	add	r1, r3
			if ((size_t)(end - nextFree) >= size) {
   d730a:	1a89      	subs	r1, r1, r2
   d730c:	42a9      	cmp	r1, r5
   d730e:	d3e6      	bcc.n	d72de <_ZN25PublishQueueAsyncRetained13publishCommonEPKcS1_iN8particle5FlagsI15PublishFlagTypehEES5_+0x6e>
				pubqLogger.trace("saving event at nextFree=%d", (int)(nextFree - retainedBuffer));
   d7310:	1ad2      	subs	r2, r2, r3
   d7312:	491c      	ldr	r1, [pc, #112]	; (d7384 <_ZN25PublishQueueAsyncRetained13publishCommonEPKcS1_iN8particle5FlagsI15PublishFlagTypehEES5_+0x114>)
   d7314:	481a      	ldr	r0, [pc, #104]	; (d7380 <_ZN25PublishQueueAsyncRetained13publishCommonEPKcS1_iN8particle5FlagsI15PublishFlagTypehEES5_+0x110>)
   d7316:	f7fe fff5 	bl	d6304 <_ZNK5spark6Logger5traceEPKcz>
				PublishQueueEventData *eventData = reinterpret_cast<PublishQueueEventData *>(nextFree);
   d731a:	6b63      	ldr	r3, [r4, #52]	; 0x34
				eventData->flags = flags1.value() | flags2.value();
   d731c:	ea48 080a 	orr.w	r8, r8, sl
   d7320:	f883 8004 	strb.w	r8, [r3, #4]
				eventData->size = size;
   d7324:	80dd      	strh	r5, [r3, #6]
				eventData->ttl = ttl;
   d7326:	f8c3 9000 	str.w	r9, [r3]
				char *cp = reinterpret_cast<char *>(nextFree);
   d732a:	6b63      	ldr	r3, [r4, #52]	; 0x34
				cp += sizeof(PublishQueueEventData);
   d732c:	f103 0808 	add.w	r8, r3, #8
				strcpy(cp, eventName);
   d7330:	4639      	mov	r1, r7
   d7332:	4640      	mov	r0, r8
   d7334:	f004 fcef 	bl	dbd16 <strcpy>
				cp += strlen(cp) + 1;
   d7338:	4640      	mov	r0, r8
   d733a:	f004 fd12 	bl	dbd62 <strlen>
   d733e:	3001      	adds	r0, #1
				strcpy(cp, data);
   d7340:	4631      	mov	r1, r6
   d7342:	4440      	add	r0, r8
   d7344:	f004 fce7 	bl	dbd16 <strcpy>
				nextFree += size;
   d7348:	6b63      	ldr	r3, [r4, #52]	; 0x34
   d734a:	441d      	add	r5, r3
				PublishQueueHeader *hdr = reinterpret_cast<PublishQueueHeader *>(retainedBuffer);
   d734c:	6ae3      	ldr	r3, [r4, #44]	; 0x2c
				nextFree += size;
   d734e:	6365      	str	r5, [r4, #52]	; 0x34
				hdr->numEvents++;
   d7350:	88da      	ldrh	r2, [r3, #6]
   d7352:	3201      	adds	r2, #1
   d7354:	b292      	uxth	r2, r2
   d7356:	80da      	strh	r2, [r3, #6]
				pubqLogger.trace("after saving numEvents=%d nextFree=%d end=%d", (int)hdr->numEvents, (int)(nextFree - retainedBuffer), retainedBufferSize);
   d7358:	6b61      	ldr	r1, [r4, #52]	; 0x34
   d735a:	6ae3      	ldr	r3, [r4, #44]	; 0x2c
   d735c:	8e20      	ldrh	r0, [r4, #48]	; 0x30
   d735e:	9000      	str	r0, [sp, #0]
   d7360:	1acb      	subs	r3, r1, r3
   d7362:	4807      	ldr	r0, [pc, #28]	; (d7380 <_ZN25PublishQueueAsyncRetained13publishCommonEPKcS1_iN8particle5FlagsI15PublishFlagTypehEES5_+0x110>)
   d7364:	4908      	ldr	r1, [pc, #32]	; (d7388 <_ZN25PublishQueueAsyncRetained13publishCommonEPKcS1_iN8particle5FlagsI15PublishFlagTypehEES5_+0x118>)
   d7366:	f7fe ffcd 	bl	d6304 <_ZNK5spark6Logger5traceEPKcz>
				return true;
   d736a:	2401      	movs	r4, #1
			StMutexLock lock(this);
   d736c:	a805      	add	r0, sp, #20
   d736e:	f7ff ff3b 	bl	d71e8 <_ZN11StMutexLockD1Ev>
   d7372:	e7b0      	b.n	d72d6 <_ZN25PublishQueueAsyncRetained13publishCommonEPKcS1_iN8particle5FlagsI15PublishFlagTypehEES5_+0x66>
				return false;
   d7374:	2400      	movs	r4, #0
   d7376:	e7f9      	b.n	d736c <_ZN25PublishQueueAsyncRetained13publishCommonEPKcS1_iN8particle5FlagsI15PublishFlagTypehEES5_+0xfc>
   d7378:	000de851 	.word	0x000de851
   d737c:	000de4f6 	.word	0x000de4f6
   d7380:	2003e594 	.word	0x2003e594
   d7384:	000de537 	.word	0x000de537
   d7388:	000de553 	.word	0x000de553

000d738c <_ZN21PublishQueueAsyncBase14threadFunctionEv>:
void PublishQueueAsyncBase::threadFunction() {
   d738c:	b508      	push	{r3, lr}
   d738e:	4604      	mov	r4, r0
      return _M_invoker(_M_functor, std::forward<_ArgTypes>(__args)...);
   d7390:	f100 0510 	add.w	r5, r0, #16
      if (_M_empty())
   d7394:	69a3      	ldr	r3, [r4, #24]
   d7396:	b90b      	cbnz	r3, d739c <_ZN21PublishQueueAsyncBase14threadFunctionEv+0x10>
	__throw_bad_function_call();
   d7398:	f003 fea5 	bl	db0e6 <_ZSt25__throw_bad_function_callv>
      return _M_invoker(_M_functor, std::forward<_ArgTypes>(__args)...);
   d739c:	69e3      	ldr	r3, [r4, #28]
   d739e:	4621      	mov	r1, r4
   d73a0:	4628      	mov	r0, r5
   d73a2:	4798      	blx	r3
		os_thread_yield();
   d73a4:	f000 f9b6 	bl	d7714 <os_thread_yield>
	while(true) {
   d73a8:	e7f4      	b.n	d7394 <_ZN21PublishQueueAsyncBase14threadFunctionEv+0x8>

000d73aa <_ZN21PublishQueueAsyncBase20threadFunctionStaticEPv>:
void PublishQueueAsyncBase::threadFunctionStatic(void *param) {
   d73aa:	b508      	push	{r3, lr}
	static_cast<PublishQueueAsync *>(param)->threadFunction();
   d73ac:	f7ff ffee 	bl	d738c <_ZN21PublishQueueAsyncBase14threadFunctionEv>

000d73b0 <_ZN25PublishQueueAsyncRetainedC1EPht>:
PublishQueueAsyncRetained::PublishQueueAsyncRetained(uint8_t *retainedBuffer, uint16_t retainedBufferSize) :
   d73b0:	b538      	push	{r3, r4, r5, lr}
   d73b2:	4603      	mov	r3, r0
   d73b4:	4614      	mov	r4, r2
   d73b6:	460d      	mov	r5, r1
		retainedBuffer(retainedBuffer), retainedBufferSize(retainedBufferSize) {
   d73b8:	f7ff fed4 	bl	d7164 <_ZN21PublishQueueAsyncBaseC1Ev>
   d73bc:	4a03      	ldr	r2, [pc, #12]	; (d73cc <_ZN25PublishQueueAsyncRetainedC1EPht+0x1c>)
   d73be:	601a      	str	r2, [r3, #0]
   d73c0:	2200      	movs	r2, #0
   d73c2:	62dd      	str	r5, [r3, #44]	; 0x2c
   d73c4:	861c      	strh	r4, [r3, #48]	; 0x30
   d73c6:	635a      	str	r2, [r3, #52]	; 0x34
}
   d73c8:	4618      	mov	r0, r3
   d73ca:	bd38      	pop	{r3, r4, r5, pc}
   d73cc:	000de6d0 	.word	0x000de6d0

000d73d0 <_ZN25PublishQueueAsyncRetained9skipEventEPh>:
uint8_t *PublishQueueAsyncRetained::skipEvent(uint8_t *start) {
   d73d0:	b568      	push	{r3, r5, r6, lr}
	start += sizeof(PublishQueueEventData);
   d73d2:	f101 0508 	add.w	r5, r1, #8
uint8_t *PublishQueueAsyncRetained::skipEvent(uint8_t *start) {
   d73d6:	4606      	mov	r6, r0
	start += strlen(reinterpret_cast<char *>(start)) + 1;
   d73d8:	4628      	mov	r0, r5
   d73da:	f004 fcc2 	bl	dbd62 <strlen>
   d73de:	3001      	adds	r0, #1
   d73e0:	4405      	add	r5, r0
	start += strlen(reinterpret_cast<char *>(start)) + 1;
   d73e2:	4628      	mov	r0, r5
   d73e4:	f004 fcbd 	bl	dbd62 <strlen>
	size_t offset = start - retainedBuffer;
   d73e8:	6af3      	ldr	r3, [r6, #44]	; 0x2c
	start += strlen(reinterpret_cast<char *>(start)) + 1;
   d73ea:	3001      	adds	r0, #1
   d73ec:	4428      	add	r0, r5
	size_t offset = start - retainedBuffer;
   d73ee:	1ac3      	subs	r3, r0, r3
	if ((offset % 4) != 0) {
   d73f0:	f013 0303 	ands.w	r3, r3, #3
		start += 4 - (offset % 4);
   d73f4:	bf1c      	itt	ne
   d73f6:	f1c3 0304 	rsbne	r3, r3, #4
   d73fa:	18c0      	addne	r0, r0, r3
}
   d73fc:	bd68      	pop	{r3, r5, r6, pc}
	...

000d7400 <_ZN25PublishQueueAsyncRetained15discardOldEventEb>:
bool PublishQueueAsyncRetained::discardOldEvent(bool secondEvent) {
   d7400:	e92d 47ff 	stmdb	sp!, {r0, r1, r2, r3, r4, r5, r6, r7, r8, r9, sl, lr}
   d7404:	4604      	mov	r4, r0
   d7406:	460f      	mov	r7, r1
	StMutexLock(const PublishQueueAsyncBase *publishQueue) : publishQueue(publishQueue) {
   d7408:	9003      	str	r0, [sp, #12]
		publishQueue->mutexLock();
   d740a:	f7ff fee7 	bl	d71dc <_ZNK21PublishQueueAsyncBase9mutexLockEv>
	PublishQueueHeader *hdr = reinterpret_cast<PublishQueueHeader *>(retainedBuffer);
   d740e:	6ae5      	ldr	r5, [r4, #44]	; 0x2c
	uint8_t *start = &retainedBuffer[sizeof(PublishQueueHeader)];
   d7410:	88eb      	ldrh	r3, [r5, #6]
   d7412:	f105 0608 	add.w	r6, r5, #8
	if (secondEvent) {
   d7416:	2f00      	cmp	r7, #0
   d7418:	d034      	beq.n	d7484 <_ZN25PublishQueueAsyncRetained15discardOldEventEb+0x84>
		if (hdr->numEvents < 2) {
   d741a:	2b01      	cmp	r3, #1
   d741c:	d93b      	bls.n	d7496 <_ZN25PublishQueueAsyncRetained15discardOldEventEb+0x96>
		start = skipEvent(start);
   d741e:	4631      	mov	r1, r6
   d7420:	4620      	mov	r0, r4
   d7422:	f7ff ffd5 	bl	d73d0 <_ZN25PublishQueueAsyncRetained9skipEventEPh>
   d7426:	4606      	mov	r6, r0
	uint8_t *next = skipEvent(start);
   d7428:	4631      	mov	r1, r6
   d742a:	4620      	mov	r0, r4
   d742c:	f7ff ffd0 	bl	d73d0 <_ZN25PublishQueueAsyncRetained9skipEventEPh>
	pubqLogger.trace("discardOldestEvent secondEvent=%d start=%d next=%d nextFree=%d", (int)secondEvent, (int)(start - retainedBuffer), (int)(next - retainedBuffer), (int)(nextFree - retainedBuffer));
   d7430:	6b63      	ldr	r3, [r4, #52]	; 0x34
	uint8_t *end = &retainedBuffer[retainedBufferSize];
   d7432:	f8b4 9030 	ldrh.w	r9, [r4, #48]	; 0x30
	pubqLogger.trace("discardOldestEvent secondEvent=%d start=%d next=%d nextFree=%d", (int)secondEvent, (int)(start - retainedBuffer), (int)(next - retainedBuffer), (int)(nextFree - retainedBuffer));
   d7436:	4919      	ldr	r1, [pc, #100]	; (d749c <_ZN25PublishQueueAsyncRetained15discardOldEventEb+0x9c>)
   d7438:	1b5b      	subs	r3, r3, r5
   d743a:	9301      	str	r3, [sp, #4]
   d743c:	1b43      	subs	r3, r0, r5
	uint8_t *next = skipEvent(start);
   d743e:	4680      	mov	r8, r0
	pubqLogger.trace("discardOldestEvent secondEvent=%d start=%d next=%d nextFree=%d", (int)secondEvent, (int)(start - retainedBuffer), (int)(next - retainedBuffer), (int)(nextFree - retainedBuffer));
   d7440:	9300      	str	r3, [sp, #0]
   d7442:	463a      	mov	r2, r7
	size_t len = next - start;
   d7444:	eba0 0a06 	sub.w	sl, r0, r6
	pubqLogger.trace("discardOldestEvent secondEvent=%d start=%d next=%d nextFree=%d", (int)secondEvent, (int)(start - retainedBuffer), (int)(next - retainedBuffer), (int)(nextFree - retainedBuffer));
   d7448:	1b73      	subs	r3, r6, r5
   d744a:	4815      	ldr	r0, [pc, #84]	; (d74a0 <_ZN25PublishQueueAsyncRetained15discardOldEventEb+0xa0>)
   d744c:	f7fe ff5a 	bl	d6304 <_ZNK5spark6Logger5traceEPKcz>
	uint8_t *end = &retainedBuffer[retainedBufferSize];
   d7450:	eb05 0209 	add.w	r2, r5, r9
	if (after > 0) {
   d7454:	ebb2 0208 	subs.w	r2, r2, r8
   d7458:	d003      	beq.n	d7462 <_ZN25PublishQueueAsyncRetained15discardOldEventEb+0x62>
		memmove(start, next, after);
   d745a:	4641      	mov	r1, r8
   d745c:	4630      	mov	r0, r6
   d745e:	f004 fbf3 	bl	dbc48 <memmove>
	nextFree -= len;
   d7462:	6b63      	ldr	r3, [r4, #52]	; 0x34
	pubqLogger.trace("after discardOldestEvent numEvents=%d nextFree=%d", hdr->numEvents, (int)(nextFree - retainedBuffer));
   d7464:	480e      	ldr	r0, [pc, #56]	; (d74a0 <_ZN25PublishQueueAsyncRetained15discardOldEventEb+0xa0>)
	nextFree -= len;
   d7466:	eba3 030a 	sub.w	r3, r3, sl
   d746a:	6363      	str	r3, [r4, #52]	; 0x34
	hdr->numEvents--;
   d746c:	88ea      	ldrh	r2, [r5, #6]
   d746e:	3a01      	subs	r2, #1
   d7470:	b292      	uxth	r2, r2
   d7472:	80ea      	strh	r2, [r5, #6]
	pubqLogger.trace("after discardOldestEvent numEvents=%d nextFree=%d", hdr->numEvents, (int)(nextFree - retainedBuffer));
   d7474:	6b61      	ldr	r1, [r4, #52]	; 0x34
   d7476:	6ae3      	ldr	r3, [r4, #44]	; 0x2c
   d7478:	1acb      	subs	r3, r1, r3
   d747a:	490a      	ldr	r1, [pc, #40]	; (d74a4 <_ZN25PublishQueueAsyncRetained15discardOldEventEb+0xa4>)
   d747c:	f7fe ff42 	bl	d6304 <_ZNK5spark6Logger5traceEPKcz>
	return true;
   d7480:	2701      	movs	r7, #1
   d7482:	e001      	b.n	d7488 <_ZN25PublishQueueAsyncRetained15discardOldEventEb+0x88>
		if (hdr->numEvents < 1) {
   d7484:	2b00      	cmp	r3, #0
   d7486:	d1cf      	bne.n	d7428 <_ZN25PublishQueueAsyncRetained15discardOldEventEb+0x28>
	StMutexLock lock(this);
   d7488:	a803      	add	r0, sp, #12
   d748a:	f7ff fead 	bl	d71e8 <_ZN11StMutexLockD1Ev>
}
   d748e:	4638      	mov	r0, r7
   d7490:	b004      	add	sp, #16
   d7492:	e8bd 87f0 	ldmia.w	sp!, {r4, r5, r6, r7, r8, r9, sl, pc}
			return false;
   d7496:	2700      	movs	r7, #0
   d7498:	e7f6      	b.n	d7488 <_ZN25PublishQueueAsyncRetained15discardOldEventEb+0x88>
   d749a:	bf00      	nop
   d749c:	000de580 	.word	0x000de580
   d74a0:	2003e594 	.word	0x2003e594
   d74a4:	000de5bf 	.word	0x000de5bf

000d74a8 <_ZN25PublishQueueAsyncRetained5setupEv>:
void PublishQueueAsyncRetained::setup() {
   d74a8:	e92d 41f0 	stmdb	sp!, {r4, r5, r6, r7, r8, lr}
	volatile PublishQueueHeader *hdr = reinterpret_cast<PublishQueueHeader *>(retainedBuffer);
   d74ac:	6ac5      	ldr	r5, [r0, #44]	; 0x2c
	if (hdr->magic == PUBLISH_QUEUE_HEADER_MAGIC && hdr->size == retainedBufferSize) {
   d74ae:	4f1d      	ldr	r7, [pc, #116]	; (d7524 <_ZN25PublishQueueAsyncRetained5setupEv+0x7c>)
   d74b0:	682b      	ldr	r3, [r5, #0]
   d74b2:	42bb      	cmp	r3, r7
void PublishQueueAsyncRetained::setup() {
   d74b4:	4604      	mov	r4, r0
	if (hdr->magic == PUBLISH_QUEUE_HEADER_MAGIC && hdr->size == retainedBufferSize) {
   d74b6:	d11f      	bne.n	d74f8 <_ZN25PublishQueueAsyncRetained5setupEv+0x50>
   d74b8:	88ab      	ldrh	r3, [r5, #4]
   d74ba:	8e02      	ldrh	r2, [r0, #48]	; 0x30
   d74bc:	b29b      	uxth	r3, r3
   d74be:	4293      	cmp	r3, r2
   d74c0:	d11a      	bne.n	d74f8 <_ZN25PublishQueueAsyncRetained5setupEv+0x50>
		pubqLogger.trace("retained numEvents=%d", (int)hdr->numEvents);
   d74c2:	88ea      	ldrh	r2, [r5, #6]
   d74c4:	4918      	ldr	r1, [pc, #96]	; (d7528 <_ZN25PublishQueueAsyncRetained5setupEv+0x80>)
   d74c6:	4819      	ldr	r0, [pc, #100]	; (d752c <_ZN25PublishQueueAsyncRetained5setupEv+0x84>)
   d74c8:	b292      	uxth	r2, r2
		uint8_t *end = &retainedBuffer[retainedBufferSize];
   d74ca:	18ee      	adds	r6, r5, r3
		pubqLogger.trace("retained numEvents=%d", (int)hdr->numEvents);
   d74cc:	f7fe ff1a 	bl	d6304 <_ZNK5spark6Logger5traceEPKcz>
		nextFree = &retainedBuffer[sizeof(PublishQueueHeader)];
   d74d0:	6ae3      	ldr	r3, [r4, #44]	; 0x2c
   d74d2:	3308      	adds	r3, #8
   d74d4:	6363      	str	r3, [r4, #52]	; 0x34
   d74d6:	f04f 0800 	mov.w	r8, #0
		for(uint16_t ii = 0; ii < hdr->numEvents; ii++) {
   d74da:	88eb      	ldrh	r3, [r5, #6]
   d74dc:	6b61      	ldr	r1, [r4, #52]	; 0x34
   d74de:	b29b      	uxth	r3, r3
   d74e0:	fa1f f288 	uxth.w	r2, r8
   d74e4:	4293      	cmp	r3, r2
   d74e6:	d90f      	bls.n	d7508 <_ZN25PublishQueueAsyncRetained5setupEv+0x60>
			nextFree = skipEvent(nextFree);
   d74e8:	4620      	mov	r0, r4
   d74ea:	f7ff ff71 	bl	d73d0 <_ZN25PublishQueueAsyncRetained9skipEventEPh>
			if (nextFree > end) {
   d74ee:	42b0      	cmp	r0, r6
			nextFree = skipEvent(nextFree);
   d74f0:	6360      	str	r0, [r4, #52]	; 0x34
			if (nextFree > end) {
   d74f2:	f108 0801 	add.w	r8, r8, #1
   d74f6:	d9f0      	bls.n	d74da <_ZN25PublishQueueAsyncRetained5setupEv+0x32>
		hdr->magic = PUBLISH_QUEUE_HEADER_MAGIC;
   d74f8:	602f      	str	r7, [r5, #0]
		hdr->size = retainedBufferSize;
   d74fa:	8e23      	ldrh	r3, [r4, #48]	; 0x30
   d74fc:	80ab      	strh	r3, [r5, #4]
		hdr->numEvents = 0;
   d74fe:	2300      	movs	r3, #0
   d7500:	80eb      	strh	r3, [r5, #6]
		nextFree = &retainedBuffer[sizeof(PublishQueueHeader)];
   d7502:	6ae3      	ldr	r3, [r4, #44]	; 0x2c
   d7504:	3308      	adds	r3, #8
   d7506:	6363      	str	r3, [r4, #52]	; 0x34
	pubqLogger.trace("at init numEvents=%d nextFree=%d", (int)hdr->numEvents, (int)(nextFree - retainedBuffer));
   d7508:	6b61      	ldr	r1, [r4, #52]	; 0x34
   d750a:	88ea      	ldrh	r2, [r5, #6]
   d750c:	6ae3      	ldr	r3, [r4, #44]	; 0x2c
   d750e:	4807      	ldr	r0, [pc, #28]	; (d752c <_ZN25PublishQueueAsyncRetained5setupEv+0x84>)
   d7510:	1acb      	subs	r3, r1, r3
   d7512:	b292      	uxth	r2, r2
   d7514:	4906      	ldr	r1, [pc, #24]	; (d7530 <_ZN25PublishQueueAsyncRetained5setupEv+0x88>)
   d7516:	f7fe fef5 	bl	d6304 <_ZNK5spark6Logger5traceEPKcz>
	PublishQueueAsyncBase::setup();
   d751a:	4620      	mov	r0, r4
}
   d751c:	e8bd 41f0 	ldmia.w	sp!, {r4, r5, r6, r7, r8, lr}
	PublishQueueAsyncBase::setup();
   d7520:	f7ff bdc6 	b.w	d70b0 <_ZN21PublishQueueAsyncBase5setupEv>
   d7524:	d19cab61 	.word	0xd19cab61
   d7528:	000de5f1 	.word	0x000de5f1
   d752c:	2003e594 	.word	0x2003e594
   d7530:	000de607 	.word	0x000de607

000d7534 <_ZNSt8functionIFvR21PublishQueueAsyncBaseEEaSIMS0_FvvEEENSt9enable_ifIXsrNS3_9_CallableINSt5decayIT_E4typeESt15__invoke_resultIRSC_JS1_EEEE5valueERS3_E4typeEOSA_>:
	operator=(_Functor&& __f)
   d7534:	b510      	push	{r4, lr}
   d7536:	e9d1 2300 	ldrd	r2, r3, [r1]
   d753a:	b086      	sub	sp, #24
    _Function_base() : _M_manager(nullptr) { }
   d753c:	2100      	movs	r1, #0
	operator=(_Functor&& __f)
   d753e:	4604      	mov	r4, r0
    _Function_base() : _M_manager(nullptr) { }
   d7540:	9104      	str	r1, [sp, #16]
	  { return __mp != nullptr; }
   d7542:	b90a      	cbnz	r2, d7548 <_ZNSt8functionIFvR21PublishQueueAsyncBaseEEaSIMS0_FvvEEENSt9enable_ifIXsrNS3_9_CallableINSt5decayIT_E4typeESt15__invoke_resultIRSC_JS1_EEEE5valueERS3_E4typeEOSA_+0x14>
   d7544:	07d9      	lsls	r1, r3, #31
   d7546:	d505      	bpl.n	d7554 <_ZNSt8functionIFvR21PublishQueueAsyncBaseEEaSIMS0_FvvEEENSt9enable_ifIXsrNS3_9_CallableINSt5decayIT_E4typeESt15__invoke_resultIRSC_JS1_EEEE5valueERS3_E4typeEOSA_+0x20>
	{ ::new (__functor._M_access()) _Functor(std::move(__f)); }
   d7548:	e9cd 2302 	strd	r2, r3, [sp, #8]
	    _M_invoker = &_My_handler::_M_invoke;
   d754c:	4b0f      	ldr	r3, [pc, #60]	; (d758c <_ZNSt8functionIFvR21PublishQueueAsyncBaseEEaSIMS0_FvvEEENSt9enable_ifIXsrNS3_9_CallableINSt5decayIT_E4typeESt15__invoke_resultIRSC_JS1_EEEE5valueERS3_E4typeEOSA_+0x58>)
   d754e:	9305      	str	r3, [sp, #20]
	    _M_manager = &_My_handler::_M_manager;
   d7550:	4b0f      	ldr	r3, [pc, #60]	; (d7590 <_ZNSt8functionIFvR21PublishQueueAsyncBaseEEaSIMS0_FvvEEENSt9enable_ifIXsrNS3_9_CallableINSt5decayIT_E4typeESt15__invoke_resultIRSC_JS1_EEEE5valueERS3_E4typeEOSA_+0x5c>)
   d7552:	9304      	str	r3, [sp, #16]
      _Tp __tmp = _GLIBCXX_MOVE(__a);
   d7554:	ab02      	add	r3, sp, #8
   d7556:	e893 0003 	ldmia.w	r3, {r0, r1}
   d755a:	466a      	mov	r2, sp
   d755c:	e882 0003 	stmia.w	r2, {r0, r1}
      __a = _GLIBCXX_MOVE(__b);
   d7560:	e894 0003 	ldmia.w	r4, {r0, r1}
   d7564:	e883 0003 	stmia.w	r3, {r0, r1}
      __b = _GLIBCXX_MOVE(__tmp);
   d7568:	e892 0003 	ldmia.w	r2, {r0, r1}
      _Tp __tmp = _GLIBCXX_MOVE(__a);
   d756c:	9a04      	ldr	r2, [sp, #16]
      __b = _GLIBCXX_MOVE(__tmp);
   d756e:	e884 0003 	stmia.w	r4, {r0, r1}
      __a = _GLIBCXX_MOVE(__b);
   d7572:	68a1      	ldr	r1, [r4, #8]
      __b = _GLIBCXX_MOVE(__tmp);
   d7574:	60a2      	str	r2, [r4, #8]
      _Tp __tmp = _GLIBCXX_MOVE(__a);
   d7576:	9a05      	ldr	r2, [sp, #20]
      __a = _GLIBCXX_MOVE(__b);
   d7578:	9104      	str	r1, [sp, #16]
    class function<_Res(_ArgTypes...)>
   d757a:	4618      	mov	r0, r3
   d757c:	68e1      	ldr	r1, [r4, #12]
      __b = _GLIBCXX_MOVE(__tmp);
   d757e:	60e2      	str	r2, [r4, #12]
      __a = _GLIBCXX_MOVE(__b);
   d7580:	9105      	str	r1, [sp, #20]
   d7582:	f7fc febf 	bl	d4304 <_ZNSt14_Function_baseD1Ev>
	}
   d7586:	4620      	mov	r0, r4
   d7588:	b006      	add	sp, #24
   d758a:	bd10      	pop	{r4, pc}
   d758c:	000d7093 	.word	0x000d7093
   d7590:	000d7049 	.word	0x000d7049

000d7594 <_ZN21PublishQueueAsyncBase10startStateEv>:
void PublishQueueAsyncBase::startState() {
   d7594:	b507      	push	{r0, r1, r2, lr}
	stateHandler = &PublishQueueAsyncBase::checkQueueState;
   d7596:	4b05      	ldr	r3, [pc, #20]	; (d75ac <_ZN21PublishQueueAsyncBase10startStateEv+0x18>)
   d7598:	9300      	str	r3, [sp, #0]
   d759a:	4669      	mov	r1, sp
   d759c:	2300      	movs	r3, #0
   d759e:	3010      	adds	r0, #16
   d75a0:	9301      	str	r3, [sp, #4]
   d75a2:	f7ff ffc7 	bl	d7534 <_ZNSt8functionIFvR21PublishQueueAsyncBaseEEaSIMS0_FvvEEENSt9enable_ifIXsrNS3_9_CallableINSt5decayIT_E4typeESt15__invoke_resultIRSC_JS1_EEEE5valueERS3_E4typeEOSA_>
}
   d75a6:	b003      	add	sp, #12
   d75a8:	f85d fb04 	ldr.w	pc, [sp], #4
   d75ac:	000d75dd 	.word	0x000d75dd

000d75b0 <_ZN21PublishQueueAsyncBase14waitRetryStateEv>:
void PublishQueueAsyncBase::waitRetryState() {
   d75b0:	b513      	push	{r0, r1, r4, lr}
   d75b2:	4604      	mov	r4, r0
   d75b4:	f000 f94e 	bl	d7854 <HAL_Timer_Get_Milli_Seconds>
	if (millis() - lastPublish >= failureRetryMs) {
   d75b8:	6a63      	ldr	r3, [r4, #36]	; 0x24
   d75ba:	1ac0      	subs	r0, r0, r3
   d75bc:	68e3      	ldr	r3, [r4, #12]
   d75be:	4298      	cmp	r0, r3
   d75c0:	d308      	bcc.n	d75d4 <_ZN21PublishQueueAsyncBase14waitRetryStateEv+0x24>
		stateHandler = &PublishQueueAsyncBase::checkQueueState;
   d75c2:	4b05      	ldr	r3, [pc, #20]	; (d75d8 <_ZN21PublishQueueAsyncBase14waitRetryStateEv+0x28>)
   d75c4:	9300      	str	r3, [sp, #0]
   d75c6:	4669      	mov	r1, sp
   d75c8:	2300      	movs	r3, #0
   d75ca:	f104 0010 	add.w	r0, r4, #16
   d75ce:	9301      	str	r3, [sp, #4]
   d75d0:	f7ff ffb0 	bl	d7534 <_ZNSt8functionIFvR21PublishQueueAsyncBaseEEaSIMS0_FvvEEENSt9enable_ifIXsrNS3_9_CallableINSt5decayIT_E4typeESt15__invoke_resultIRSC_JS1_EEEE5valueERS3_E4typeEOSA_>
}
   d75d4:	b002      	add	sp, #8
   d75d6:	bd10      	pop	{r4, pc}
   d75d8:	000d75dd 	.word	0x000d75dd

000d75dc <_ZN21PublishQueueAsyncBase15checkQueueStateEv>:
void PublishQueueAsyncBase::checkQueueState() {
   d75dc:	e92d 41f0 	stmdb	sp!, {r4, r5, r6, r7, r8, lr}
	if (!pausePublishing && Particle.connected() && millis() - lastPublish >= 1010) {
   d75e0:	f890 302a 	ldrb.w	r3, [r0, #42]	; 0x2a
void PublishQueueAsyncBase::checkQueueState() {
   d75e4:	b086      	sub	sp, #24
   d75e6:	4604      	mov	r4, r0
	if (!pausePublishing && Particle.connected() && millis() - lastPublish >= 1010) {
   d75e8:	2b00      	cmp	r3, #0
   d75ea:	d140      	bne.n	d766e <_ZN21PublishQueueAsyncBase15checkQueueStateEv+0x92>
    static bool connected(void) { return spark_cloud_flag_connected(); }
   d75ec:	f000 fb76 	bl	d7cdc <spark_cloud_flag_connected>
   d75f0:	2800      	cmp	r0, #0
   d75f2:	d03c      	beq.n	d766e <_ZN21PublishQueueAsyncBase15checkQueueStateEv+0x92>
   d75f4:	f000 f92e 	bl	d7854 <HAL_Timer_Get_Milli_Seconds>
   d75f8:	6a63      	ldr	r3, [r4, #36]	; 0x24
   d75fa:	1ac0      	subs	r0, r0, r3
   d75fc:	f240 33f1 	movw	r3, #1009	; 0x3f1
   d7600:	4298      	cmp	r0, r3
   d7602:	d934      	bls.n	d766e <_ZN21PublishQueueAsyncBase15checkQueueStateEv+0x92>
		PublishQueueEventData *data = getOldestEvent();
   d7604:	6823      	ldr	r3, [r4, #0]
   d7606:	4620      	mov	r0, r4
   d7608:	695b      	ldr	r3, [r3, #20]
   d760a:	4798      	blx	r3
		if (data) {
   d760c:	4605      	mov	r5, r0
   d760e:	b370      	cbz	r0, d766e <_ZN21PublishQueueAsyncBase15checkQueueStateEv+0x92>
			const char *eventName = &buf[sizeof(PublishQueueEventData)];
   d7610:	f100 0708 	add.w	r7, r0, #8
			isSending = true;
   d7614:	2301      	movs	r3, #1
   d7616:	f884 3028 	strb.w	r3, [r4, #40]	; 0x28
			eventData += strlen(eventData) + 1;
   d761a:	4638      	mov	r0, r7
   d761c:	f004 fba1 	bl	dbd62 <strlen>
			PublishFlags flags(PublishFlag(data->flags));
   d7620:	f895 8004 	ldrb.w	r8, [r5, #4]
			pubqLogger.info("publishing %s %s ttl=%d flags=%x", eventName, eventData, data->ttl, flags.value());
   d7624:	f8cd 8004 	str.w	r8, [sp, #4]
			eventData += strlen(eventData) + 1;
   d7628:	3001      	adds	r0, #1
			pubqLogger.info("publishing %s %s ttl=%d flags=%x", eventName, eventData, data->ttl, flags.value());
   d762a:	682b      	ldr	r3, [r5, #0]
   d762c:	4927      	ldr	r1, [pc, #156]	; (d76cc <_ZN21PublishQueueAsyncBase15checkQueueStateEv+0xf0>)
   d762e:	9300      	str	r3, [sp, #0]
			eventData += strlen(eventData) + 1;
   d7630:	183e      	adds	r6, r7, r0
			pubqLogger.info("publishing %s %s ttl=%d flags=%x", eventName, eventData, data->ttl, flags.value());
   d7632:	4633      	mov	r3, r6
   d7634:	4826      	ldr	r0, [pc, #152]	; (d76d0 <_ZN21PublishQueueAsyncBase15checkQueueStateEv+0xf4>)
   d7636:	463a      	mov	r2, r7
   d7638:	f7fc ff14 	bl	d4464 <_ZNK5spark6Logger4infoEPKcz>
			auto request = Particle.publish(eventName, eventData, data->ttl, flags);
   d763c:	682b      	ldr	r3, [r5, #0]
        return publish_event(eventName, eventData, ttl, flags1 | flags2);
   d763e:	f88d 8000 	strb.w	r8, [sp]
   d7642:	4632      	mov	r2, r6
   d7644:	4639      	mov	r1, r7
   d7646:	a802      	add	r0, sp, #8
   d7648:	f000 ff5a 	bl	d8500 <_ZN10CloudClass13publish_eventEPKcS1_iN8particle5FlagsI15PublishFlagTypehEE>
      {
	memory_order __b = __m & __memory_order_mask;
	__glibcxx_assert(__b != memory_order_release);
	__glibcxx_assert(__b != memory_order_acq_rel);

	return __atomic_load_n(&_M_i, int(__m));
   d764c:	9d02      	ldr	r5, [sp, #8]
   d764e:	786b      	ldrb	r3, [r5, #1]
			while(!request.isDone()) {
   d7650:	b983      	cbnz	r3, d7674 <_ZN21PublishQueueAsyncBase15checkQueueStateEv+0x98>
				delay(1);
   d7652:	2001      	movs	r0, #1
   d7654:	f000 fc66 	bl	d7f24 <delay>
				if (!isSending) {
   d7658:	f894 3028 	ldrb.w	r3, [r4, #40]	; 0x28
   d765c:	2b00      	cmp	r3, #0
   d765e:	d1f5      	bne.n	d764c <_ZN21PublishQueueAsyncBase15checkQueueStateEv+0x70>
					pubqLogger.info("publish canceled");
   d7660:	491c      	ldr	r1, [pc, #112]	; (d76d4 <_ZN21PublishQueueAsyncBase15checkQueueStateEv+0xf8>)
   d7662:	481b      	ldr	r0, [pc, #108]	; (d76d0 <_ZN21PublishQueueAsyncBase15checkQueueStateEv+0xf4>)
   d7664:	f7fc fefe 	bl	d4464 <_ZNK5spark6Logger4infoEPKcz>
   d7668:	a803      	add	r0, sp, #12
   d766a:	f7fd fcd5 	bl	d5018 <_ZNSt14__shared_countILN9__gnu_cxx12_Lock_policyE0EED1Ev>
}
   d766e:	b006      	add	sp, #24
   d7670:	e8bd 81f0 	ldmia.w	sp!, {r4, r5, r6, r7, r8, pc}
        return (application_thread_invoke(callback, data, nullptr) == 0);
    }

    // Returns true if current thread is the application thread
    static bool isApplicationThreadCurrent() {
        return (application_thread_current(nullptr) != 0);
   d7674:	2000      	movs	r0, #0
   d7676:	f000 fabf 	bl	d7bf8 <application_thread_current>
        if (ContextT::isApplicationThreadCurrent()) {
   d767a:	b120      	cbz	r0, d7686 <_ZN21PublishQueueAsyncBase15checkQueueStateEv+0xaa>
   d767c:	786b      	ldrb	r3, [r5, #1]
                if (isDone()) { // We can use relaxed ordering here, as long as the future's result is not examined
   d767e:	b913      	cbnz	r3, d7686 <_ZN21PublishQueueAsyncBase15checkQueueStateEv+0xaa>
        spark_process();
   d7680:	f000 fb1c 	bl	d7cbc <spark_process>
    }
   d7684:	e7fa      	b.n	d767c <_ZN21PublishQueueAsyncBase15checkQueueStateEv+0xa0>
      _Tp
      load(memory_order __m = memory_order_seq_cst) const noexcept
      {
	alignas(_Tp) unsigned char __buf[sizeof(_Tp)];
	_Tp* __ptr = reinterpret_cast<_Tp*>(__buf);
	__atomic_load(std::__addressof(_M_i), __ptr, int(__m));
   d7686:	782b      	ldrb	r3, [r5, #0]
			if (bResult) {
   d7688:	2b01      	cmp	r3, #1
   d768a:	d10f      	bne.n	d76ac <_ZN21PublishQueueAsyncBase15checkQueueStateEv+0xd0>
				pubqLogger.info("published successfully");
   d768c:	4912      	ldr	r1, [pc, #72]	; (d76d8 <_ZN21PublishQueueAsyncBase15checkQueueStateEv+0xfc>)
   d768e:	4810      	ldr	r0, [pc, #64]	; (d76d0 <_ZN21PublishQueueAsyncBase15checkQueueStateEv+0xf4>)
   d7690:	f7fc fee8 	bl	d4464 <_ZNK5spark6Logger4infoEPKcz>
				discardOldEvent(false);
   d7694:	6823      	ldr	r3, [r4, #0]
   d7696:	2100      	movs	r1, #0
   d7698:	699b      	ldr	r3, [r3, #24]
   d769a:	4620      	mov	r0, r4
   d769c:	4798      	blx	r3
			isSending = false;
   d769e:	2300      	movs	r3, #0
   d76a0:	f884 3028 	strb.w	r3, [r4, #40]	; 0x28
   d76a4:	f000 f8d6 	bl	d7854 <HAL_Timer_Get_Milli_Seconds>
			lastPublish = millis();
   d76a8:	6260      	str	r0, [r4, #36]	; 0x24
   d76aa:	e7dd      	b.n	d7668 <_ZN21PublishQueueAsyncBase15checkQueueStateEv+0x8c>
				pubqLogger.info("publish failed, will retry in %lu ms", failureRetryMs);
   d76ac:	68e2      	ldr	r2, [r4, #12]
   d76ae:	490b      	ldr	r1, [pc, #44]	; (d76dc <_ZN21PublishQueueAsyncBase15checkQueueStateEv+0x100>)
   d76b0:	4807      	ldr	r0, [pc, #28]	; (d76d0 <_ZN21PublishQueueAsyncBase15checkQueueStateEv+0xf4>)
   d76b2:	f7fc fed7 	bl	d4464 <_ZNK5spark6Logger4infoEPKcz>
				stateHandler = &PublishQueueAsyncBase::waitRetryState;
   d76b6:	4b0a      	ldr	r3, [pc, #40]	; (d76e0 <_ZN21PublishQueueAsyncBase15checkQueueStateEv+0x104>)
   d76b8:	9304      	str	r3, [sp, #16]
   d76ba:	a904      	add	r1, sp, #16
   d76bc:	2300      	movs	r3, #0
   d76be:	f104 0010 	add.w	r0, r4, #16
   d76c2:	9305      	str	r3, [sp, #20]
   d76c4:	f7ff ff36 	bl	d7534 <_ZNSt8functionIFvR21PublishQueueAsyncBaseEEaSIMS0_FvvEEENSt9enable_ifIXsrNS3_9_CallableINSt5decayIT_E4typeESt15__invoke_resultIRSC_JS1_EEEE5valueERS3_E4typeEOSA_>
   d76c8:	e7e9      	b.n	d769e <_ZN21PublishQueueAsyncBase15checkQueueStateEv+0xc2>
   d76ca:	bf00      	nop
   d76cc:	000de628 	.word	0x000de628
   d76d0:	2003e594 	.word	0x2003e594
   d76d4:	000de649 	.word	0x000de649
   d76d8:	000de65a 	.word	0x000de65a
   d76dc:	000de671 	.word	0x000de671
   d76e0:	000d75b1 	.word	0x000d75b1

000d76e4 <_GLOBAL__sub_I_pubqLogger>:
   d76e4:	4b01      	ldr	r3, [pc, #4]	; (d76ec <_GLOBAL__sub_I_pubqLogger+0x8>)
   d76e6:	4a02      	ldr	r2, [pc, #8]	; (d76f0 <_GLOBAL__sub_I_pubqLogger+0xc>)
   d76e8:	601a      	str	r2, [r3, #0]
}
   d76ea:	4770      	bx	lr
   d76ec:	2003e594 	.word	0x2003e594
   d76f0:	000de696 	.word	0x000de696

000d76f4 <cellular_signal>:
DYNALIB_FN(12, hal_cellular, cellular_sim_ready, bool(void*))
DYNALIB_FN(13, hal_cellular, cellular_cancel, void(bool, bool, void*))
DYNALIB_FN(14, hal_cellular, HAL_NET_SetNetWatchDog, uint32_t(uint32_t))
DYNALIB_FN(15, hal_cellular, inet_gethostbyname, int(const char*, uint16_t, HAL_IPAddress*, network_interface_t, void*))
DYNALIB_FN(16, hal_cellular, inet_ping, int(const HAL_IPAddress*, network_interface_t, uint8_t, void*))
DYNALIB_FN(17, hal_cellular, cellular_signal, cellular_result_t(CellularSignalHal*, cellular_signal_t*))
   d76f4:	b508      	push	{r3, lr}
   d76f6:	4b02      	ldr	r3, [pc, #8]	; (d7700 <cellular_signal+0xc>)
   d76f8:	681b      	ldr	r3, [r3, #0]
   d76fa:	6c5b      	ldr	r3, [r3, #68]	; 0x44
   d76fc:	9301      	str	r3, [sp, #4]
   d76fe:	bd08      	pop	{r3, pc}
   d7700:	00030274 	.word	0x00030274

000d7704 <os_thread_create>:

DYNALIB_BEGIN(hal_concurrent)

#if PLATFORM_THREADING
DYNALIB_FN(0, hal_concurrent, __gthread_equal, bool(__gthread_t, __gthread_t))
DYNALIB_FN(1, hal_concurrent, os_thread_create, os_result_t(os_thread_t*, const char*, os_thread_prio_t, os_thread_fn_t, void*, size_t))
   d7704:	b508      	push	{r3, lr}
   d7706:	4b02      	ldr	r3, [pc, #8]	; (d7710 <os_thread_create+0xc>)
   d7708:	681b      	ldr	r3, [r3, #0]
   d770a:	685b      	ldr	r3, [r3, #4]
   d770c:	9301      	str	r3, [sp, #4]
   d770e:	bd08      	pop	{r3, pc}
   d7710:	00030248 	.word	0x00030248

000d7714 <os_thread_yield>:
DYNALIB_FN(2, hal_concurrent, os_thread_is_current, bool(os_thread_t))
DYNALIB_FN(3, hal_concurrent, os_thread_yield, os_result_t(void))
   d7714:	b508      	push	{r3, lr}
   d7716:	4b02      	ldr	r3, [pc, #8]	; (d7720 <os_thread_yield+0xc>)
   d7718:	681b      	ldr	r3, [r3, #0]
   d771a:	68db      	ldr	r3, [r3, #12]
   d771c:	9301      	str	r3, [sp, #4]
   d771e:	bd08      	pop	{r3, pc}
   d7720:	00030248 	.word	0x00030248

000d7724 <os_thread_scheduling>:
DYNALIB_FN(4, hal_concurrent, os_thread_join, os_result_t(os_thread_t))
DYNALIB_FN(5, hal_concurrent, os_thread_cleanup, os_result_t(os_thread_t))
DYNALIB_FN(6, hal_concurrent, os_thread_delay_until, os_result_t(system_tick_t*, system_tick_t))
DYNALIB_FN(7, hal_concurrent, os_thread_scheduling, void(bool, void*))
   d7724:	b508      	push	{r3, lr}
   d7726:	4b02      	ldr	r3, [pc, #8]	; (d7730 <os_thread_scheduling+0xc>)
   d7728:	681b      	ldr	r3, [r3, #0]
   d772a:	69db      	ldr	r3, [r3, #28]
   d772c:	9301      	str	r3, [sp, #4]
   d772e:	bd08      	pop	{r3, pc}
   d7730:	00030248 	.word	0x00030248

000d7734 <os_timer_create>:

DYNALIB_FN(8, hal_concurrent, os_timer_create, int(os_timer_t*, unsigned, void(*)(os_timer_t), void*, bool, void*))
   d7734:	b508      	push	{r3, lr}
   d7736:	4b02      	ldr	r3, [pc, #8]	; (d7740 <os_timer_create+0xc>)
   d7738:	681b      	ldr	r3, [r3, #0]
   d773a:	6a1b      	ldr	r3, [r3, #32]
   d773c:	9301      	str	r3, [sp, #4]
   d773e:	bd08      	pop	{r3, pc}
   d7740:	00030248 	.word	0x00030248

000d7744 <os_timer_destroy>:
DYNALIB_FN(9, hal_concurrent, os_timer_destroy, int(os_timer_t, void*))
   d7744:	b508      	push	{r3, lr}
   d7746:	4b02      	ldr	r3, [pc, #8]	; (d7750 <os_timer_destroy+0xc>)
   d7748:	681b      	ldr	r3, [r3, #0]
   d774a:	6a5b      	ldr	r3, [r3, #36]	; 0x24
   d774c:	9301      	str	r3, [sp, #4]
   d774e:	bd08      	pop	{r3, pc}
   d7750:	00030248 	.word	0x00030248

000d7754 <os_timer_get_id>:
DYNALIB_FN(10, hal_concurrent, os_timer_get_id, int(os_timer_t, void**))
   d7754:	b508      	push	{r3, lr}
   d7756:	4b02      	ldr	r3, [pc, #8]	; (d7760 <os_timer_get_id+0xc>)
   d7758:	681b      	ldr	r3, [r3, #0]
   d775a:	6a9b      	ldr	r3, [r3, #40]	; 0x28
   d775c:	9301      	str	r3, [sp, #4]
   d775e:	bd08      	pop	{r3, pc}
   d7760:	00030248 	.word	0x00030248

000d7764 <os_timer_change>:
DYNALIB_FN(11, hal_concurrent, os_timer_change, int(os_timer_t, os_timer_change_t, bool, unsigned, unsigned, void*))
   d7764:	b508      	push	{r3, lr}
   d7766:	4b02      	ldr	r3, [pc, #8]	; (d7770 <os_timer_change+0xc>)
   d7768:	681b      	ldr	r3, [r3, #0]
   d776a:	6adb      	ldr	r3, [r3, #44]	; 0x2c
   d776c:	9301      	str	r3, [sp, #4]
   d776e:	bd08      	pop	{r3, pc}
   d7770:	00030248 	.word	0x00030248

000d7774 <os_mutex_create>:

DYNALIB_FN(12, hal_concurrent, os_mutex_create, int(os_mutex_t*))
   d7774:	b508      	push	{r3, lr}
   d7776:	4b02      	ldr	r3, [pc, #8]	; (d7780 <os_mutex_create+0xc>)
   d7778:	681b      	ldr	r3, [r3, #0]
   d777a:	6b1b      	ldr	r3, [r3, #48]	; 0x30
   d777c:	9301      	str	r3, [sp, #4]
   d777e:	bd08      	pop	{r3, pc}
   d7780:	00030248 	.word	0x00030248

000d7784 <os_mutex_lock>:
DYNALIB_FN(13, hal_concurrent, os_mutex_destroy, int(os_mutex_t))
DYNALIB_FN(14, hal_concurrent, os_mutex_lock, int(os_mutex_t))
   d7784:	b508      	push	{r3, lr}
   d7786:	4b02      	ldr	r3, [pc, #8]	; (d7790 <os_mutex_lock+0xc>)
   d7788:	681b      	ldr	r3, [r3, #0]
   d778a:	6b9b      	ldr	r3, [r3, #56]	; 0x38
   d778c:	9301      	str	r3, [sp, #4]
   d778e:	bd08      	pop	{r3, pc}
   d7790:	00030248 	.word	0x00030248

000d7794 <os_mutex_unlock>:
DYNALIB_FN(15, hal_concurrent, os_mutex_trylock, int(os_mutex_t))
DYNALIB_FN(16, hal_concurrent, os_mutex_unlock, int(os_mutex_t))
   d7794:	b508      	push	{r3, lr}
   d7796:	4b02      	ldr	r3, [pc, #8]	; (d77a0 <os_mutex_unlock+0xc>)
   d7798:	681b      	ldr	r3, [r3, #0]
   d779a:	6c1b      	ldr	r3, [r3, #64]	; 0x40
   d779c:	9301      	str	r3, [sp, #4]
   d779e:	bd08      	pop	{r3, pc}
   d77a0:	00030248 	.word	0x00030248

000d77a4 <os_mutex_recursive_create>:

DYNALIB_FN(17, hal_concurrent, os_mutex_recursive_create, int(os_mutex_recursive_t*))
   d77a4:	b508      	push	{r3, lr}
   d77a6:	4b02      	ldr	r3, [pc, #8]	; (d77b0 <os_mutex_recursive_create+0xc>)
   d77a8:	681b      	ldr	r3, [r3, #0]
   d77aa:	6c5b      	ldr	r3, [r3, #68]	; 0x44
   d77ac:	9301      	str	r3, [sp, #4]
   d77ae:	bd08      	pop	{r3, pc}
   d77b0:	00030248 	.word	0x00030248

000d77b4 <os_mutex_recursive_destroy>:
DYNALIB_FN(18, hal_concurrent, os_mutex_recursive_destroy, int(os_mutex_recursive_t))
   d77b4:	b508      	push	{r3, lr}
   d77b6:	4b02      	ldr	r3, [pc, #8]	; (d77c0 <os_mutex_recursive_destroy+0xc>)
   d77b8:	681b      	ldr	r3, [r3, #0]
   d77ba:	6c9b      	ldr	r3, [r3, #72]	; 0x48
   d77bc:	9301      	str	r3, [sp, #4]
   d77be:	bd08      	pop	{r3, pc}
   d77c0:	00030248 	.word	0x00030248

000d77c4 <os_mutex_recursive_lock>:
DYNALIB_FN(19, hal_concurrent, os_mutex_recursive_lock, int(os_mutex_recursive_t))
   d77c4:	b508      	push	{r3, lr}
   d77c6:	4b02      	ldr	r3, [pc, #8]	; (d77d0 <os_mutex_recursive_lock+0xc>)
   d77c8:	681b      	ldr	r3, [r3, #0]
   d77ca:	6cdb      	ldr	r3, [r3, #76]	; 0x4c
   d77cc:	9301      	str	r3, [sp, #4]
   d77ce:	bd08      	pop	{r3, pc}
   d77d0:	00030248 	.word	0x00030248

000d77d4 <os_mutex_recursive_unlock>:
DYNALIB_FN(20, hal_concurrent, os_mutex_recursive_trylock, int(os_mutex_recursive_t))
DYNALIB_FN(21, hal_concurrent, os_mutex_recursive_unlock, int(os_mutex_recursive_t))
   d77d4:	b508      	push	{r3, lr}
   d77d6:	4b02      	ldr	r3, [pc, #8]	; (d77e0 <os_mutex_recursive_unlock+0xc>)
   d77d8:	681b      	ldr	r3, [r3, #0]
   d77da:	6d5b      	ldr	r3, [r3, #84]	; 0x54
   d77dc:	9301      	str	r3, [sp, #4]
   d77de:	bd08      	pop	{r3, pc}
   d77e0:	00030248 	.word	0x00030248

000d77e4 <os_thread_exit>:

DYNALIB_FN(23, hal_concurrent, os_queue_create, int(os_queue_t*, size_t, size_t, void*))
DYNALIB_FN(24, hal_concurrent, os_queue_destroy, int(os_queue_t, void*))
DYNALIB_FN(25, hal_concurrent, os_queue_put, int(os_queue_t, const void* item, system_tick_t, void*))
DYNALIB_FN(26, hal_concurrent, os_queue_take, int(os_queue_t, void* item, system_tick_t, void*))
DYNALIB_FN(27, hal_concurrent, os_thread_exit, os_result_t(os_thread_t))
   d77e4:	b508      	push	{r3, lr}
   d77e6:	4b02      	ldr	r3, [pc, #8]	; (d77f0 <os_thread_exit+0xc>)
   d77e8:	681b      	ldr	r3, [r3, #0]
   d77ea:	6edb      	ldr	r3, [r3, #108]	; 0x6c
   d77ec:	9301      	str	r3, [sp, #4]
   d77ee:	bd08      	pop	{r3, pc}
   d77f0:	00030248 	.word	0x00030248

000d77f4 <os_timer_set_id>:

DYNALIB_FN(28, hal_concurrent, os_timer_set_id, int(os_timer_t, void*))
   d77f4:	b508      	push	{r3, lr}
   d77f6:	4b02      	ldr	r3, [pc, #8]	; (d7800 <os_timer_set_id+0xc>)
   d77f8:	681b      	ldr	r3, [r3, #0]
   d77fa:	6f1b      	ldr	r3, [r3, #112]	; 0x70
   d77fc:	9301      	str	r3, [sp, #4]
   d77fe:	bd08      	pop	{r3, pc}
   d7800:	00030248 	.word	0x00030248

000d7804 <HAL_Feature_Set>:
DYNALIB_FN(20, hal_core, HAL_Core_System_Reset_FlagSet, bool(RESET_TypeDef))
DYNALIB_FN(21, hal_core, HAL_Core_Runtime_Info, uint32_t(runtime_info_t*, void*))
DYNALIB_FN(22, hal_core, HAL_Set_System_Config, int(hal_system_config_t, const void*, unsigned))
DYNALIB_FN(23, hal_core, HAL_Core_Enter_Safe_Mode, void(void*))
DYNALIB_FN(24, hal_core, HAL_Feature_Get, bool(HAL_Feature))
DYNALIB_FN(25, hal_core, HAL_Feature_Set, int(HAL_Feature, bool))
   d7804:	b508      	push	{r3, lr}
   d7806:	4b02      	ldr	r3, [pc, #8]	; (d7810 <HAL_Feature_Set+0xc>)
   d7808:	681b      	ldr	r3, [r3, #0]
   d780a:	6e5b      	ldr	r3, [r3, #100]	; 0x64
   d780c:	9301      	str	r3, [sp, #4]
   d780e:	bd08      	pop	{r3, pc}
   d7810:	00030234 	.word	0x00030234

000d7814 <HAL_Core_Get_Last_Reset_Info>:
DYNALIB_FN(26, hal_core, HAL_Core_System_Reset_Ex, void(int, uint32_t, void*))
DYNALIB_FN(27, hal_core, HAL_Core_Get_Last_Reset_Info, int(int*, uint32_t*, void*))
   d7814:	b508      	push	{r3, lr}
   d7816:	4b02      	ldr	r3, [pc, #8]	; (d7820 <HAL_Core_Get_Last_Reset_Info+0xc>)
   d7818:	681b      	ldr	r3, [r3, #0]
   d781a:	6edb      	ldr	r3, [r3, #108]	; 0x6c
   d781c:	9301      	str	r3, [sp, #4]
   d781e:	bd08      	pop	{r3, pc}
   d7820:	00030234 	.word	0x00030234

000d7824 <HAL_RNG_GetRandomNumber>:

DYNALIB_BEGIN(hal)

#if PLATFORM_ID > 3
DYNALIB_FN(0, hal, HAL_RNG_Configuration, void(void))
DYNALIB_FN(1, hal, HAL_RNG_GetRandomNumber, uint32_t(void))
   d7824:	b508      	push	{r3, lr}
   d7826:	4b02      	ldr	r3, [pc, #8]	; (d7830 <HAL_RNG_GetRandomNumber+0xc>)
   d7828:	681b      	ldr	r3, [r3, #0]
   d782a:	685b      	ldr	r3, [r3, #4]
   d782c:	9301      	str	r3, [sp, #4]
   d782e:	bd08      	pop	{r3, pc}
   d7830:	00030218 	.word	0x00030218

000d7834 <HAL_Delay_Milliseconds>:
#define BASE_IDX 2 // Base index for all subsequent functions
#else
#define BASE_IDX 0
#endif

DYNALIB_FN(BASE_IDX + 0, hal, HAL_Delay_Milliseconds, void(uint32_t))
   d7834:	b508      	push	{r3, lr}
   d7836:	4b02      	ldr	r3, [pc, #8]	; (d7840 <HAL_Delay_Milliseconds+0xc>)
   d7838:	681b      	ldr	r3, [r3, #0]
   d783a:	689b      	ldr	r3, [r3, #8]
   d783c:	9301      	str	r3, [sp, #4]
   d783e:	bd08      	pop	{r3, pc}
   d7840:	00030218 	.word	0x00030218

000d7844 <HAL_Delay_Microseconds>:
DYNALIB_FN(BASE_IDX + 1, hal, HAL_Delay_Microseconds, void(uint32_t))
   d7844:	b508      	push	{r3, lr}
   d7846:	4b02      	ldr	r3, [pc, #8]	; (d7850 <HAL_Delay_Microseconds+0xc>)
   d7848:	681b      	ldr	r3, [r3, #0]
   d784a:	68db      	ldr	r3, [r3, #12]
   d784c:	9301      	str	r3, [sp, #4]
   d784e:	bd08      	pop	{r3, pc}
   d7850:	00030218 	.word	0x00030218

000d7854 <HAL_Timer_Get_Milli_Seconds>:
DYNALIB_FN(BASE_IDX + 2, hal, HAL_Timer_Get_Micro_Seconds, system_tick_t(void))
DYNALIB_FN(BASE_IDX + 3, hal, HAL_Timer_Get_Milli_Seconds, system_tick_t(void))
   d7854:	b508      	push	{r3, lr}
   d7856:	4b02      	ldr	r3, [pc, #8]	; (d7860 <HAL_Timer_Get_Milli_Seconds+0xc>)
   d7858:	681b      	ldr	r3, [r3, #0]
   d785a:	695b      	ldr	r3, [r3, #20]
   d785c:	9301      	str	r3, [sp, #4]
   d785e:	bd08      	pop	{r3, pc}
   d7860:	00030218 	.word	0x00030218

000d7864 <hal_rtc_time_is_valid>:
DYNALIB_FN(BASE_IDX + 15, hal, HAL_EEPROM_Get, void(uint32_t, void *, size_t))
DYNALIB_FN(BASE_IDX + 16, hal, HAL_EEPROM_Put, void(uint32_t, const void *, size_t))
DYNALIB_FN(BASE_IDX + 17, hal, HAL_EEPROM_Clear, void(void))
DYNALIB_FN(BASE_IDX + 18, hal, HAL_EEPROM_Has_Pending_Erase, bool(void))
DYNALIB_FN(BASE_IDX + 19, hal, HAL_EEPROM_Perform_Pending_Erase, void(void))
DYNALIB_FN(BASE_IDX + 20, hal, hal_rtc_time_is_valid, bool(void*))
   d7864:	b508      	push	{r3, lr}
   d7866:	4b02      	ldr	r3, [pc, #8]	; (d7870 <hal_rtc_time_is_valid+0xc>)
   d7868:	681b      	ldr	r3, [r3, #0]
   d786a:	6d9b      	ldr	r3, [r3, #88]	; 0x58
   d786c:	9301      	str	r3, [sp, #4]
   d786e:	bd08      	pop	{r3, pc}
   d7870:	00030218 	.word	0x00030218

000d7874 <hal_timer_millis>:

DYNALIB_FN(BASE_IDX + 21, hal, hal_timer_millis, uint64_t(void*))
   d7874:	b508      	push	{r3, lr}
   d7876:	4b02      	ldr	r3, [pc, #8]	; (d7880 <hal_timer_millis+0xc>)
   d7878:	681b      	ldr	r3, [r3, #0]
   d787a:	6ddb      	ldr	r3, [r3, #92]	; 0x5c
   d787c:	9301      	str	r3, [sp, #4]
   d787e:	bd08      	pop	{r3, pc}
   d7880:	00030218 	.word	0x00030218

000d7884 <hal_rtc_get_time>:
DYNALIB_FN(BASE_IDX + 22, hal, hal_timer_micros, uint64_t(void*))

DYNALIB_FN(BASE_IDX + 23, hal, hal_rtc_get_time, int(struct timeval*, void*))
   d7884:	b508      	push	{r3, lr}
   d7886:	4b02      	ldr	r3, [pc, #8]	; (d7890 <hal_rtc_get_time+0xc>)
   d7888:	681b      	ldr	r3, [r3, #0]
   d788a:	6e5b      	ldr	r3, [r3, #100]	; 0x64
   d788c:	9301      	str	r3, [sp, #4]
   d788e:	bd08      	pop	{r3, pc}
   d7890:	00030218 	.word	0x00030218

000d7894 <hal_rtc_set_time>:
DYNALIB_FN(BASE_IDX + 24, hal, hal_rtc_set_time, int(const struct timeval*, void*))
   d7894:	b508      	push	{r3, lr}
   d7896:	4b02      	ldr	r3, [pc, #8]	; (d78a0 <hal_rtc_set_time+0xc>)
   d7898:	681b      	ldr	r3, [r3, #0]
   d789a:	6e9b      	ldr	r3, [r3, #104]	; 0x68
   d789c:	9301      	str	r3, [sp, #4]
   d789e:	bd08      	pop	{r3, pc}
   d78a0:	00030218 	.word	0x00030218

000d78a4 <HAL_Validate_Pin_Function>:
// GNINRAW

DYNALIB_BEGIN(hal_gpio)

DYNALIB_FN(0, hal_gpio, HAL_Pin_Map, Hal_Pin_Info*(void))
DYNALIB_FN(1, hal_gpio, HAL_Validate_Pin_Function, PinFunction(pin_t, PinFunction))
   d78a4:	b508      	push	{r3, lr}
   d78a6:	4b02      	ldr	r3, [pc, #8]	; (d78b0 <HAL_Validate_Pin_Function+0xc>)
   d78a8:	681b      	ldr	r3, [r3, #0]
   d78aa:	685b      	ldr	r3, [r3, #4]
   d78ac:	9301      	str	r3, [sp, #4]
   d78ae:	bd08      	pop	{r3, pc}
   d78b0:	0003022c 	.word	0x0003022c

000d78b4 <HAL_Pin_Mode>:
DYNALIB_FN(2, hal_gpio, HAL_Pin_Mode, void(pin_t, PinMode))
   d78b4:	b508      	push	{r3, lr}
   d78b6:	4b02      	ldr	r3, [pc, #8]	; (d78c0 <HAL_Pin_Mode+0xc>)
   d78b8:	681b      	ldr	r3, [r3, #0]
   d78ba:	689b      	ldr	r3, [r3, #8]
   d78bc:	9301      	str	r3, [sp, #4]
   d78be:	bd08      	pop	{r3, pc}
   d78c0:	0003022c 	.word	0x0003022c

000d78c4 <HAL_Get_Pin_Mode>:
DYNALIB_FN(3, hal_gpio, HAL_Get_Pin_Mode, PinMode(pin_t))
   d78c4:	b508      	push	{r3, lr}
   d78c6:	4b02      	ldr	r3, [pc, #8]	; (d78d0 <HAL_Get_Pin_Mode+0xc>)
   d78c8:	681b      	ldr	r3, [r3, #0]
   d78ca:	68db      	ldr	r3, [r3, #12]
   d78cc:	9301      	str	r3, [sp, #4]
   d78ce:	bd08      	pop	{r3, pc}
   d78d0:	0003022c 	.word	0x0003022c

000d78d4 <HAL_GPIO_Write>:
DYNALIB_FN(4, hal_gpio, HAL_GPIO_Write, void(pin_t, uint8_t))
   d78d4:	b508      	push	{r3, lr}
   d78d6:	4b02      	ldr	r3, [pc, #8]	; (d78e0 <HAL_GPIO_Write+0xc>)
   d78d8:	681b      	ldr	r3, [r3, #0]
   d78da:	691b      	ldr	r3, [r3, #16]
   d78dc:	9301      	str	r3, [sp, #4]
   d78de:	bd08      	pop	{r3, pc}
   d78e0:	0003022c 	.word	0x0003022c

000d78e4 <HAL_GPIO_Read>:
DYNALIB_FN(5, hal_gpio, HAL_GPIO_Read, int32_t(pin_t))
   d78e4:	b508      	push	{r3, lr}
   d78e6:	4b02      	ldr	r3, [pc, #8]	; (d78f0 <HAL_GPIO_Read+0xc>)
   d78e8:	681b      	ldr	r3, [r3, #0]
   d78ea:	695b      	ldr	r3, [r3, #20]
   d78ec:	9301      	str	r3, [sp, #4]
   d78ee:	bd08      	pop	{r3, pc}
   d78f0:	0003022c 	.word	0x0003022c

000d78f4 <hal_adc_read>:
DYNALIB_FN(8, hal_gpio, HAL_Interrupts_Enable_All, void(void))
DYNALIB_FN(9, hal_gpio, HAL_Interrupts_Disable_All, void(void))

DYNALIB_FN(10, hal_gpio, HAL_DAC_Write, void(pin_t, uint16_t))
DYNALIB_FN(11, hal_gpio, hal_adc_set_sample_time, void(uint8_t))
DYNALIB_FN(12, hal_gpio, hal_adc_read, int32_t(uint16_t))
   d78f4:	b508      	push	{r3, lr}
   d78f6:	4b02      	ldr	r3, [pc, #8]	; (d7900 <hal_adc_read+0xc>)
   d78f8:	681b      	ldr	r3, [r3, #0]
   d78fa:	6b1b      	ldr	r3, [r3, #48]	; 0x30
   d78fc:	9301      	str	r3, [sp, #4]
   d78fe:	bd08      	pop	{r3, pc}
   d7900:	0003022c 	.word	0x0003022c

000d7904 <hal_i2c_begin>:
#endif

DYNALIB_FN(BASE_IDX + 0, hal_i2c, hal_i2c_set_speed, void(hal_i2c_interface_t, uint32_t, void*))
DYNALIB_FN(BASE_IDX + 1, hal_i2c, hal_i2c_enable_dma_mode, void(hal_i2c_interface_t, bool, void*))
DYNALIB_FN(BASE_IDX + 2, hal_i2c, hal_i2c_stretch_clock, void(hal_i2c_interface_t, bool, void*))
DYNALIB_FN(BASE_IDX + 3, hal_i2c, hal_i2c_begin, void(hal_i2c_interface_t, hal_i2c_mode_t, uint8_t, void*))
   d7904:	b508      	push	{r3, lr}
   d7906:	4b02      	ldr	r3, [pc, #8]	; (d7910 <hal_i2c_begin+0xc>)
   d7908:	681b      	ldr	r3, [r3, #0]
   d790a:	68db      	ldr	r3, [r3, #12]
   d790c:	9301      	str	r3, [sp, #4]
   d790e:	bd08      	pop	{r3, pc}
   d7910:	00030228 	.word	0x00030228

000d7914 <hal_i2c_begin_transmission>:
DYNALIB_FN(BASE_IDX + 4, hal_i2c, hal_i2c_end, void(hal_i2c_interface_t, void*))
DYNALIB_FN(BASE_IDX + 5, hal_i2c, hal_i2c_request, uint32_t(hal_i2c_interface_t, uint8_t, uint8_t, uint8_t, void*))
DYNALIB_FN(BASE_IDX + 6, hal_i2c, hal_i2c_begin_transmission, void(hal_i2c_interface_t, uint8_t, const hal_i2c_transmission_config_t*))
   d7914:	b508      	push	{r3, lr}
   d7916:	4b02      	ldr	r3, [pc, #8]	; (d7920 <hal_i2c_begin_transmission+0xc>)
   d7918:	681b      	ldr	r3, [r3, #0]
   d791a:	699b      	ldr	r3, [r3, #24]
   d791c:	9301      	str	r3, [sp, #4]
   d791e:	bd08      	pop	{r3, pc}
   d7920:	00030228 	.word	0x00030228

000d7924 <hal_i2c_end_transmission>:
DYNALIB_FN(BASE_IDX + 7, hal_i2c, hal_i2c_end_transmission, uint8_t(hal_i2c_interface_t, uint8_t, void*))
   d7924:	b508      	push	{r3, lr}
   d7926:	4b02      	ldr	r3, [pc, #8]	; (d7930 <hal_i2c_end_transmission+0xc>)
   d7928:	681b      	ldr	r3, [r3, #0]
   d792a:	69db      	ldr	r3, [r3, #28]
   d792c:	9301      	str	r3, [sp, #4]
   d792e:	bd08      	pop	{r3, pc}
   d7930:	00030228 	.word	0x00030228

000d7934 <hal_i2c_write>:
DYNALIB_FN(BASE_IDX + 8, hal_i2c, hal_i2c_write, uint32_t(hal_i2c_interface_t, uint8_t, void*))
   d7934:	b508      	push	{r3, lr}
   d7936:	4b02      	ldr	r3, [pc, #8]	; (d7940 <hal_i2c_write+0xc>)
   d7938:	681b      	ldr	r3, [r3, #0]
   d793a:	6a1b      	ldr	r3, [r3, #32]
   d793c:	9301      	str	r3, [sp, #4]
   d793e:	bd08      	pop	{r3, pc}
   d7940:	00030228 	.word	0x00030228

000d7944 <hal_i2c_available>:
DYNALIB_FN(BASE_IDX + 9, hal_i2c, hal_i2c_available, int32_t(hal_i2c_interface_t, void*))
   d7944:	b508      	push	{r3, lr}
   d7946:	4b02      	ldr	r3, [pc, #8]	; (d7950 <hal_i2c_available+0xc>)
   d7948:	681b      	ldr	r3, [r3, #0]
   d794a:	6a5b      	ldr	r3, [r3, #36]	; 0x24
   d794c:	9301      	str	r3, [sp, #4]
   d794e:	bd08      	pop	{r3, pc}
   d7950:	00030228 	.word	0x00030228

000d7954 <hal_i2c_read>:
DYNALIB_FN(BASE_IDX + 10, hal_i2c, hal_i2c_read, int32_t(hal_i2c_interface_t, void*))
   d7954:	b508      	push	{r3, lr}
   d7956:	4b02      	ldr	r3, [pc, #8]	; (d7960 <hal_i2c_read+0xc>)
   d7958:	681b      	ldr	r3, [r3, #0]
   d795a:	6a9b      	ldr	r3, [r3, #40]	; 0x28
   d795c:	9301      	str	r3, [sp, #4]
   d795e:	bd08      	pop	{r3, pc}
   d7960:	00030228 	.word	0x00030228

000d7964 <hal_i2c_peek>:
DYNALIB_FN(BASE_IDX + 11, hal_i2c, hal_i2c_peek, int32_t(hal_i2c_interface_t, void*))
   d7964:	b508      	push	{r3, lr}
   d7966:	4b02      	ldr	r3, [pc, #8]	; (d7970 <hal_i2c_peek+0xc>)
   d7968:	681b      	ldr	r3, [r3, #0]
   d796a:	6adb      	ldr	r3, [r3, #44]	; 0x2c
   d796c:	9301      	str	r3, [sp, #4]
   d796e:	bd08      	pop	{r3, pc}
   d7970:	00030228 	.word	0x00030228

000d7974 <hal_i2c_flush>:
DYNALIB_FN(BASE_IDX + 12, hal_i2c, hal_i2c_flush, void(hal_i2c_interface_t, void*))
   d7974:	b508      	push	{r3, lr}
   d7976:	4b02      	ldr	r3, [pc, #8]	; (d7980 <hal_i2c_flush+0xc>)
   d7978:	681b      	ldr	r3, [r3, #0]
   d797a:	6b1b      	ldr	r3, [r3, #48]	; 0x30
   d797c:	9301      	str	r3, [sp, #4]
   d797e:	bd08      	pop	{r3, pc}
   d7980:	00030228 	.word	0x00030228

000d7984 <hal_i2c_is_enabled>:
DYNALIB_FN(BASE_IDX + 13, hal_i2c, hal_i2c_is_enabled, bool(hal_i2c_interface_t, void*))
   d7984:	b508      	push	{r3, lr}
   d7986:	4b02      	ldr	r3, [pc, #8]	; (d7990 <hal_i2c_is_enabled+0xc>)
   d7988:	681b      	ldr	r3, [r3, #0]
   d798a:	6b5b      	ldr	r3, [r3, #52]	; 0x34
   d798c:	9301      	str	r3, [sp, #4]
   d798e:	bd08      	pop	{r3, pc}
   d7990:	00030228 	.word	0x00030228

000d7994 <hal_i2c_init>:
DYNALIB_FN(BASE_IDX + 14, hal_i2c, hal_i2c_set_callback_on_received, void(hal_i2c_interface_t, void(*)(int), void*))
DYNALIB_FN(BASE_IDX + 15, hal_i2c, hal_i2c_set_callback_on_requested, void(hal_i2c_interface_t, void(*)(void), void*))
DYNALIB_FN(BASE_IDX + 16, hal_i2c, hal_i2c_init, int(hal_i2c_interface_t, const hal_i2c_config_t*))
   d7994:	b508      	push	{r3, lr}
   d7996:	4b02      	ldr	r3, [pc, #8]	; (d79a0 <hal_i2c_init+0xc>)
   d7998:	681b      	ldr	r3, [r3, #0]
   d799a:	6c1b      	ldr	r3, [r3, #64]	; 0x40
   d799c:	9301      	str	r3, [sp, #4]
   d799e:	bd08      	pop	{r3, pc}
   d79a0:	00030228 	.word	0x00030228

000d79a4 <hal_i2c_lock>:
DYNALIB_FN(BASE_IDX + 17, hal_i2c, hal_i2c_reset, uint8_t(hal_i2c_interface_t, uint32_t, void*))
DYNALIB_FN(BASE_IDX + 18, hal_i2c, hal_i2c_lock, int32_t(hal_i2c_interface_t, void*))
   d79a4:	b508      	push	{r3, lr}
   d79a6:	4b02      	ldr	r3, [pc, #8]	; (d79b0 <hal_i2c_lock+0xc>)
   d79a8:	681b      	ldr	r3, [r3, #0]
   d79aa:	6c9b      	ldr	r3, [r3, #72]	; 0x48
   d79ac:	9301      	str	r3, [sp, #4]
   d79ae:	bd08      	pop	{r3, pc}
   d79b0:	00030228 	.word	0x00030228

000d79b4 <hal_i2c_unlock>:
DYNALIB_FN(BASE_IDX + 19, hal_i2c, hal_i2c_unlock, int32_t(hal_i2c_interface_t, void*))
   d79b4:	b508      	push	{r3, lr}
   d79b6:	4b02      	ldr	r3, [pc, #8]	; (d79c0 <hal_i2c_unlock+0xc>)
   d79b8:	681b      	ldr	r3, [r3, #0]
   d79ba:	6cdb      	ldr	r3, [r3, #76]	; 0x4c
   d79bc:	9301      	str	r3, [sp, #4]
   d79be:	bd08      	pop	{r3, pc}
   d79c0:	00030228 	.word	0x00030228

000d79c4 <hal_i2c_request_ex>:
DYNALIB_FN(BASE_IDX + 20, hal_i2c, hal_i2c_request_ex, int32_t(hal_i2c_interface_t, const hal_i2c_transmission_config_t*, void*))
   d79c4:	b508      	push	{r3, lr}
   d79c6:	4b02      	ldr	r3, [pc, #8]	; (d79d0 <hal_i2c_request_ex+0xc>)
   d79c8:	681b      	ldr	r3, [r3, #0]
   d79ca:	6d1b      	ldr	r3, [r3, #80]	; 0x50
   d79cc:	9301      	str	r3, [sp, #4]
   d79ce:	bd08      	pop	{r3, pc}
   d79d0:	00030228 	.word	0x00030228

000d79d4 <inet_inet_ntop>:
DYNALIB_FN(0, hal_inet, inet_inet_addr, in_addr_t(const char*))
DYNALIB_FN(1, hal_inet, inet_inet_aton, int(const char*, struct in_addr*))
DYNALIB_FN(2, hal_inet, inet_inet_network, in_addr_t(const char*))
DYNALIB_FN(3, hal_inet, inet_inet_ntoa, char*(struct in_addr))
DYNALIB_FN(4, hal_inet, inet_inet_ntoa_r, char*(struct in_addr, char*, socklen_t))
DYNALIB_FN(5, hal_inet, inet_inet_ntop, const char*(int, const void*, char*, socklen_t))
   d79d4:	b508      	push	{r3, lr}
   d79d6:	4b02      	ldr	r3, [pc, #8]	; (d79e0 <inet_inet_ntop+0xc>)
   d79d8:	681b      	ldr	r3, [r3, #0]
   d79da:	695b      	ldr	r3, [r3, #20]
   d79dc:	9301      	str	r3, [sp, #4]
   d79de:	bd08      	pop	{r3, pc}
   d79e0:	00030264 	.word	0x00030264

000d79e4 <netdb_freeaddrinfo>:

DYNALIB_BEGIN(hal_netdb)

DYNALIB_FN(0, hal_netdb, netdb_gethostbyname, struct hostent*(const char*))
DYNALIB_FN(1, hal_netdb, netdb_gethostbyname_r, int(const char*, struct hostent*, char*, size_t, struct hostent**, int*))
DYNALIB_FN(2, hal_netdb, netdb_freeaddrinfo, void(struct addrinfo*))
   d79e4:	b508      	push	{r3, lr}
   d79e6:	4b02      	ldr	r3, [pc, #8]	; (d79f0 <netdb_freeaddrinfo+0xc>)
   d79e8:	681b      	ldr	r3, [r3, #0]
   d79ea:	689b      	ldr	r3, [r3, #8]
   d79ec:	9301      	str	r3, [sp, #4]
   d79ee:	bd08      	pop	{r3, pc}
   d79f0:	00030268 	.word	0x00030268

000d79f4 <netdb_getaddrinfo>:
DYNALIB_FN(3, hal_netdb, netdb_getaddrinfo, int(const char*, const char*, const struct addrinfo*, struct addrinfo**))
   d79f4:	b508      	push	{r3, lr}
   d79f6:	4b02      	ldr	r3, [pc, #8]	; (d7a00 <netdb_getaddrinfo+0xc>)
   d79f8:	681b      	ldr	r3, [r3, #0]
   d79fa:	68db      	ldr	r3, [r3, #12]
   d79fc:	9301      	str	r3, [sp, #4]
   d79fe:	bd08      	pop	{r3, pc}
   d7a00:	00030268 	.word	0x00030268

000d7a04 <hal_spi_init>:
DYNALIB_FN(2, hal_spi, hal_spi_set_bit_order, void(hal_spi_interface_t, uint8_t))
DYNALIB_FN(3, hal_spi, hal_spi_set_data_mode, void(hal_spi_interface_t, uint8_t))
DYNALIB_FN(4, hal_spi, hal_spi_set_clock_divider, void(hal_spi_interface_t, uint8_t))
DYNALIB_FN(5, hal_spi, hal_spi_transfer, uint16_t(hal_spi_interface_t, uint16_t))
DYNALIB_FN(6, hal_spi, hal_spi_is_enabled_deprecated, bool(void))
DYNALIB_FN(7, hal_spi, hal_spi_init, void(hal_spi_interface_t))
   d7a04:	b508      	push	{r3, lr}
   d7a06:	4b02      	ldr	r3, [pc, #8]	; (d7a10 <hal_spi_init+0xc>)
   d7a08:	681b      	ldr	r3, [r3, #0]
   d7a0a:	69db      	ldr	r3, [r3, #28]
   d7a0c:	9301      	str	r3, [sp, #4]
   d7a0e:	bd08      	pop	{r3, pc}
   d7a10:	00030230 	.word	0x00030230

000d7a14 <hal_spi_is_enabled>:
DYNALIB_FN(8, hal_spi, hal_spi_is_enabled, bool(hal_spi_interface_t))
   d7a14:	b508      	push	{r3, lr}
   d7a16:	4b02      	ldr	r3, [pc, #8]	; (d7a20 <hal_spi_is_enabled+0xc>)
   d7a18:	681b      	ldr	r3, [r3, #0]
   d7a1a:	6a1b      	ldr	r3, [r3, #32]
   d7a1c:	9301      	str	r3, [sp, #4]
   d7a1e:	bd08      	pop	{r3, pc}
   d7a20:	00030230 	.word	0x00030230

000d7a24 <hal_usart_init>:
#define BASE_IDX 6 // Base index for all subsequent functions
#else
#define BASE_IDX 0
#endif

DYNALIB_FN(BASE_IDX + 0, hal_usart, hal_usart_init, void(hal_usart_interface_t, hal_usart_ring_buffer_t*, hal_usart_ring_buffer_t*))
   d7a24:	b508      	push	{r3, lr}
   d7a26:	4b02      	ldr	r3, [pc, #8]	; (d7a30 <hal_usart_init+0xc>)
   d7a28:	681b      	ldr	r3, [r3, #0]
   d7a2a:	681b      	ldr	r3, [r3, #0]
   d7a2c:	9301      	str	r3, [sp, #4]
   d7a2e:	bd08      	pop	{r3, pc}
   d7a30:	0003023c 	.word	0x0003023c

000d7a34 <hal_usart_end>:
DYNALIB_FN(BASE_IDX + 1, hal_usart, hal_usart_begin, void(hal_usart_interface_t, uint32_t))
DYNALIB_FN(BASE_IDX + 2, hal_usart, hal_usart_end, void(hal_usart_interface_t))
   d7a34:	b508      	push	{r3, lr}
   d7a36:	4b02      	ldr	r3, [pc, #8]	; (d7a40 <hal_usart_end+0xc>)
   d7a38:	681b      	ldr	r3, [r3, #0]
   d7a3a:	689b      	ldr	r3, [r3, #8]
   d7a3c:	9301      	str	r3, [sp, #4]
   d7a3e:	bd08      	pop	{r3, pc}
   d7a40:	0003023c 	.word	0x0003023c

000d7a44 <hal_usart_write>:
DYNALIB_FN(BASE_IDX + 3, hal_usart, hal_usart_write, uint32_t(hal_usart_interface_t, uint8_t))
   d7a44:	b508      	push	{r3, lr}
   d7a46:	4b02      	ldr	r3, [pc, #8]	; (d7a50 <hal_usart_write+0xc>)
   d7a48:	681b      	ldr	r3, [r3, #0]
   d7a4a:	68db      	ldr	r3, [r3, #12]
   d7a4c:	9301      	str	r3, [sp, #4]
   d7a4e:	bd08      	pop	{r3, pc}
   d7a50:	0003023c 	.word	0x0003023c

000d7a54 <hal_usart_available>:
DYNALIB_FN(BASE_IDX + 4, hal_usart, hal_usart_available, int32_t(hal_usart_interface_t))
   d7a54:	b508      	push	{r3, lr}
   d7a56:	4b02      	ldr	r3, [pc, #8]	; (d7a60 <hal_usart_available+0xc>)
   d7a58:	681b      	ldr	r3, [r3, #0]
   d7a5a:	691b      	ldr	r3, [r3, #16]
   d7a5c:	9301      	str	r3, [sp, #4]
   d7a5e:	bd08      	pop	{r3, pc}
   d7a60:	0003023c 	.word	0x0003023c

000d7a64 <hal_usart_read>:
DYNALIB_FN(BASE_IDX + 5, hal_usart, hal_usart_read, int32_t(hal_usart_interface_t))
   d7a64:	b508      	push	{r3, lr}
   d7a66:	4b02      	ldr	r3, [pc, #8]	; (d7a70 <hal_usart_read+0xc>)
   d7a68:	681b      	ldr	r3, [r3, #0]
   d7a6a:	695b      	ldr	r3, [r3, #20]
   d7a6c:	9301      	str	r3, [sp, #4]
   d7a6e:	bd08      	pop	{r3, pc}
   d7a70:	0003023c 	.word	0x0003023c

000d7a74 <hal_usart_peek>:
DYNALIB_FN(BASE_IDX + 6, hal_usart, hal_usart_peek, int32_t(hal_usart_interface_t))
   d7a74:	b508      	push	{r3, lr}
   d7a76:	4b02      	ldr	r3, [pc, #8]	; (d7a80 <hal_usart_peek+0xc>)
   d7a78:	681b      	ldr	r3, [r3, #0]
   d7a7a:	699b      	ldr	r3, [r3, #24]
   d7a7c:	9301      	str	r3, [sp, #4]
   d7a7e:	bd08      	pop	{r3, pc}
   d7a80:	0003023c 	.word	0x0003023c

000d7a84 <hal_usart_flush>:
DYNALIB_FN(BASE_IDX + 7, hal_usart, hal_usart_flush, void(hal_usart_interface_t))
   d7a84:	b508      	push	{r3, lr}
   d7a86:	4b02      	ldr	r3, [pc, #8]	; (d7a90 <hal_usart_flush+0xc>)
   d7a88:	681b      	ldr	r3, [r3, #0]
   d7a8a:	69db      	ldr	r3, [r3, #28]
   d7a8c:	9301      	str	r3, [sp, #4]
   d7a8e:	bd08      	pop	{r3, pc}
   d7a90:	0003023c 	.word	0x0003023c

000d7a94 <hal_usart_is_enabled>:
DYNALIB_FN(BASE_IDX + 8, hal_usart, hal_usart_is_enabled, bool(hal_usart_interface_t))
   d7a94:	b508      	push	{r3, lr}
   d7a96:	4b02      	ldr	r3, [pc, #8]	; (d7aa0 <hal_usart_is_enabled+0xc>)
   d7a98:	681b      	ldr	r3, [r3, #0]
   d7a9a:	6a1b      	ldr	r3, [r3, #32]
   d7a9c:	9301      	str	r3, [sp, #4]
   d7a9e:	bd08      	pop	{r3, pc}
   d7aa0:	0003023c 	.word	0x0003023c

000d7aa4 <hal_usart_available_data_for_write>:
DYNALIB_FN(BASE_IDX + 9, hal_usart, hal_usart_half_duplex, void(hal_usart_interface_t, bool))
DYNALIB_FN(BASE_IDX + 10, hal_usart, hal_usart_available_data_for_write, int32_t(hal_usart_interface_t))
   d7aa4:	b508      	push	{r3, lr}
   d7aa6:	4b02      	ldr	r3, [pc, #8]	; (d7ab0 <hal_usart_available_data_for_write+0xc>)
   d7aa8:	681b      	ldr	r3, [r3, #0]
   d7aaa:	6a9b      	ldr	r3, [r3, #40]	; 0x28
   d7aac:	9301      	str	r3, [sp, #4]
   d7aae:	bd08      	pop	{r3, pc}
   d7ab0:	0003023c 	.word	0x0003023c

000d7ab4 <hal_usart_begin_config>:
#define BASE_IDX2 (BASE_IDX+13)
#else
#define BASE_IDX2 (BASE_IDX+11)
#endif

DYNALIB_FN(BASE_IDX2 + 0, hal_usart, hal_usart_begin_config, void(hal_usart_interface_t serial, uint32_t baud, uint32_t config, void *ptr))
   d7ab4:	b508      	push	{r3, lr}
   d7ab6:	4b02      	ldr	r3, [pc, #8]	; (d7ac0 <hal_usart_begin_config+0xc>)
   d7ab8:	681b      	ldr	r3, [r3, #0]
   d7aba:	6adb      	ldr	r3, [r3, #44]	; 0x2c
   d7abc:	9301      	str	r3, [sp, #4]
   d7abe:	bd08      	pop	{r3, pc}
   d7ac0:	0003023c 	.word	0x0003023c

000d7ac4 <HAL_USB_USART_Init>:
#endif

DYNALIB_BEGIN(hal_usb)

#ifdef USB_CDC_ENABLE
DYNALIB_FN(0, hal_usb, HAL_USB_USART_Init, void(HAL_USB_USART_Serial, const HAL_USB_USART_Config*))
   d7ac4:	b508      	push	{r3, lr}
   d7ac6:	4b02      	ldr	r3, [pc, #8]	; (d7ad0 <HAL_USB_USART_Init+0xc>)
   d7ac8:	681b      	ldr	r3, [r3, #0]
   d7aca:	681b      	ldr	r3, [r3, #0]
   d7acc:	9301      	str	r3, [sp, #4]
   d7ace:	bd08      	pop	{r3, pc}
   d7ad0:	0003024c 	.word	0x0003024c

000d7ad4 <HAL_USB_USART_Begin>:
DYNALIB_FN(1, hal_usb, HAL_USB_USART_Begin, void(HAL_USB_USART_Serial, uint32_t, void *))
   d7ad4:	b508      	push	{r3, lr}
   d7ad6:	4b02      	ldr	r3, [pc, #8]	; (d7ae0 <HAL_USB_USART_Begin+0xc>)
   d7ad8:	681b      	ldr	r3, [r3, #0]
   d7ada:	685b      	ldr	r3, [r3, #4]
   d7adc:	9301      	str	r3, [sp, #4]
   d7ade:	bd08      	pop	{r3, pc}
   d7ae0:	0003024c 	.word	0x0003024c

000d7ae4 <HAL_USB_USART_End>:
DYNALIB_FN(2, hal_usb, HAL_USB_USART_End, void(HAL_USB_USART_Serial))
   d7ae4:	b508      	push	{r3, lr}
   d7ae6:	4b02      	ldr	r3, [pc, #8]	; (d7af0 <HAL_USB_USART_End+0xc>)
   d7ae8:	681b      	ldr	r3, [r3, #0]
   d7aea:	689b      	ldr	r3, [r3, #8]
   d7aec:	9301      	str	r3, [sp, #4]
   d7aee:	bd08      	pop	{r3, pc}
   d7af0:	0003024c 	.word	0x0003024c

000d7af4 <HAL_USB_USART_Available_Data>:
DYNALIB_FN(3, hal_usb, HAL_USB_USART_Baud_Rate, unsigned int(HAL_USB_USART_Serial))
DYNALIB_FN(4, hal_usb, HAL_USB_USART_Available_Data, int32_t(HAL_USB_USART_Serial))
   d7af4:	b508      	push	{r3, lr}
   d7af6:	4b02      	ldr	r3, [pc, #8]	; (d7b00 <HAL_USB_USART_Available_Data+0xc>)
   d7af8:	681b      	ldr	r3, [r3, #0]
   d7afa:	691b      	ldr	r3, [r3, #16]
   d7afc:	9301      	str	r3, [sp, #4]
   d7afe:	bd08      	pop	{r3, pc}
   d7b00:	0003024c 	.word	0x0003024c

000d7b04 <HAL_USB_USART_Available_Data_For_Write>:
DYNALIB_FN(5, hal_usb, HAL_USB_USART_Available_Data_For_Write, int32_t(HAL_USB_USART_Serial))
   d7b04:	b508      	push	{r3, lr}
   d7b06:	4b02      	ldr	r3, [pc, #8]	; (d7b10 <HAL_USB_USART_Available_Data_For_Write+0xc>)
   d7b08:	681b      	ldr	r3, [r3, #0]
   d7b0a:	695b      	ldr	r3, [r3, #20]
   d7b0c:	9301      	str	r3, [sp, #4]
   d7b0e:	bd08      	pop	{r3, pc}
   d7b10:	0003024c 	.word	0x0003024c

000d7b14 <HAL_USB_USART_Receive_Data>:
DYNALIB_FN(6, hal_usb, HAL_USB_USART_Receive_Data, int32_t(HAL_USB_USART_Serial, uint8_t))
   d7b14:	b508      	push	{r3, lr}
   d7b16:	4b02      	ldr	r3, [pc, #8]	; (d7b20 <HAL_USB_USART_Receive_Data+0xc>)
   d7b18:	681b      	ldr	r3, [r3, #0]
   d7b1a:	699b      	ldr	r3, [r3, #24]
   d7b1c:	9301      	str	r3, [sp, #4]
   d7b1e:	bd08      	pop	{r3, pc}
   d7b20:	0003024c 	.word	0x0003024c

000d7b24 <HAL_USB_USART_Send_Data>:
DYNALIB_FN(7, hal_usb, HAL_USB_USART_Send_Data, int32_t(HAL_USB_USART_Serial, uint8_t))
   d7b24:	b508      	push	{r3, lr}
   d7b26:	4b02      	ldr	r3, [pc, #8]	; (d7b30 <HAL_USB_USART_Send_Data+0xc>)
   d7b28:	681b      	ldr	r3, [r3, #0]
   d7b2a:	69db      	ldr	r3, [r3, #28]
   d7b2c:	9301      	str	r3, [sp, #4]
   d7b2e:	bd08      	pop	{r3, pc}
   d7b30:	0003024c 	.word	0x0003024c

000d7b34 <HAL_USB_USART_Flush_Data>:
DYNALIB_FN(8, hal_usb, HAL_USB_USART_Flush_Data, void(HAL_USB_USART_Serial))
   d7b34:	b508      	push	{r3, lr}
   d7b36:	4b02      	ldr	r3, [pc, #8]	; (d7b40 <HAL_USB_USART_Flush_Data+0xc>)
   d7b38:	681b      	ldr	r3, [r3, #0]
   d7b3a:	6a1b      	ldr	r3, [r3, #32]
   d7b3c:	9301      	str	r3, [sp, #4]
   d7b3e:	bd08      	pop	{r3, pc}
   d7b40:	0003024c 	.word	0x0003024c

000d7b44 <panic_>:
DYNALIB_FN(9, services, LED_Toggle, void(Led_TypeDef))
DYNALIB_FN(10, services, LED_Fade, void(Led_TypeDef))
DYNALIB_FN(11, services, Get_LED_Brightness, uint8_t(void))

DYNALIB_FN(12, services, set_logger_output, void(debug_output_fn, LoggerOutputLevel)) // Deprecated
DYNALIB_FN(13, services, panic_, void(ePanicCode, void*, void(*)(uint32_t)))
   d7b44:	b508      	push	{r3, lr}
   d7b46:	4b02      	ldr	r3, [pc, #8]	; (d7b50 <panic_+0xc>)
   d7b48:	681b      	ldr	r3, [r3, #0]
   d7b4a:	6b5b      	ldr	r3, [r3, #52]	; 0x34
   d7b4c:	9301      	str	r3, [sp, #4]
   d7b4e:	bd08      	pop	{r3, pc}
   d7b50:	00030260 	.word	0x00030260

000d7b54 <log_message>:
DYNALIB_FN(16, services, log_print_, void(int, int, const char*, const char*, const char*, ...)) // Deprecated
DYNALIB_FN(17, services, LED_RGB_SetChangeHandler, void(led_update_handler_fn, void*))
DYNALIB_FN(18, services, log_print_direct_, void(int, void*, const char*, ...)) // Deprecated
DYNALIB_FN(19, services, LED_GetColor, uint32_t(uint32_t, void*))

DYNALIB_FN(20, services, log_message, void(int, const char*, LogAttributes*, void*, const char*, ...))
   d7b54:	b508      	push	{r3, lr}
   d7b56:	4b02      	ldr	r3, [pc, #8]	; (d7b60 <log_message+0xc>)
   d7b58:	681b      	ldr	r3, [r3, #0]
   d7b5a:	6d1b      	ldr	r3, [r3, #80]	; 0x50
   d7b5c:	9301      	str	r3, [sp, #4]
   d7b5e:	bd08      	pop	{r3, pc}
   d7b60:	00030260 	.word	0x00030260

000d7b64 <log_message_v>:
DYNALIB_FN(21, services, log_message_v, void(int, const char*, LogAttributes*, void*, const char*, va_list))
   d7b64:	b508      	push	{r3, lr}
   d7b66:	4b02      	ldr	r3, [pc, #8]	; (d7b70 <log_message_v+0xc>)
   d7b68:	681b      	ldr	r3, [r3, #0]
   d7b6a:	6d5b      	ldr	r3, [r3, #84]	; 0x54
   d7b6c:	9301      	str	r3, [sp, #4]
   d7b6e:	bd08      	pop	{r3, pc}
   d7b70:	00030260 	.word	0x00030260

000d7b74 <log_level_name>:
DYNALIB_FN(22, services, log_write, void(int, const char*, const char*, size_t, void*))
DYNALIB_FN(23, services, log_printf, void(int, const char*, void*, const char*, ...))
DYNALIB_FN(24, services, log_printf_v, void(int, const char*, void*, const char*, va_list))
DYNALIB_FN(25, services, log_dump, void(int, const char*, const void*, size_t, int, void*))
DYNALIB_FN(26, services, log_enabled, int(int, const char*, void*))
DYNALIB_FN(27, services, log_level_name, const char*(int, void*))
   d7b74:	b508      	push	{r3, lr}
   d7b76:	4b02      	ldr	r3, [pc, #8]	; (d7b80 <log_level_name+0xc>)
   d7b78:	681b      	ldr	r3, [r3, #0]
   d7b7a:	6edb      	ldr	r3, [r3, #108]	; 0x6c
   d7b7c:	9301      	str	r3, [sp, #4]
   d7b7e:	bd08      	pop	{r3, pc}
   d7b80:	00030260 	.word	0x00030260

000d7b84 <log_set_callbacks>:
DYNALIB_FN(28, services, log_set_callbacks, void(log_message_callback_type, log_write_callback_type, log_enabled_callback_type, void*))
   d7b84:	b508      	push	{r3, lr}
   d7b86:	4b02      	ldr	r3, [pc, #8]	; (d7b90 <log_set_callbacks+0xc>)
   d7b88:	681b      	ldr	r3, [r3, #0]
   d7b8a:	6f1b      	ldr	r3, [r3, #112]	; 0x70
   d7b8c:	9301      	str	r3, [sp, #4]
   d7b8e:	bd08      	pop	{r3, pc}
   d7b90:	00030260 	.word	0x00030260

000d7b94 <diag_get_source>:
DYNALIB_FN(34, services, led_update_enabled, int(void*))
DYNALIB_FN(35, services, led_update, void(system_tick_t, LEDStatusData*, void*))

DYNALIB_FN(36, services, diag_register_source, int(const diag_source*, void*))
DYNALIB_FN(37, services, diag_enum_sources, int(diag_enum_sources_callback, size_t*, void*, void*))
DYNALIB_FN(38, services, diag_get_source, int(uint16_t, const diag_source**, void*))
   d7b94:	b508      	push	{r3, lr}
   d7b96:	4b03      	ldr	r3, [pc, #12]	; (d7ba4 <diag_get_source+0x10>)
   d7b98:	681b      	ldr	r3, [r3, #0]
   d7b9a:	f8d3 3098 	ldr.w	r3, [r3, #152]	; 0x98
   d7b9e:	9301      	str	r3, [sp, #4]
   d7ba0:	bd08      	pop	{r3, pc}
   d7ba2:	0000      	.short	0x0000
   d7ba4:	00030260 	.word	0x00030260

000d7ba8 <system_mode>:
#include "system_power.h"
#endif

DYNALIB_BEGIN(system)

DYNALIB_FN(0, system, system_mode, System_Mode_TypeDef(void))
   d7ba8:	b508      	push	{r3, lr}
   d7baa:	4b02      	ldr	r3, [pc, #8]	; (d7bb4 <system_mode+0xc>)
   d7bac:	681b      	ldr	r3, [r3, #0]
   d7bae:	681b      	ldr	r3, [r3, #0]
   d7bb0:	9301      	str	r3, [sp, #4]
   d7bb2:	bd08      	pop	{r3, pc}
   d7bb4:	00030220 	.word	0x00030220

000d7bb8 <set_system_mode>:
DYNALIB_FN(1, system, set_system_mode, void(System_Mode_TypeDef))
   d7bb8:	b508      	push	{r3, lr}
   d7bba:	4b02      	ldr	r3, [pc, #8]	; (d7bc4 <set_system_mode+0xc>)
   d7bbc:	681b      	ldr	r3, [r3, #0]
   d7bbe:	685b      	ldr	r3, [r3, #4]
   d7bc0:	9301      	str	r3, [sp, #4]
   d7bc2:	bd08      	pop	{r3, pc}
   d7bc4:	00030220 	.word	0x00030220

000d7bc8 <system_delay_ms>:

DYNALIB_FN(2, system, set_ymodem_serial_flash_update_handler, void(ymodem_serial_flash_update_handler))
DYNALIB_FN(3, system, system_firmwareUpdate, bool(Stream*, void*))
DYNALIB_FN(4, system, system_fileTransfer, bool(system_file_transfer_t*, void*))

DYNALIB_FN(5, system, system_delay_ms, void(unsigned long, bool))
   d7bc8:	b508      	push	{r3, lr}
   d7bca:	4b02      	ldr	r3, [pc, #8]	; (d7bd4 <system_delay_ms+0xc>)
   d7bcc:	681b      	ldr	r3, [r3, #0]
   d7bce:	695b      	ldr	r3, [r3, #20]
   d7bd0:	9301      	str	r3, [sp, #4]
   d7bd2:	bd08      	pop	{r3, pc}
   d7bd4:	00030220 	.word	0x00030220

000d7bd8 <system_subscribe_event>:
DYNALIB_FN(6, system, system_sleep, int(Spark_Sleep_TypeDef, long, uint32_t, void*))
DYNALIB_FN(7, system, system_sleep_pin, int(uint16_t, uint16_t, long, uint32_t, void*))
DYNALIB_FN(8, system, system_subscribe_event, int(system_event_t, system_event_handler_t*, void*))
   d7bd8:	b508      	push	{r3, lr}
   d7bda:	4b02      	ldr	r3, [pc, #8]	; (d7be4 <system_subscribe_event+0xc>)
   d7bdc:	681b      	ldr	r3, [r3, #0]
   d7bde:	6a1b      	ldr	r3, [r3, #32]
   d7be0:	9301      	str	r3, [sp, #4]
   d7be2:	bd08      	pop	{r3, pc}
   d7be4:	00030220 	.word	0x00030220

000d7be8 <system_thread_set_state>:
DYNALIB_FN(9, system, system_unsubscribe_event, void(system_event_t, system_event_handler_t*, void*))
DYNALIB_FN(10, system, system_button_pushed_duration, uint16_t(uint8_t, void*))
DYNALIB_FN(11, system, system_thread_set_state, void(spark::feature::State, void*))
   d7be8:	b508      	push	{r3, lr}
   d7bea:	4b02      	ldr	r3, [pc, #8]	; (d7bf4 <system_thread_set_state+0xc>)
   d7bec:	681b      	ldr	r3, [r3, #0]
   d7bee:	6adb      	ldr	r3, [r3, #44]	; 0x2c
   d7bf0:	9301      	str	r3, [sp, #4]
   d7bf2:	bd08      	pop	{r3, pc}
   d7bf4:	00030220 	.word	0x00030220

000d7bf8 <application_thread_current>:
DYNALIB_FN(15, system, system_get_flag, int(system_flag_t, uint8_t*, void*))
DYNALIB_FN(16, system, Spark_Prepare_For_Firmware_Update, int(FileTransfer::Descriptor&, uint32_t, void*))
DYNALIB_FN(17, system, Spark_Save_Firmware_Chunk, int(FileTransfer::Descriptor&, const uint8_t*, void*))
DYNALIB_FN(18, system, Spark_Finish_Firmware_Update, int(FileTransfer::Descriptor&, uint32_t, void*))

DYNALIB_FN(19, system, application_thread_current, uint8_t(void*))
   d7bf8:	b508      	push	{r3, lr}
   d7bfa:	4b02      	ldr	r3, [pc, #8]	; (d7c04 <application_thread_current+0xc>)
   d7bfc:	681b      	ldr	r3, [r3, #0]
   d7bfe:	6cdb      	ldr	r3, [r3, #76]	; 0x4c
   d7c00:	9301      	str	r3, [sp, #4]
   d7c02:	bd08      	pop	{r3, pc}
   d7c04:	00030220 	.word	0x00030220

000d7c08 <application_thread_invoke>:
DYNALIB_FN(20, system, system_thread_current, uint8_t(void*))
DYNALIB_FN(21, system, application_thread_invoke, uint8_t(void(*)(void*), void*, void*))
   d7c08:	b508      	push	{r3, lr}
   d7c0a:	4b02      	ldr	r3, [pc, #8]	; (d7c14 <application_thread_invoke+0xc>)
   d7c0c:	681b      	ldr	r3, [r3, #0]
   d7c0e:	6d5b      	ldr	r3, [r3, #84]	; 0x54
   d7c10:	9301      	str	r3, [sp, #4]
   d7c12:	bd08      	pop	{r3, pc}
   d7c14:	00030220 	.word	0x00030220

000d7c18 <system_thread_get_state>:
DYNALIB_FN(22, system, system_thread_get_state, spark::feature::State(void*))
   d7c18:	b508      	push	{r3, lr}
   d7c1a:	4b02      	ldr	r3, [pc, #8]	; (d7c24 <system_thread_get_state+0xc>)
   d7c1c:	681b      	ldr	r3, [r3, #0]
   d7c1e:	6d9b      	ldr	r3, [r3, #88]	; 0x58
   d7c20:	9301      	str	r3, [sp, #4]
   d7c22:	bd08      	pop	{r3, pc}
   d7c24:	00030220 	.word	0x00030220

000d7c28 <system_notify_time_changed>:
DYNALIB_FN(23, system, system_notify_time_changed, void(uint32_t, void*, void*))
   d7c28:	b508      	push	{r3, lr}
   d7c2a:	4b02      	ldr	r3, [pc, #8]	; (d7c34 <system_notify_time_changed+0xc>)
   d7c2c:	681b      	ldr	r3, [r3, #0]
   d7c2e:	6ddb      	ldr	r3, [r3, #92]	; 0x5c
   d7c30:	9301      	str	r3, [sp, #4]
   d7c32:	bd08      	pop	{r3, pc}
   d7c34:	00030220 	.word	0x00030220

000d7c38 <system_ctrl_set_app_request_handler>:
DYNALIB_FN(BASE_IDX + 6, system, led_pattern_period, uint16_t(int, int, void*))
DYNALIB_FN(BASE_IDX + 7, system, system_set_tester_handlers, int(system_tester_handlers_t*, void*))
DYNALIB_FN(BASE_IDX + 8, system, system_format_diag_data, int(const uint16_t*, size_t, unsigned, appender_fn, void*, void*))

// Control requests
DYNALIB_FN(BASE_IDX + 9, system, system_ctrl_set_app_request_handler, int(ctrl_request_handler_fn, void*))
   d7c38:	b508      	push	{r3, lr}
   d7c3a:	4b03      	ldr	r3, [pc, #12]	; (d7c48 <system_ctrl_set_app_request_handler+0x10>)
   d7c3c:	681b      	ldr	r3, [r3, #0]
   d7c3e:	f8d3 3088 	ldr.w	r3, [r3, #136]	; 0x88
   d7c42:	9301      	str	r3, [sp, #4]
   d7c44:	bd08      	pop	{r3, pc}
   d7c46:	0000      	.short	0x0000
   d7c48:	00030220 	.word	0x00030220

000d7c4c <system_ctrl_set_result>:
DYNALIB_FN(BASE_IDX + 10, system, system_ctrl_alloc_reply_data, int(ctrl_request*, size_t, void*))
DYNALIB_FN(BASE_IDX + 11, system, system_ctrl_free_request_data, void(ctrl_request*, void*))
DYNALIB_FN(BASE_IDX + 12, system, system_ctrl_set_result, void(ctrl_request*, int, ctrl_completion_handler_fn, void*, void*))
   d7c4c:	b508      	push	{r3, lr}
   d7c4e:	4b03      	ldr	r3, [pc, #12]	; (d7c5c <system_ctrl_set_result+0x10>)
   d7c50:	681b      	ldr	r3, [r3, #0]
   d7c52:	f8d3 3094 	ldr.w	r3, [r3, #148]	; 0x94
   d7c56:	9301      	str	r3, [sp, #4]
   d7c58:	bd08      	pop	{r3, pc}
   d7c5a:	0000      	.short	0x0000
   d7c5c:	00030220 	.word	0x00030220

000d7c60 <system_power_management_set_config>:
DYNALIB_FN(BASE_IDX + 14, system, system_pool_free, void(void*, void*))
DYNALIB_FN(BASE_IDX + 15, system, system_sleep_pins, int(const uint16_t*, size_t, const InterruptMode*, size_t, long, uint32_t, void*))
DYNALIB_FN(BASE_IDX + 16, system, system_invoke_event_handler, int(uint16_t handlerInfoSize, FilteringEventHandler* handlerInfo, const char* event_name, const char* event_data, void* reserved))

#if HAL_PLATFORM_POWER_MANAGEMENT
DYNALIB_FN(BASE_IDX + 17, system, system_power_management_set_config, int(const hal_power_config*, void*))
   d7c60:	b508      	push	{r3, lr}
   d7c62:	4b03      	ldr	r3, [pc, #12]	; (d7c70 <system_power_management_set_config+0x10>)
   d7c64:	681b      	ldr	r3, [r3, #0]
   d7c66:	f8d3 30a8 	ldr.w	r3, [r3, #168]	; 0xa8
   d7c6a:	9301      	str	r3, [sp, #4]
   d7c6c:	bd08      	pop	{r3, pc}
   d7c6e:	0000      	.short	0x0000
   d7c70:	00030220 	.word	0x00030220

000d7c74 <system_sleep_ext>:
#define BASE_IDX1 (BASE_IDX + 18)
#else
#define BASE_IDX1 (BASE_IDX + 17)
#endif // HAL_PLATFORM_POWER_MANAGEMENT

DYNALIB_FN(BASE_IDX1 + 0, system, system_sleep_ext, int(const hal_sleep_config_t*, hal_wakeup_source_base_t**, void*))
   d7c74:	b508      	push	{r3, lr}
   d7c76:	4b03      	ldr	r3, [pc, #12]	; (d7c84 <system_sleep_ext+0x10>)
   d7c78:	681b      	ldr	r3, [r3, #0]
   d7c7a:	f8d3 30ac 	ldr.w	r3, [r3, #172]	; 0xac
   d7c7e:	9301      	str	r3, [sp, #4]
   d7c80:	bd08      	pop	{r3, pc}
   d7c82:	0000      	.short	0x0000
   d7c84:	00030220 	.word	0x00030220

000d7c88 <system_reset>:
DYNALIB_FN(BASE_IDX1 + 1, system, system_reset, int(unsigned, unsigned, unsigned, unsigned, void*))
   d7c88:	b508      	push	{r3, lr}
   d7c8a:	4b03      	ldr	r3, [pc, #12]	; (d7c98 <system_reset+0x10>)
   d7c8c:	681b      	ldr	r3, [r3, #0]
   d7c8e:	f8d3 30b0 	ldr.w	r3, [r3, #176]	; 0xb0
   d7c92:	9301      	str	r3, [sp, #4]
   d7c94:	bd08      	pop	{r3, pc}
   d7c96:	0000      	.short	0x0000
   d7c98:	00030220 	.word	0x00030220

000d7c9c <spark_variable>:
#endif


DYNALIB_BEGIN(system_cloud)

DYNALIB_FN(0, system_cloud, spark_variable, bool(const char*, const void*, Spark_Data_TypeDef, spark_variable_t*))
   d7c9c:	b508      	push	{r3, lr}
   d7c9e:	4b02      	ldr	r3, [pc, #8]	; (d7ca8 <spark_variable+0xc>)
   d7ca0:	681b      	ldr	r3, [r3, #0]
   d7ca2:	681b      	ldr	r3, [r3, #0]
   d7ca4:	9301      	str	r3, [sp, #4]
   d7ca6:	bd08      	pop	{r3, pc}
   d7ca8:	00030244 	.word	0x00030244

000d7cac <spark_function>:
DYNALIB_FN(1, system_cloud, spark_function, bool(const char*, p_user_function_int_str_t, void*))
   d7cac:	b508      	push	{r3, lr}
   d7cae:	4b02      	ldr	r3, [pc, #8]	; (d7cb8 <spark_function+0xc>)
   d7cb0:	681b      	ldr	r3, [r3, #0]
   d7cb2:	685b      	ldr	r3, [r3, #4]
   d7cb4:	9301      	str	r3, [sp, #4]
   d7cb6:	bd08      	pop	{r3, pc}
   d7cb8:	00030244 	.word	0x00030244

000d7cbc <spark_process>:
DYNALIB_FN(2, system_cloud, spark_process, void(void))
   d7cbc:	b508      	push	{r3, lr}
   d7cbe:	4b02      	ldr	r3, [pc, #8]	; (d7cc8 <spark_process+0xc>)
   d7cc0:	681b      	ldr	r3, [r3, #0]
   d7cc2:	689b      	ldr	r3, [r3, #8]
   d7cc4:	9301      	str	r3, [sp, #4]
   d7cc6:	bd08      	pop	{r3, pc}
   d7cc8:	00030244 	.word	0x00030244

000d7ccc <spark_cloud_flag_connect>:
DYNALIB_FN(3, system_cloud, spark_cloud_flag_connect, void(void))
   d7ccc:	b508      	push	{r3, lr}
   d7cce:	4b02      	ldr	r3, [pc, #8]	; (d7cd8 <spark_cloud_flag_connect+0xc>)
   d7cd0:	681b      	ldr	r3, [r3, #0]
   d7cd2:	68db      	ldr	r3, [r3, #12]
   d7cd4:	9301      	str	r3, [sp, #4]
   d7cd6:	bd08      	pop	{r3, pc}
   d7cd8:	00030244 	.word	0x00030244

000d7cdc <spark_cloud_flag_connected>:
DYNALIB_FN(4, system_cloud, spark_cloud_flag_disconnect, void(void))
DYNALIB_FN(5, system_cloud, spark_cloud_flag_connected, bool(void))
   d7cdc:	b508      	push	{r3, lr}
   d7cde:	4b02      	ldr	r3, [pc, #8]	; (d7ce8 <spark_cloud_flag_connected+0xc>)
   d7ce0:	681b      	ldr	r3, [r3, #0]
   d7ce2:	695b      	ldr	r3, [r3, #20]
   d7ce4:	9301      	str	r3, [sp, #4]
   d7ce6:	bd08      	pop	{r3, pc}
   d7ce8:	00030244 	.word	0x00030244

000d7cec <spark_deviceID>:
DYNALIB_FN(6, system_cloud, system_cloud_protocol_instance, ProtocolFacade*(void))
DYNALIB_FN(7, system_cloud, spark_deviceID, String(void))
   d7cec:	b508      	push	{r3, lr}
   d7cee:	4b02      	ldr	r3, [pc, #8]	; (d7cf8 <spark_deviceID+0xc>)
   d7cf0:	681b      	ldr	r3, [r3, #0]
   d7cf2:	69db      	ldr	r3, [r3, #28]
   d7cf4:	9301      	str	r3, [sp, #4]
   d7cf6:	bd08      	pop	{r3, pc}
   d7cf8:	00030244 	.word	0x00030244

000d7cfc <spark_send_event>:
DYNALIB_FN(8, system_cloud, spark_send_event, bool(const char*, const char*, int, uint32_t, void*))
   d7cfc:	b508      	push	{r3, lr}
   d7cfe:	4b02      	ldr	r3, [pc, #8]	; (d7d08 <spark_send_event+0xc>)
   d7d00:	681b      	ldr	r3, [r3, #0]
   d7d02:	6a1b      	ldr	r3, [r3, #32]
   d7d04:	9301      	str	r3, [sp, #4]
   d7d06:	bd08      	pop	{r3, pc}
   d7d08:	00030244 	.word	0x00030244

000d7d0c <spark_subscribe>:
DYNALIB_FN(9, system_cloud, spark_subscribe, bool(const char*, EventHandler, void*, Spark_Subscription_Scope_TypeDef, const char*, void*))
   d7d0c:	b508      	push	{r3, lr}
   d7d0e:	4b02      	ldr	r3, [pc, #8]	; (d7d18 <spark_subscribe+0xc>)
   d7d10:	681b      	ldr	r3, [r3, #0]
   d7d12:	6a5b      	ldr	r3, [r3, #36]	; 0x24
   d7d14:	9301      	str	r3, [sp, #4]
   d7d16:	bd08      	pop	{r3, pc}
   d7d18:	00030244 	.word	0x00030244

000d7d1c <spark_sync_time>:
DYNALIB_FN(10, system_cloud, spark_unsubscribe, void(void*))
DYNALIB_FN(11, system_cloud, spark_sync_time, bool(void*))
   d7d1c:	b508      	push	{r3, lr}
   d7d1e:	4b02      	ldr	r3, [pc, #8]	; (d7d28 <spark_sync_time+0xc>)
   d7d20:	681b      	ldr	r3, [r3, #0]
   d7d22:	6adb      	ldr	r3, [r3, #44]	; 0x2c
   d7d24:	9301      	str	r3, [sp, #4]
   d7d26:	bd08      	pop	{r3, pc}
   d7d28:	00030244 	.word	0x00030244

000d7d2c <spark_sync_time_pending>:
DYNALIB_FN(12, system_cloud, spark_sync_time_pending, bool(void*))
   d7d2c:	b508      	push	{r3, lr}
   d7d2e:	4b02      	ldr	r3, [pc, #8]	; (d7d38 <spark_sync_time_pending+0xc>)
   d7d30:	681b      	ldr	r3, [r3, #0]
   d7d32:	6b1b      	ldr	r3, [r3, #48]	; 0x30
   d7d34:	9301      	str	r3, [sp, #4]
   d7d36:	bd08      	pop	{r3, pc}
   d7d38:	00030244 	.word	0x00030244

000d7d3c <spark_sync_time_last>:
DYNALIB_FN(13, system_cloud, spark_sync_time_last, system_tick_t(time32_t*, time_t*))
   d7d3c:	b508      	push	{r3, lr}
   d7d3e:	4b02      	ldr	r3, [pc, #8]	; (d7d48 <spark_sync_time_last+0xc>)
   d7d40:	681b      	ldr	r3, [r3, #0]
   d7d42:	6b5b      	ldr	r3, [r3, #52]	; 0x34
   d7d44:	9301      	str	r3, [sp, #4]
   d7d46:	bd08      	pop	{r3, pc}
   d7d48:	00030244 	.word	0x00030244

000d7d4c <spark_set_connection_property>:
DYNALIB_FN(14, system_cloud, spark_set_connection_property, int(unsigned, unsigned, const void*, void*))
   d7d4c:	b508      	push	{r3, lr}
   d7d4e:	4b02      	ldr	r3, [pc, #8]	; (d7d58 <spark_set_connection_property+0xc>)
   d7d50:	681b      	ldr	r3, [r3, #0]
   d7d52:	6b9b      	ldr	r3, [r3, #56]	; 0x38
   d7d54:	9301      	str	r3, [sp, #4]
   d7d56:	bd08      	pop	{r3, pc}
   d7d58:	00030244 	.word	0x00030244

000d7d5c <spark_set_random_seed_from_cloud_handler>:
DYNALIB_FN(15, system_cloud, spark_set_random_seed_from_cloud_handler, int(void (*handler)(unsigned int), void*))
   d7d5c:	b508      	push	{r3, lr}
   d7d5e:	4b02      	ldr	r3, [pc, #8]	; (d7d68 <spark_set_random_seed_from_cloud_handler+0xc>)
   d7d60:	681b      	ldr	r3, [r3, #0]
   d7d62:	6bdb      	ldr	r3, [r3, #60]	; 0x3c
   d7d64:	9301      	str	r3, [sp, #4]
   d7d66:	bd08      	pop	{r3, pc}
   d7d68:	00030244 	.word	0x00030244

000d7d6c <spark_cloud_disconnect>:
DYNALIB_FN(16, system_cloud, spark_publish_vitals, int(system_tick_t, void*))
DYNALIB_FN(17, system_cloud, spark_cloud_disconnect, int(const spark_cloud_disconnect_options*, void*))
   d7d6c:	b508      	push	{r3, lr}
   d7d6e:	4b02      	ldr	r3, [pc, #8]	; (d7d78 <spark_cloud_disconnect+0xc>)
   d7d70:	681b      	ldr	r3, [r3, #0]
   d7d72:	6c5b      	ldr	r3, [r3, #68]	; 0x44
   d7d74:	9301      	str	r3, [sp, #4]
   d7d76:	bd08      	pop	{r3, pc}
   d7d78:	00030244 	.word	0x00030244

000d7d7c <network_connect>:
#endif

DYNALIB_BEGIN(system_net)

DYNALIB_FN(0, system_net, network_config, const void*(network_handle_t, uint32_t, void*))
DYNALIB_FN(1, system_net, network_connect, void(network_handle_t, uint32_t, uint32_t, void*))
   d7d7c:	b508      	push	{r3, lr}
   d7d7e:	4b02      	ldr	r3, [pc, #8]	; (d7d88 <network_connect+0xc>)
   d7d80:	681b      	ldr	r3, [r3, #0]
   d7d82:	685b      	ldr	r3, [r3, #4]
   d7d84:	9301      	str	r3, [sp, #4]
   d7d86:	bd08      	pop	{r3, pc}
   d7d88:	00030240 	.word	0x00030240

000d7d8c <network_connecting>:
DYNALIB_FN(2, system_net, network_connecting, bool(network_handle_t, uint32_t, void*))
   d7d8c:	b508      	push	{r3, lr}
   d7d8e:	4b02      	ldr	r3, [pc, #8]	; (d7d98 <network_connecting+0xc>)
   d7d90:	681b      	ldr	r3, [r3, #0]
   d7d92:	689b      	ldr	r3, [r3, #8]
   d7d94:	9301      	str	r3, [sp, #4]
   d7d96:	bd08      	pop	{r3, pc}
   d7d98:	00030240 	.word	0x00030240

000d7d9c <network_disconnect>:
DYNALIB_FN(3, system_net, network_disconnect, void(network_handle_t, uint32_t, void*))
   d7d9c:	b508      	push	{r3, lr}
   d7d9e:	4b02      	ldr	r3, [pc, #8]	; (d7da8 <network_disconnect+0xc>)
   d7da0:	681b      	ldr	r3, [r3, #0]
   d7da2:	68db      	ldr	r3, [r3, #12]
   d7da4:	9301      	str	r3, [sp, #4]
   d7da6:	bd08      	pop	{r3, pc}
   d7da8:	00030240 	.word	0x00030240

000d7dac <network_ready>:
DYNALIB_FN(4, system_net, network_ready, bool(network_handle_t, uint32_t, void*))
   d7dac:	b508      	push	{r3, lr}
   d7dae:	4b02      	ldr	r3, [pc, #8]	; (d7db8 <network_ready+0xc>)
   d7db0:	681b      	ldr	r3, [r3, #0]
   d7db2:	691b      	ldr	r3, [r3, #16]
   d7db4:	9301      	str	r3, [sp, #4]
   d7db6:	bd08      	pop	{r3, pc}
   d7db8:	00030240 	.word	0x00030240

000d7dbc <network_on>:
DYNALIB_FN(5, system_net, network_on, void(network_handle_t, uint32_t, uint32_t, void*))
   d7dbc:	b508      	push	{r3, lr}
   d7dbe:	4b02      	ldr	r3, [pc, #8]	; (d7dc8 <network_on+0xc>)
   d7dc0:	681b      	ldr	r3, [r3, #0]
   d7dc2:	695b      	ldr	r3, [r3, #20]
   d7dc4:	9301      	str	r3, [sp, #4]
   d7dc6:	bd08      	pop	{r3, pc}
   d7dc8:	00030240 	.word	0x00030240

000d7dcc <network_off>:
DYNALIB_FN(6, system_net, network_off, void(network_handle_t, uint32_t, uint32_t, void*))
   d7dcc:	b508      	push	{r3, lr}
   d7dce:	4b02      	ldr	r3, [pc, #8]	; (d7dd8 <network_off+0xc>)
   d7dd0:	681b      	ldr	r3, [r3, #0]
   d7dd2:	699b      	ldr	r3, [r3, #24]
   d7dd4:	9301      	str	r3, [sp, #4]
   d7dd6:	bd08      	pop	{r3, pc}
   d7dd8:	00030240 	.word	0x00030240

000d7ddc <network_listen>:
DYNALIB_FN(7, system_net, network_listen, void(network_handle_t, uint32_t, void*))
   d7ddc:	b508      	push	{r3, lr}
   d7dde:	4b02      	ldr	r3, [pc, #8]	; (d7de8 <network_listen+0xc>)
   d7de0:	681b      	ldr	r3, [r3, #0]
   d7de2:	69db      	ldr	r3, [r3, #28]
   d7de4:	9301      	str	r3, [sp, #4]
   d7de6:	bd08      	pop	{r3, pc}
   d7de8:	00030240 	.word	0x00030240

000d7dec <network_listening>:
DYNALIB_FN(8, system_net, network_listening, bool(network_handle_t, uint32_t, void*))
   d7dec:	b508      	push	{r3, lr}
   d7dee:	4b02      	ldr	r3, [pc, #8]	; (d7df8 <network_listening+0xc>)
   d7df0:	681b      	ldr	r3, [r3, #0]
   d7df2:	6a1b      	ldr	r3, [r3, #32]
   d7df4:	9301      	str	r3, [sp, #4]
   d7df6:	bd08      	pop	{r3, pc}
   d7df8:	00030240 	.word	0x00030240

000d7dfc <network_set_listen_timeout>:
DYNALIB_FN(9, system_net, network_has_credentials, bool(network_handle_t, uint32_t, void*))
DYNALIB_FN(10, system_net, network_set_credentials, int(network_handle_t, uint32_t, NetworkCredentials*, void*))
DYNALIB_FN(11, system_net, network_clear_credentials, bool(network_handle_t, uint32_t, NetworkCredentials*, void*))
DYNALIB_FN(12, system_net, network_set_listen_timeout, void(network_handle_t, uint16_t, void*))
   d7dfc:	b508      	push	{r3, lr}
   d7dfe:	4b02      	ldr	r3, [pc, #8]	; (d7e08 <network_set_listen_timeout+0xc>)
   d7e00:	681b      	ldr	r3, [r3, #0]
   d7e02:	6b1b      	ldr	r3, [r3, #48]	; 0x30
   d7e04:	9301      	str	r3, [sp, #4]
   d7e06:	bd08      	pop	{r3, pc}
   d7e08:	00030240 	.word	0x00030240

000d7e0c <network_get_listen_timeout>:
DYNALIB_FN(13, system_net, network_get_listen_timeout, uint16_t(network_handle_t, uint32_t, void*))
   d7e0c:	b508      	push	{r3, lr}
   d7e0e:	4b02      	ldr	r3, [pc, #8]	; (d7e18 <network_get_listen_timeout+0xc>)
   d7e10:	681b      	ldr	r3, [r3, #0]
   d7e12:	6b5b      	ldr	r3, [r3, #52]	; 0x34
   d7e14:	9301      	str	r3, [sp, #4]
   d7e16:	bd08      	pop	{r3, pc}
   d7e18:	00030240 	.word	0x00030240

000d7e1c <network_is_on>:
DYNALIB_FN(14, system_net, network_set_hostname, int(network_handle_t, uint32_t, const char*, void*))
DYNALIB_FN(15, system_net, network_get_hostname, int(network_handle_t, uint32_t, char*, size_t, void*))
DYNALIB_FN(16, system_net, network_is_on, bool(network_handle_t, void*))
   d7e1c:	b508      	push	{r3, lr}
   d7e1e:	4b02      	ldr	r3, [pc, #8]	; (d7e28 <network_is_on+0xc>)
   d7e20:	681b      	ldr	r3, [r3, #0]
   d7e22:	6c1b      	ldr	r3, [r3, #64]	; 0x40
   d7e24:	9301      	str	r3, [sp, #4]
   d7e26:	bd08      	pop	{r3, pc}
   d7e28:	00030240 	.word	0x00030240

000d7e2c <network_is_off>:
DYNALIB_FN(17, system_net, network_is_off, bool(network_handle_t, void*))
   d7e2c:	b508      	push	{r3, lr}
   d7e2e:	4b02      	ldr	r3, [pc, #8]	; (d7e38 <network_is_off+0xc>)
   d7e30:	681b      	ldr	r3, [r3, #0]
   d7e32:	6c5b      	ldr	r3, [r3, #68]	; 0x44
   d7e34:	9301      	str	r3, [sp, #4]
   d7e36:	bd08      	pop	{r3, pc}
   d7e38:	00030240 	.word	0x00030240

000d7e3c <malloc>:
#include "hal_platform.h"
#endif // defined(DYNALIB_EXPORT) || (defined(DYNALIB_IMPORT) && !defined(RT_DYNALIB_NO_DEPENDENCY_BREAKING_IMPORTS))

DYNALIB_BEGIN(rt)

DYNALIB_FN(0, rt, malloc, void*(size_t))
   d7e3c:	b508      	push	{r3, lr}
   d7e3e:	4b02      	ldr	r3, [pc, #8]	; (d7e48 <malloc+0xc>)
   d7e40:	681b      	ldr	r3, [r3, #0]
   d7e42:	681b      	ldr	r3, [r3, #0]
   d7e44:	9301      	str	r3, [sp, #4]
   d7e46:	bd08      	pop	{r3, pc}
   d7e48:	0003021c 	.word	0x0003021c

000d7e4c <free>:
DYNALIB_FN(1, rt, free, void(void*))
   d7e4c:	b508      	push	{r3, lr}
   d7e4e:	4b02      	ldr	r3, [pc, #8]	; (d7e58 <free+0xc>)
   d7e50:	681b      	ldr	r3, [r3, #0]
   d7e52:	685b      	ldr	r3, [r3, #4]
   d7e54:	9301      	str	r3, [sp, #4]
   d7e56:	bd08      	pop	{r3, pc}
   d7e58:	0003021c 	.word	0x0003021c

000d7e5c <realloc>:
DYNALIB_FN(2, rt, realloc, void*(void*, size_t))
   d7e5c:	b508      	push	{r3, lr}
   d7e5e:	4b02      	ldr	r3, [pc, #8]	; (d7e68 <realloc+0xc>)
   d7e60:	681b      	ldr	r3, [r3, #0]
   d7e62:	689b      	ldr	r3, [r3, #8]
   d7e64:	9301      	str	r3, [sp, #4]
   d7e66:	bd08      	pop	{r3, pc}
   d7e68:	0003021c 	.word	0x0003021c

000d7e6c <siprintf>:
DYNALIB_FN(3, rt, sprintf, int(char*, const char*, ...))
DYNALIB_FN(4, rt, siprintf, int(char*, const char*, ...))
   d7e6c:	b508      	push	{r3, lr}
   d7e6e:	4b02      	ldr	r3, [pc, #8]	; (d7e78 <siprintf+0xc>)
   d7e70:	681b      	ldr	r3, [r3, #0]
   d7e72:	691b      	ldr	r3, [r3, #16]
   d7e74:	9301      	str	r3, [sp, #4]
   d7e76:	bd08      	pop	{r3, pc}
   d7e78:	0003021c 	.word	0x0003021c

000d7e7c <snprintf>:
DYNALIB_FN(5, rt, sscanf, int(const char*, const char*, ...))
DYNALIB_FN(6, rt, siscanf, int(const char*, const char*, ...))
DYNALIB_FN(7, rt, snprintf, int(char*, size_t, const char*, ...))
   d7e7c:	b508      	push	{r3, lr}
   d7e7e:	4b02      	ldr	r3, [pc, #8]	; (d7e88 <snprintf+0xc>)
   d7e80:	681b      	ldr	r3, [r3, #0]
   d7e82:	69db      	ldr	r3, [r3, #28]
   d7e84:	9301      	str	r3, [sp, #4]
   d7e86:	bd08      	pop	{r3, pc}
   d7e88:	0003021c 	.word	0x0003021c

000d7e8c <vsnprintf>:
DYNALIB_FN(8, rt, sniprintf, int(char*, size_t, const char*, ...))
DYNALIB_FN(9, rt, vsnprintf, int(char*, size_t, const char*, va_list))
   d7e8c:	b508      	push	{r3, lr}
   d7e8e:	4b02      	ldr	r3, [pc, #8]	; (d7e98 <vsnprintf+0xc>)
   d7e90:	681b      	ldr	r3, [r3, #0]
   d7e92:	6a5b      	ldr	r3, [r3, #36]	; 0x24
   d7e94:	9301      	str	r3, [sp, #4]
   d7e96:	bd08      	pop	{r3, pc}
   d7e98:	0003021c 	.word	0x0003021c

000d7e9c <abort>:
DYNALIB_FN(10, rt, vsniprintf, int(char*, size_t, const char*, va_list))
DYNALIB_FN(11, rt, abort, void(void))
   d7e9c:	b508      	push	{r3, lr}
   d7e9e:	4b02      	ldr	r3, [pc, #8]	; (d7ea8 <abort+0xc>)
   d7ea0:	681b      	ldr	r3, [r3, #0]
   d7ea2:	6adb      	ldr	r3, [r3, #44]	; 0x2c
   d7ea4:	9301      	str	r3, [sp, #4]
   d7ea6:	bd08      	pop	{r3, pc}
   d7ea8:	0003021c 	.word	0x0003021c

000d7eac <_malloc_r>:
DYNALIB_FN(12, rt, _malloc_r, void*(struct _reent*, size_t))
   d7eac:	b508      	push	{r3, lr}
   d7eae:	4b02      	ldr	r3, [pc, #8]	; (d7eb8 <_malloc_r+0xc>)
   d7eb0:	681b      	ldr	r3, [r3, #0]
   d7eb2:	6b1b      	ldr	r3, [r3, #48]	; 0x30
   d7eb4:	9301      	str	r3, [sp, #4]
   d7eb6:	bd08      	pop	{r3, pc}
   d7eb8:	0003021c 	.word	0x0003021c

000d7ebc <newlib_impure_ptr_callback>:
// RT is currently being imported into system-part1 from system-part2,
// which is the reverse direction.

#if defined(DYNALIB_EXPORT) || (defined(DYNALIB_IMPORT) && !defined(RT_DYNALIB_NO_DEPENDENCY_BREAKING_IMPORTS))
DYNALIB_FN(16, rt, __assert_func, void(const char*, int, const char*, const char*))
DYNALIB_FN(17, rt, newlib_impure_ptr_callback, void(void (*)(struct _reent*, size_t, uint32_t, void*), void*))
   d7ebc:	b508      	push	{r3, lr}
   d7ebe:	4b02      	ldr	r3, [pc, #8]	; (d7ec8 <newlib_impure_ptr_callback+0xc>)
   d7ec0:	681b      	ldr	r3, [r3, #0]
   d7ec2:	6c5b      	ldr	r3, [r3, #68]	; 0x44
   d7ec4:	9301      	str	r3, [sp, #4]
   d7ec6:	bd08      	pop	{r3, pc}
   d7ec8:	0003021c 	.word	0x0003021c

000d7ecc <strftime>:
// Electron has some of these exported from a different system part through services2 dynalib
// Photon/P1 do not have enough space in system-part2
#if HAL_PLATFORM_EXPORT_STDLIB_RT_DYNALIB
DYNALIB_FN(18, rt, strftime, size_t(char* __restrict, size_t, const char* __restrict, const struct tm* __restrict))
   d7ecc:	b508      	push	{r3, lr}
   d7ece:	4b02      	ldr	r3, [pc, #8]	; (d7ed8 <strftime+0xc>)
   d7ed0:	681b      	ldr	r3, [r3, #0]
   d7ed2:	6c9b      	ldr	r3, [r3, #72]	; 0x48
   d7ed4:	9301      	str	r3, [sp, #4]
   d7ed6:	bd08      	pop	{r3, pc}
   d7ed8:	0003021c 	.word	0x0003021c

000d7edc <localtime_r>:
DYNALIB_FN(19, rt, localtime_r, struct tm*(const time_t* __restrict, struct tm* __restrict))
   d7edc:	b508      	push	{r3, lr}
   d7ede:	4b02      	ldr	r3, [pc, #8]	; (d7ee8 <localtime_r+0xc>)
   d7ee0:	681b      	ldr	r3, [r3, #0]
   d7ee2:	6cdb      	ldr	r3, [r3, #76]	; 0x4c
   d7ee4:	9301      	str	r3, [sp, #4]
   d7ee6:	bd08      	pop	{r3, pc}
   d7ee8:	0003021c 	.word	0x0003021c

000d7eec <gmtime_r>:
DYNALIB_FN(20, rt, gmtime_r, struct tm*(const time_t* __restrict, struct tm* __restrict))
   d7eec:	b508      	push	{r3, lr}
   d7eee:	4b02      	ldr	r3, [pc, #8]	; (d7ef8 <gmtime_r+0xc>)
   d7ef0:	681b      	ldr	r3, [r3, #0]
   d7ef2:	6d1b      	ldr	r3, [r3, #80]	; 0x50
   d7ef4:	9301      	str	r3, [sp, #4]
   d7ef6:	bd08      	pop	{r3, pc}
   d7ef8:	0003021c 	.word	0x0003021c

000d7efc <mktime>:
DYNALIB_FN(21, rt, mktime, time_t(struct tm*))
   d7efc:	b508      	push	{r3, lr}
   d7efe:	4b02      	ldr	r3, [pc, #8]	; (d7f08 <mktime+0xc>)
   d7f00:	681b      	ldr	r3, [r3, #0]
   d7f02:	6d5b      	ldr	r3, [r3, #84]	; 0x54
   d7f04:	9301      	str	r3, [sp, #4]
   d7f06:	bd08      	pop	{r3, pc}
   d7f08:	0003021c 	.word	0x0003021c

000d7f0c <_Z3mapiiiii>:
    hal_adc_set_sample_time(ADC_SampleTime);
}

int map(int value, int fromStart, int fromEnd, int toStart, int toEnd)
{
    if (fromEnd == fromStart) {
   d7f0c:	428a      	cmp	r2, r1
{
   d7f0e:	b510      	push	{r4, lr}
    if (fromEnd == fromStart) {
   d7f10:	d007      	beq.n	d7f22 <_Z3mapiiiii+0x16>
        return value;
    }
    return (value - fromStart) * (toEnd - toStart) / (fromEnd - fromStart) + toStart;
   d7f12:	9c02      	ldr	r4, [sp, #8]
   d7f14:	1a40      	subs	r0, r0, r1
   d7f16:	1ae4      	subs	r4, r4, r3
   d7f18:	4360      	muls	r0, r4
   d7f1a:	1a52      	subs	r2, r2, r1
   d7f1c:	fb90 f0f2 	sdiv	r0, r0, r2
   d7f20:	4418      	add	r0, r3
}
   d7f22:	bd10      	pop	{r4, pc}

000d7f24 <delay>:
    return (value - fromStart) * (toEnd - toStart) / (fromEnd - fromStart) + toStart;
}

void delay(unsigned long ms)
{
    system_delay_ms(ms, false);
   d7f24:	2100      	movs	r1, #0
   d7f26:	f7ff be4f 	b.w	d7bc8 <system_delay_ms>

000d7f2a <_ZN8particle6detail21futureCallbackWrapperEPv>:
 * License along with this library; if not, see <http://www.gnu.org/licenses/>.
 */

#include "spark_wiring_async.h"

void particle::detail::futureCallbackWrapper(void* data) {
   d7f2a:	b510      	push	{r4, lr}
      if (_M_empty())
   d7f2c:	6883      	ldr	r3, [r0, #8]
   d7f2e:	4604      	mov	r4, r0
   d7f30:	b90b      	cbnz	r3, d7f36 <_ZN8particle6detail21futureCallbackWrapperEPv+0xc>
	__throw_bad_function_call();
   d7f32:	f003 f8d8 	bl	db0e6 <_ZSt25__throw_bad_function_callv>
      return _M_invoker(_M_functor, std::forward<_ArgTypes>(__args)...);
   d7f36:	68c3      	ldr	r3, [r0, #12]
   d7f38:	4798      	blx	r3
      if (_M_manager)
   d7f3a:	68a3      	ldr	r3, [r4, #8]
   d7f3c:	b11b      	cbz	r3, d7f46 <_ZN8particle6detail21futureCallbackWrapperEPv+0x1c>
	_M_manager(_M_functor, _M_functor, __destroy_functor);
   d7f3e:	2203      	movs	r2, #3
   d7f40:	4621      	mov	r1, r4
   d7f42:	4620      	mov	r0, r4
   d7f44:	4798      	blx	r3
    auto callbackPtr = static_cast<const std::function<void()>*>(data);
    (*callbackPtr)();
    delete callbackPtr;
   d7f46:	4620      	mov	r0, r4
   d7f48:	2110      	movs	r1, #16
}
   d7f4a:	e8bd 4010 	ldmia.w	sp!, {r4, lr}
    delete callbackPtr;
   d7f4e:	f003 b8c4 	b.w	db0da <_ZdlPvj>

000d7f52 <_ZN14RecursiveMutexD1Ev>:
    RecursiveMutex() : handle_(nullptr)
    {
        os_mutex_recursive_create(&handle_);
    }

    ~RecursiveMutex() {
   d7f52:	b510      	push	{r4, lr}
   d7f54:	4604      	mov	r4, r0
        dispose();
    }

    void dispose()
    {
        if (handle_) {
   d7f56:	6800      	ldr	r0, [r0, #0]
   d7f58:	b108      	cbz	r0, d7f5e <_ZN14RecursiveMutexD1Ev+0xc>
            os_mutex_recursive_destroy(handle_);
   d7f5a:	f7ff fc2b 	bl	d77b4 <os_mutex_recursive_destroy>
    }
   d7f5e:	4620      	mov	r0, r4
   d7f60:	bd10      	pop	{r4, pc}

000d7f62 <_ZNSt14__shared_countILN9__gnu_cxx12_Lock_policyE0EEC1ERKS2_>:
      : _M_pi(__r._M_pi)
   d7f62:	680b      	ldr	r3, [r1, #0]
   d7f64:	6003      	str	r3, [r0, #0]
	if (_M_pi != 0)
   d7f66:	b113      	cbz	r3, d7f6e <_ZNSt14__shared_countILN9__gnu_cxx12_Lock_policyE0EEC1ERKS2_+0xc>
    { ++_M_use_count; }
   d7f68:	685a      	ldr	r2, [r3, #4]
   d7f6a:	3201      	adds	r2, #1
   d7f6c:	605a      	str	r2, [r3, #4]
      }
   d7f6e:	4770      	bx	lr

000d7f70 <_GLOBAL__sub_I__ZN8particle3ble13WiringBleLock6mutex_E>:
BleCharacteristic BleLocalDevice::addCharacteristic(const String& desc, EnumFlags<BleCharacteristicProperty> properties, BleOnDataReceivedCallback callback, void* context) {
    WiringBleLock lk;
    return addCharacteristic(desc.c_str(), properties, callback, context);
}

} /* namespace particle */
   d7f70:	b510      	push	{r4, lr}
    RecursiveMutex() : handle_(nullptr)
   d7f72:	4c06      	ldr	r4, [pc, #24]	; (d7f8c <_GLOBAL__sub_I__ZN8particle3ble13WiringBleLock6mutex_E+0x1c>)
   d7f74:	2300      	movs	r3, #0
        os_mutex_recursive_create(&handle_);
   d7f76:	4620      	mov	r0, r4
    RecursiveMutex() : handle_(nullptr)
   d7f78:	6023      	str	r3, [r4, #0]
        os_mutex_recursive_create(&handle_);
   d7f7a:	f7ff fc13 	bl	d77a4 <os_mutex_recursive_create>
RecursiveMutex WiringBleLock::mutex_;
   d7f7e:	4620      	mov	r0, r4
   d7f80:	4a03      	ldr	r2, [pc, #12]	; (d7f90 <_GLOBAL__sub_I__ZN8particle3ble13WiringBleLock6mutex_E+0x20>)
   d7f82:	4904      	ldr	r1, [pc, #16]	; (d7f94 <_GLOBAL__sub_I__ZN8particle3ble13WiringBleLock6mutex_E+0x24>)
} /* namespace particle */
   d7f84:	e8bd 4010 	ldmia.w	sp!, {r4, lr}
RecursiveMutex WiringBleLock::mutex_;
   d7f88:	f003 b8a2 	b.w	db0d0 <__aeabi_atexit>
   d7f8c:	2003e598 	.word	0x2003e598
   d7f90:	2003e3c0 	.word	0x2003e3c0
   d7f94:	000d7f53 	.word	0x000d7f53

000d7f98 <_ZN5spark13CellularClass5readyEv>:
        return network_listening(*this, 0, NULL);
    }

    bool ready()
    {
        return network_ready(*this, 0,  NULL);
   d7f98:	2200      	movs	r2, #0
   d7f9a:	6840      	ldr	r0, [r0, #4]
   d7f9c:	4611      	mov	r1, r2
   d7f9e:	f7ff bf05 	b.w	d7dac <network_ready>

000d7fa2 <_ZN5spark13CellularClass9listeningEv>:
        return network_listening(*this, 0, NULL);
   d7fa2:	2200      	movs	r2, #0
   d7fa4:	6840      	ldr	r0, [r0, #4]
   d7fa6:	4611      	mov	r1, r2
   d7fa8:	f7ff bf20 	b.w	d7dec <network_listening>

000d7fac <_ZN5spark13CellularClass16getListenTimeoutEv>:
        return network_get_listen_timeout(*this, 0, NULL);
   d7fac:	2200      	movs	r2, #0
   d7fae:	6840      	ldr	r0, [r0, #4]
   d7fb0:	4611      	mov	r1, r2
   d7fb2:	f7ff bf2b 	b.w	d7e0c <network_get_listen_timeout>

000d7fb6 <_ZN5spark13CellularClass16setListenTimeoutEt>:
        network_set_listen_timeout(*this, timeout, NULL);
   d7fb6:	6840      	ldr	r0, [r0, #4]
   d7fb8:	2200      	movs	r2, #0
   d7fba:	f7ff bf1f 	b.w	d7dfc <network_set_listen_timeout>

000d7fbe <_ZN5spark13CellularClass6listenEb>:
        network_listen(*this, begin ? 0 : 1, NULL);
   d7fbe:	6840      	ldr	r0, [r0, #4]
   d7fc0:	2200      	movs	r2, #0
   d7fc2:	f081 0101 	eor.w	r1, r1, #1
   d7fc6:	f7ff bf09 	b.w	d7ddc <network_listen>

000d7fca <_ZN5spark13CellularClass2onEv>:
        network_on(*this, 0, 0, NULL);
   d7fca:	2300      	movs	r3, #0
   d7fcc:	6840      	ldr	r0, [r0, #4]
   d7fce:	461a      	mov	r2, r3
   d7fd0:	4619      	mov	r1, r3
   d7fd2:	f7ff bef3 	b.w	d7dbc <network_on>

000d7fd6 <_ZN5spark13CellularClass10connectingEv>:
        return network_connecting(*this, 0, NULL);
   d7fd6:	2200      	movs	r2, #0
   d7fd8:	6840      	ldr	r0, [r0, #4]
   d7fda:	4611      	mov	r1, r2
   d7fdc:	f7ff bed6 	b.w	d7d8c <network_connecting>

000d7fe0 <_ZN5spark13CellularClass10disconnectEv>:
        network_disconnect(*this, NETWORK_DISCONNECT_REASON_USER, NULL);
   d7fe0:	6840      	ldr	r0, [r0, #4]
   d7fe2:	2200      	movs	r2, #0
   d7fe4:	2102      	movs	r1, #2
   d7fe6:	f7ff bed9 	b.w	d7d9c <network_disconnect>

000d7fea <_ZN5spark13CellularClass7connectEj>:
        network_connect(*this, flags, 0, NULL);
   d7fea:	2300      	movs	r3, #0
   d7fec:	6840      	ldr	r0, [r0, #4]
   d7fee:	461a      	mov	r2, r3
   d7ff0:	f7ff bec4 	b.w	d7d7c <network_connect>

000d7ff4 <_ZN5spark13CellularClass4RSSIEv>:

// #include "cellular_internal.h"

namespace spark {

    CellularSignal CellularClass::RSSI() {
   d7ff4:	b5f0      	push	{r4, r5, r6, r7, lr}
    int qual __attribute__((deprecated("Use getQualityValue() instead"))) = 0;

// TODO: remove once rssi/qual are removed
#pragma GCC diagnostic push
#pragma GCC diagnostic ignored "-Wdeprecated-declarations"
    CellularSignal() {}
   d7ff6:	4b1b      	ldr	r3, [pc, #108]	; (d8064 <_ZN5spark13CellularClass4RSSIEv+0x70>)
   d7ff8:	6003      	str	r3, [r0, #0]
   d7ffa:	2500      	movs	r5, #0
   d7ffc:	460f      	mov	r7, r1
   d7ffe:	3328      	adds	r3, #40	; 0x28
   d8000:	2618      	movs	r6, #24
   d8002:	e9c0 5502 	strd	r5, r5, [r0, #8]
   d8006:	b089      	sub	sp, #36	; 0x24
   d8008:	6043      	str	r3, [r0, #4]
   d800a:	4632      	mov	r2, r6
   d800c:	4629      	mov	r1, r5
   d800e:	4604      	mov	r4, r0
   d8010:	3010      	adds	r0, #16
   d8012:	f003 fe33 	bl	dbc7c <memset>
// TODO: remove once rssi/qual are removed
#pragma GCC diagnostic push
#pragma GCC diagnostic ignored "-Wdeprecated-declarations"
        CellularSignal sig;
        if (!network_ready(*this, 0, NULL)) {
   d8016:	6878      	ldr	r0, [r7, #4]
   d8018:	462a      	mov	r2, r5
   d801a:	4629      	mov	r1, r5
   d801c:	f7ff fec6 	bl	d7dac <network_ready>
   d8020:	b918      	cbnz	r0, d802a <_ZN5spark13CellularClass4RSSIEv+0x36>
            sig.rssi = 0;
   d8022:	60a0      	str	r0, [r4, #8]
            sig.rssi = 2;
        }
        sig.fromHalCellularSignal(sigext);
        return sig;
#pragma GCC diagnostic pop
    }
   d8024:	4620      	mov	r0, r4
   d8026:	b009      	add	sp, #36	; 0x24
   d8028:	bdf0      	pop	{r4, r5, r6, r7, pc}
        cellular_signal_t sigext = {0};
   d802a:	4629      	mov	r1, r5
   d802c:	4632      	mov	r2, r6
   d802e:	a802      	add	r0, sp, #8
        CellularSignalHal sig_hal = {0};
   d8030:	e9cd 5500 	strd	r5, r5, [sp]
        cellular_signal_t sigext = {0};
   d8034:	f003 fe22 	bl	dbc7c <memset>
        if (cellular_signal(&sig_hal, &sigext) != 0) {
   d8038:	a902      	add	r1, sp, #8
   d803a:	4668      	mov	r0, sp
        sigext.size = sizeof(sigext);
   d803c:	f8ad 6008 	strh.w	r6, [sp, #8]
        if (cellular_signal(&sig_hal, &sigext) != 0) {
   d8040:	f7ff fb58 	bl	d76f4 <cellular_signal>
   d8044:	b110      	cbz	r0, d804c <_ZN5spark13CellularClass4RSSIEv+0x58>
            sig.rssi = 1;
   d8046:	2301      	movs	r3, #1
   d8048:	60a3      	str	r3, [r4, #8]
            return sig;
   d804a:	e7eb      	b.n	d8024 <_ZN5spark13CellularClass4RSSIEv+0x30>
        sig.rssi = sig_hal.rssi;
   d804c:	9b00      	ldr	r3, [sp, #0]
        sig.qual = sig_hal.qual;
   d804e:	9a01      	ldr	r2, [sp, #4]
        sig.rssi = sig_hal.rssi;
   d8050:	60a3      	str	r3, [r4, #8]
        sig.qual = sig_hal.qual;
   d8052:	60e2      	str	r2, [r4, #12]
        if (sig.rssi == 0) {
   d8054:	b90b      	cbnz	r3, d805a <_ZN5spark13CellularClass4RSSIEv+0x66>
            sig.rssi = 2;
   d8056:	2302      	movs	r3, #2
   d8058:	60a3      	str	r3, [r4, #8]
        sig.fromHalCellularSignal(sigext);
   d805a:	a902      	add	r1, sp, #8
   d805c:	4620      	mov	r0, r4
   d805e:	f000 f8ae 	bl	d81be <_ZN14CellularSignal21fromHalCellularSignalERK17cellular_signal_t>
        return sig;
   d8062:	e7df      	b.n	d8024 <_ZN5spark13CellularClass4RSSIEv+0x30>
   d8064:	000de734 	.word	0x000de734

000d8068 <_GLOBAL__sub_I__ZN5spark13CellularClass4RSSIEv>:
    int tx_total;
    int rx_total;

    CellularDataHal()
    {
        memset(this, 0, sizeof(*this));
   d8068:	4b08      	ldr	r3, [pc, #32]	; (d808c <_GLOBAL__sub_I__ZN5spark13CellularClass4RSSIEv+0x24>)
        return (band_get.ok = true);
    }

    CellularClass Cellular;
    // NetworkClass& Network = Cellular;
}
   d806a:	b510      	push	{r4, lr}
   d806c:	2428      	movs	r4, #40	; 0x28
   d806e:	4622      	mov	r2, r4
   d8070:	4618      	mov	r0, r3
   d8072:	2100      	movs	r1, #0
   d8074:	f003 fe02 	bl	dbc7c <memset>
    static NetworkClass& from(network_interface_t nif);

    virtual IPAddress resolve(const char* name);

    explicit NetworkClass(network_interface_t iface)
            : iface_(iface) {
   d8078:	4b05      	ldr	r3, [pc, #20]	; (d8090 <_GLOBAL__sub_I__ZN5spark13CellularClass4RSSIEv+0x28>)
        cid = -1;
        size = sizeof(*this);
   d807a:	8004      	strh	r4, [r0, #0]
        cid = -1;
   d807c:	f04f 32ff 	mov.w	r2, #4294967295	; 0xffffffff
   d8080:	6042      	str	r2, [r0, #4]
   d8082:	2204      	movs	r2, #4
   d8084:	605a      	str	r2, [r3, #4]
            NetworkClass(NETWORK_INTERFACE_CELLULAR) {
   d8086:	4a03      	ldr	r2, [pc, #12]	; (d8094 <_GLOBAL__sub_I__ZN5spark13CellularClass4RSSIEv+0x2c>)
   d8088:	601a      	str	r2, [r3, #0]
   d808a:	bd10      	pop	{r4, pc}
   d808c:	2003e5a4 	.word	0x2003e5a4
   d8090:	2003e59c 	.word	0x2003e59c
   d8094:	000de6f8 	.word	0x000de6f8

000d8098 <_ZN14CellularSignalD1Ev>:
    CellularSignal(const cellular_signal_t& sig);
    virtual ~CellularSignal() {};
   d8098:	4770      	bx	lr

000d809a <_ZNK14CellularSignal19getAccessTechnologyEv>:
#pragma GCC diagnostic pop

hal_net_access_tech_t CellularSignal::getAccessTechnology() const
{
    return static_cast<hal_net_access_tech_t>(sig_.rat);
}
   d809a:	7d00      	ldrb	r0, [r0, #20]
   d809c:	4770      	bx	lr

000d809e <_ZN14CellularSignalD0Ev>:
   d809e:	b510      	push	{r4, lr}
   d80a0:	2128      	movs	r1, #40	; 0x28
   d80a2:	4604      	mov	r4, r0
   d80a4:	f003 f819 	bl	db0da <_ZdlPvj>
   d80a8:	4620      	mov	r0, r4
   d80aa:	bd10      	pop	{r4, pc}

000d80ac <_ZNK14CellularSignal11getStrengthEv>:

float CellularSignal::getStrength() const
{
    if (sig_.rat != NET_ACCESS_TECHNOLOGY_NONE && sig_.strength >= 0) {
   d80ac:	7d03      	ldrb	r3, [r0, #20]
   d80ae:	b17b      	cbz	r3, d80d0 <_ZNK14CellularSignal11getStrengthEv+0x24>
   d80b0:	69c3      	ldr	r3, [r0, #28]
   d80b2:	2b00      	cmp	r3, #0
   d80b4:	db0c      	blt.n	d80d0 <_ZNK14CellularSignal11getStrengthEv+0x24>
        return (float)sig_.strength / 65535.0f * 100.0f;
   d80b6:	ee07 3a90 	vmov	s15, r3
   d80ba:	ed9f 7a07 	vldr	s14, [pc, #28]	; d80d8 <_ZNK14CellularSignal11getStrengthEv+0x2c>
   d80be:	eef8 7ae7 	vcvt.f32.s32	s15, s15
   d80c2:	ee87 0a87 	vdiv.f32	s0, s15, s14
   d80c6:	eddf 7a05 	vldr	s15, [pc, #20]	; d80dc <_ZNK14CellularSignal11getStrengthEv+0x30>
   d80ca:	ee20 0a27 	vmul.f32	s0, s0, s15
   d80ce:	4770      	bx	lr
    }

    return -1.0f;
   d80d0:	eebf 0a00 	vmov.f32	s0, #240	; 0xbf800000 -1.0
}
   d80d4:	4770      	bx	lr
   d80d6:	bf00      	nop
   d80d8:	477fff00 	.word	0x477fff00
   d80dc:	42c80000 	.word	0x42c80000

000d80e0 <_ZNK14CellularSignal16getStrengthValueEv>:

float CellularSignal::getStrengthValue() const
{
    if (sig_.rat != NET_ACCESS_TECHNOLOGY_NONE && sig_.rssi != std::numeric_limits<int32_t>::min()) {
   d80e0:	7d03      	ldrb	r3, [r0, #20]
   d80e2:	b163      	cbz	r3, d80fe <_ZNK14CellularSignal16getStrengthValueEv+0x1e>
   d80e4:	6983      	ldr	r3, [r0, #24]
   d80e6:	f1b3 4f00 	cmp.w	r3, #2147483648	; 0x80000000
   d80ea:	d008      	beq.n	d80fe <_ZNK14CellularSignal16getStrengthValueEv+0x1e>
        return (float)sig_.rssi / 100.0f;
   d80ec:	ee07 3a90 	vmov	s15, r3
   d80f0:	ed9f 7a04 	vldr	s14, [pc, #16]	; d8104 <_ZNK14CellularSignal16getStrengthValueEv+0x24>
   d80f4:	eef8 7ae7 	vcvt.f32.s32	s15, s15
   d80f8:	ee87 0a87 	vdiv.f32	s0, s15, s14
   d80fc:	4770      	bx	lr
    }

    return 0.0f;
   d80fe:	ed9f 0a02 	vldr	s0, [pc, #8]	; d8108 <_ZNK14CellularSignal16getStrengthValueEv+0x28>
}
   d8102:	4770      	bx	lr
   d8104:	42c80000 	.word	0x42c80000
   d8108:	00000000 	.word	0x00000000

000d810c <_ZNK14CellularSignal10getQualityEv>:

float CellularSignal::getQuality() const
{
    if (sig_.rat != NET_ACCESS_TECHNOLOGY_NONE && sig_.quality >= 0) {
   d810c:	7d03      	ldrb	r3, [r0, #20]
   d810e:	b17b      	cbz	r3, d8130 <_ZNK14CellularSignal10getQualityEv+0x24>
   d8110:	6a43      	ldr	r3, [r0, #36]	; 0x24
   d8112:	2b00      	cmp	r3, #0
   d8114:	db0c      	blt.n	d8130 <_ZNK14CellularSignal10getQualityEv+0x24>
        return (float)sig_.quality / 65535.0f * 100.0f;
   d8116:	ee07 3a90 	vmov	s15, r3
   d811a:	ed9f 7a07 	vldr	s14, [pc, #28]	; d8138 <_ZNK14CellularSignal10getQualityEv+0x2c>
   d811e:	eef8 7ae7 	vcvt.f32.s32	s15, s15
   d8122:	ee87 0a87 	vdiv.f32	s0, s15, s14
   d8126:	eddf 7a05 	vldr	s15, [pc, #20]	; d813c <_ZNK14CellularSignal10getQualityEv+0x30>
   d812a:	ee20 0a27 	vmul.f32	s0, s0, s15
   d812e:	4770      	bx	lr
    }

    return -1.0f;
   d8130:	eebf 0a00 	vmov.f32	s0, #240	; 0xbf800000 -1.0
}
   d8134:	4770      	bx	lr
   d8136:	bf00      	nop
   d8138:	477fff00 	.word	0x477fff00
   d813c:	42c80000 	.word	0x42c80000

000d8140 <_ZNK14CellularSignal15getQualityValueEv>:

float CellularSignal::getQualityValue() const
{
    if (sig_.rat != NET_ACCESS_TECHNOLOGY_NONE && sig_.qual != std::numeric_limits<int32_t>::min()) {
   d8140:	7d03      	ldrb	r3, [r0, #20]
   d8142:	b163      	cbz	r3, d815e <_ZNK14CellularSignal15getQualityValueEv+0x1e>
   d8144:	6a03      	ldr	r3, [r0, #32]
   d8146:	f1b3 4f00 	cmp.w	r3, #2147483648	; 0x80000000
   d814a:	d008      	beq.n	d815e <_ZNK14CellularSignal15getQualityValueEv+0x1e>
        return (float)sig_.qual / 100.0f;
   d814c:	ee07 3a90 	vmov	s15, r3
   d8150:	ed9f 7a04 	vldr	s14, [pc, #16]	; d8164 <_ZNK14CellularSignal15getQualityValueEv+0x24>
   d8154:	eef8 7ae7 	vcvt.f32.s32	s15, s15
   d8158:	ee87 0a87 	vdiv.f32	s0, s15, s14
   d815c:	4770      	bx	lr
    }

    return 0.0f;
   d815e:	ed9f 0a02 	vldr	s0, [pc, #8]	; d8168 <_ZNK14CellularSignal15getQualityValueEv+0x28>
}
   d8162:	4770      	bx	lr
   d8164:	42c80000 	.word	0x42c80000
   d8168:	00000000 	.word	0x00000000

000d816c <_ZN5Print5printIiLi0EEEjT_i.part.0.constprop.0>:
    size_t vprintf(bool newline, const char* format, va_list args) __attribute__ ((format(printf, 3, 0)));
};

template <typename T, std::enable_if_t<!std::is_base_of<Printable, T>::value && (std::is_integral<T>::value || std::is_convertible<T, unsigned long long>::value ||
    std::is_convertible<T, long long>::value), int>>
size_t Print::print(T n, int base)
   d816c:	b570      	push	{r4, r5, r6, lr}
// FIXME: avoids 'comparison of constant '0' with boolean expression is always false'
#if __GNUC__ >= 9
#pragma GCC diagnostic push
#pragma GCC diagnostic ignored "-Wbool-compare"
#endif // __GNUC__ >= 9
        if (n < 0 && base == 10) {
   d816e:	1e0c      	subs	r4, r1, #0
size_t Print::print(T n, int base)
   d8170:	4606      	mov	r6, r0
        if (n < 0 && base == 10) {
   d8172:	da0a      	bge.n	d818a <_ZN5Print5printIiLi0EEEjT_i.part.0.constprop.0+0x1e>
            t = print('-');
   d8174:	212d      	movs	r1, #45	; 0x2d
   d8176:	f002 f87c 	bl	da272 <_ZN5Print5printEc>
            val = -n;
   d817a:	4261      	negs	r1, r4
            t = print('-');
   d817c:	4605      	mov	r5, r0
            val = n;
        }
#if __GNUC__ >= 9
#pragma GCC diagnostic pop
#endif // __GNUC__ >= 9
        return printNumber(val, base) + t;
   d817e:	220a      	movs	r2, #10
   d8180:	4630      	mov	r0, r6
   d8182:	f002 f885 	bl	da290 <_ZN5Print11printNumberEmh>
    }
}
   d8186:	4428      	add	r0, r5
   d8188:	bd70      	pop	{r4, r5, r6, pc}
            val = n;
   d818a:	4621      	mov	r1, r4
        size_t t = 0;
   d818c:	2500      	movs	r5, #0
   d818e:	e7f6      	b.n	d817e <_ZN5Print5printIiLi0EEEjT_i.part.0.constprop.0+0x12>

000d8190 <_ZNK14CellularSignal7printToER5Print>:

// TODO: remove once rssi/qual are removed
#pragma GCC diagnostic push
#pragma GCC diagnostic ignored "-Wdeprecated-declarations"
size_t CellularSignal::printTo(Print& p) const
{
   d8190:	b570      	push	{r4, r5, r6, lr}
   d8192:	460c      	mov	r4, r1
   d8194:	4605      	mov	r5, r0
   d8196:	6881      	ldr	r1, [r0, #8]
   d8198:	4620      	mov	r0, r4
   d819a:	f7ff ffe7 	bl	d816c <_ZN5Print5printIiLi0EEEjT_i.part.0.constprop.0>
    size_t n = 0;
    n += p.print((*this).rssi, DEC);
    n += p.print(',');
   d819e:	212c      	movs	r1, #44	; 0x2c
   d81a0:	4606      	mov	r6, r0
   d81a2:	4620      	mov	r0, r4
   d81a4:	f002 f865 	bl	da272 <_ZN5Print5printEc>
   d81a8:	68e9      	ldr	r1, [r5, #12]
   d81aa:	4406      	add	r6, r0
size_t Print::print(T n, int base)
   d81ac:	4620      	mov	r0, r4
   d81ae:	f7ff ffdd 	bl	d816c <_ZN5Print5printIiLi0EEEjT_i.part.0.constprop.0>
    n += p.print((*this).qual, DEC);
    return n;
}
   d81b2:	4430      	add	r0, r6
   d81b4:	bd70      	pop	{r4, r5, r6, pc}

000d81b6 <_ZThn4_NK14CellularSignal7printToER5Print>:
    virtual float getStrength() const;
    virtual float getStrengthValue() const;
    virtual float getQuality() const;
    virtual float getQualityValue() const;

    virtual size_t printTo(Print& p) const;
   d81b6:	f1a0 0004 	sub.w	r0, r0, #4
   d81ba:	f7ff bfe9 	b.w	d8190 <_ZNK14CellularSignal7printToER5Print>

000d81be <_ZN14CellularSignal21fromHalCellularSignalERK17cellular_signal_t>:
{
   d81be:	b530      	push	{r4, r5, lr}
    sig_ = sig;
   d81c0:	460d      	mov	r5, r1
   d81c2:	f100 0410 	add.w	r4, r0, #16
   d81c6:	cd0f      	ldmia	r5!, {r0, r1, r2, r3}
   d81c8:	c40f      	stmia	r4!, {r0, r1, r2, r3}
   d81ca:	e895 0003 	ldmia.w	r5, {r0, r1}
   d81ce:	e884 0003 	stmia.w	r4, {r0, r1}
}
   d81d2:	2001      	movs	r0, #1
   d81d4:	bd30      	pop	{r4, r5, pc}

000d81d6 <_ZNSt15_Sp_counted_ptrIPN8particle6detail10FutureImplIbNS1_13FutureContextEEELN9__gnu_cxx12_Lock_policyE0EED1Ev>:
    class _Sp_counted_ptr final : public _Sp_counted_base<_Lp>
   d81d6:	4770      	bx	lr

000d81d8 <_ZNSt15_Sp_counted_ptrIPN8particle6detail10FutureImplIbNS1_13FutureContextEEELN9__gnu_cxx12_Lock_policyE0EE14_M_get_deleterERKSt9type_info>:
      { return nullptr; }
   d81d8:	2000      	movs	r0, #0
   d81da:	4770      	bx	lr

000d81dc <_ZNSt15_Sp_counted_ptrIPN8particle6detail10FutureImplIbNS1_13FutureContextEEELN9__gnu_cxx12_Lock_policyE0EED0Ev>:
    class _Sp_counted_ptr final : public _Sp_counted_base<_Lp>
   d81dc:	b510      	push	{r4, lr}
   d81de:	2110      	movs	r1, #16
   d81e0:	4604      	mov	r4, r0
   d81e2:	f002 ff7a 	bl	db0da <_ZdlPvj>
   d81e6:	4620      	mov	r0, r4
   d81e8:	bd10      	pop	{r4, pc}

000d81ea <_ZNSt15_Sp_counted_ptrIPN8particle6detail10FutureImplIbNS1_13FutureContextEEELN9__gnu_cxx12_Lock_policyE0EE10_M_destroyEv>:
      _M_destroy() noexcept
   d81ea:	b508      	push	{r3, lr}
      { delete this; }
   d81ec:	f7ff fff6 	bl	d81dc <_ZNSt15_Sp_counted_ptrIPN8particle6detail10FutureImplIbNS1_13FutureContextEEELN9__gnu_cxx12_Lock_policyE0EED0Ev>
   d81f0:	bd08      	pop	{r3, pc}

000d81f2 <_ZN8particle5ErrorC1EOS0_>:

inline particle::Error::Error(const Error& error) :
        Error(error.type_, error.msg_) {
}

inline particle::Error::Error(Error&& error) :
   d81f2:	b530      	push	{r4, r5, lr}
        type_(type) {
   d81f4:	2200      	movs	r2, #0
   d81f6:	f64f 749c 	movw	r4, #65436	; 0xff9c
   d81fa:	6002      	str	r2, [r0, #0]
   d81fc:	8084      	strh	r4, [r0, #4]
   d81fe:	888d      	ldrh	r5, [r1, #4]
      __b = _GLIBCXX_MOVE(__tmp);
   d8200:	808c      	strh	r4, [r1, #4]
      __a = _GLIBCXX_MOVE(__b);
   d8202:	680c      	ldr	r4, [r1, #0]
   d8204:	8085      	strh	r5, [r0, #4]
   d8206:	6004      	str	r4, [r0, #0]
      __b = _GLIBCXX_MOVE(__tmp);
   d8208:	600a      	str	r2, [r1, #0]
        Error() {
    swap(*this, error);
}
   d820a:	bd30      	pop	{r4, r5, pc}

000d820c <_ZN8particle5ErrorD1Ev>:

inline particle::Error::~Error() {
   d820c:	b510      	push	{r4, lr}
   d820e:	4604      	mov	r4, r0
    free((void*)msg_);
   d8210:	6800      	ldr	r0, [r0, #0]
   d8212:	f7ff fe1b 	bl	d7e4c <free>
}
   d8216:	4620      	mov	r0, r4
   d8218:	bd10      	pop	{r4, pc}

000d821a <_ZNSt15_Sp_counted_ptrIPN8particle6detail10FutureImplIbNS1_13FutureContextEEELN9__gnu_cxx12_Lock_policyE0EE10_M_disposeEv>:
      _M_dispose() noexcept
   d821a:	b538      	push	{r3, r4, r5, lr}
      { delete _M_ptr; }
   d821c:	68c4      	ldr	r4, [r0, #12]
   d821e:	b1f4      	cbz	r4, d825e <_ZNSt15_Sp_counted_ptrIPN8particle6detail10FutureImplIbNS1_13FutureContextEEELN9__gnu_cxx12_Lock_policyE0EE10_M_disposeEv+0x44>
   d8220:	7823      	ldrb	r3, [r4, #0]
    ~FutureImpl() {
        // Call destructor of the appropriate unnamed enum's field
        const State s = this->state();
        if (s == State::SUCCEEDED) {
            result_.~ResultT();
        } else if (s == State::FAILED) {
   d8222:	2b02      	cmp	r3, #2
   d8224:	d103      	bne.n	d822e <_ZNSt15_Sp_counted_ptrIPN8particle6detail10FutureImplIbNS1_13FutureContextEEELN9__gnu_cxx12_Lock_policyE0EE10_M_disposeEv+0x14>
            error_.~Error();
   d8226:	f104 000c 	add.w	r0, r4, #12
   d822a:	f7ff ffef 	bl	d820c <_ZN8particle5ErrorD1Ev>
      {
	memory_order __b = __m & __memory_order_mask;
	__glibcxx_assert(__b != memory_order_release);
	__glibcxx_assert(__b != memory_order_acq_rel);

	return __atomic_load_n(&_M_p, int(__m));
   d822e:	6865      	ldr	r5, [r4, #4]
        delete onSuccess_.load(std::memory_order_relaxed);
   d8230:	b135      	cbz	r5, d8240 <_ZNSt15_Sp_counted_ptrIPN8particle6detail10FutureImplIbNS1_13FutureContextEEELN9__gnu_cxx12_Lock_policyE0EE10_M_disposeEv+0x26>
    class function<_Res(_ArgTypes...)>
   d8232:	4628      	mov	r0, r5
   d8234:	f7fc f866 	bl	d4304 <_ZNSt14_Function_baseD1Ev>
   d8238:	2110      	movs	r1, #16
   d823a:	4628      	mov	r0, r5
   d823c:	f002 ff4d 	bl	db0da <_ZdlPvj>
   d8240:	68a5      	ldr	r5, [r4, #8]
        delete onError_.load(std::memory_order_relaxed);
   d8242:	b135      	cbz	r5, d8252 <_ZNSt15_Sp_counted_ptrIPN8particle6detail10FutureImplIbNS1_13FutureContextEEELN9__gnu_cxx12_Lock_policyE0EE10_M_disposeEv+0x38>
   d8244:	4628      	mov	r0, r5
   d8246:	f7fc f85d 	bl	d4304 <_ZNSt14_Function_baseD1Ev>
   d824a:	2110      	movs	r1, #16
   d824c:	4628      	mov	r0, r5
   d824e:	f002 ff44 	bl	db0da <_ZdlPvj>
   d8252:	4620      	mov	r0, r4
   d8254:	2114      	movs	r1, #20
   d8256:	e8bd 4038 	ldmia.w	sp!, {r3, r4, r5, lr}
   d825a:	f002 bf3e 	b.w	db0da <_ZdlPvj>
   d825e:	bd38      	pop	{r3, r4, r5, pc}

000d8260 <_ZN10CloudClass22call_raw_user_functionEPvPKcS0_>:
    }
    return CloudDisconnectOptions(options->flags, options->timeout, options->graceful, clearSession);
}

int CloudClass::call_raw_user_function(void* data, const char* param, void* reserved)
{
   d8260:	b510      	push	{r4, lr}
   d8262:	b088      	sub	sp, #32
   d8264:	4604      	mov	r4, r0
    user_function_int_str_t* fn = (user_function_int_str_t*)(data);
    String p(param);
   d8266:	4668      	mov	r0, sp
   d8268:	f002 f8cb 	bl	da402 <_ZN6StringC1EPKc>
    return (*fn)(p);
   d826c:	4669      	mov	r1, sp
   d826e:	a804      	add	r0, sp, #16
   d8270:	f002 f912 	bl	da498 <_ZN6StringC1ERKS_>
   d8274:	a804      	add	r0, sp, #16
   d8276:	47a0      	blx	r4
   d8278:	4604      	mov	r4, r0
   d827a:	a804      	add	r0, sp, #16
   d827c:	f002 f876 	bl	da36c <_ZN6StringD1Ev>
    String p(param);
   d8280:	4668      	mov	r0, sp
   d8282:	f002 f873 	bl	da36c <_ZN6StringD1Ev>
}
   d8286:	4620      	mov	r0, r4
   d8288:	b008      	add	sp, #32
   d828a:	bd10      	pop	{r4, pc}

000d828c <_ZN10CloudClass17register_functionEPFiPvPKcS0_ES0_S2_>:
    wiring_event_handler_t* fn = (wiring_event_handler_t*)(handler_data);
    (*fn)(event_name, data);
}

bool CloudClass::register_function(cloud_function_t fn, void* data, const char* funcKey)
{
   d828c:	b51f      	push	{r0, r1, r2, r3, r4, lr}
    const char *funcKey;
    cloud_function_t fn;
    void* data;

     cloud_function_descriptor() {
         memset(this, 0, sizeof(*this));
   d828e:	2300      	movs	r3, #0
    cloud_function_descriptor desc = {};
    desc.size = sizeof(desc);
    desc.fn = fn;
    desc.data = (void*)data;
   d8290:	e9cd 0102 	strd	r0, r1, [sp, #8]
    desc.funcKey = funcKey;
   d8294:	9201      	str	r2, [sp, #4]
         size = sizeof(*this);
   d8296:	2410      	movs	r4, #16
    return spark_function(NULL, (user_function_int_str_t*)&desc, NULL);
   d8298:	461a      	mov	r2, r3
   d829a:	4669      	mov	r1, sp
   d829c:	4618      	mov	r0, r3
         memset(this, 0, sizeof(*this));
   d829e:	f8ad 3002 	strh.w	r3, [sp, #2]
         size = sizeof(*this);
   d82a2:	f8ad 4000 	strh.w	r4, [sp]
   d82a6:	f7ff fd01 	bl	d7cac <spark_function>
}
   d82aa:	b004      	add	sp, #16
   d82ac:	bd10      	pop	{r4, pc}

000d82ae <_ZN10CloudClass10disconnectERK22CloudDisconnectOptions>:

int CloudClass::publishVitals(system_tick_t period_s_) {
    return spark_publish_vitals(period_s_, nullptr);
}

void CloudClass::disconnect(const CloudDisconnectOptions& options) {
   d82ae:	b51f      	push	{r0, r1, r2, r3, r4, lr}
    opts.size = sizeof(opts);
   d82b0:	230c      	movs	r3, #12
   d82b2:	f8ad 3004 	strh.w	r3, [sp, #4]
    opts.flags = flags_;
   d82b6:	6803      	ldr	r3, [r0, #0]
   d82b8:	f88d 3006 	strb.w	r3, [sp, #6]
    opts.graceful = graceful_;
   d82bc:	7a03      	ldrb	r3, [r0, #8]
   d82be:	f88d 3007 	strb.w	r3, [sp, #7]
    opts.timeout = timeout_;
   d82c2:	6843      	ldr	r3, [r0, #4]
   d82c4:	9302      	str	r3, [sp, #8]
    spark_cloud_disconnect_options opts = {};
   d82c6:	2100      	movs	r1, #0
    opts.clear_session = clearSession_;
   d82c8:	7a43      	ldrb	r3, [r0, #9]
    spark_cloud_disconnect_options opts = {};
   d82ca:	f8ad 100d 	strh.w	r1, [sp, #13]
    const auto opts = options.toSystemOptions();
    spark_cloud_disconnect(&opts, nullptr /* reserved */);
   d82ce:	a801      	add	r0, sp, #4
    spark_cloud_disconnect_options opts = {};
   d82d0:	f88d 100f 	strb.w	r1, [sp, #15]
    opts.clear_session = clearSession_;
   d82d4:	f88d 300c 	strb.w	r3, [sp, #12]
    spark_cloud_disconnect(&opts, nullptr /* reserved */);
   d82d8:	f7ff fd48 	bl	d7d6c <spark_cloud_disconnect>
}
   d82dc:	b005      	add	sp, #20
   d82de:	f85d fb04 	ldr.w	pc, [sp], #4

000d82e2 <_ZN10CloudClass20setDisconnectOptionsERK22CloudDisconnectOptions>:

void CloudClass::setDisconnectOptions(const CloudDisconnectOptions& options) {
   d82e2:	b51f      	push	{r0, r1, r2, r3, r4, lr}
    opts.size = sizeof(opts);
   d82e4:	220c      	movs	r2, #12
   d82e6:	f8ad 2004 	strh.w	r2, [sp, #4]
    opts.flags = flags_;
   d82ea:	6802      	ldr	r2, [r0, #0]
   d82ec:	f88d 2006 	strb.w	r2, [sp, #6]
    opts.graceful = graceful_;
   d82f0:	7a02      	ldrb	r2, [r0, #8]
   d82f2:	f88d 2007 	strb.w	r2, [sp, #7]
    opts.timeout = timeout_;
   d82f6:	6842      	ldr	r2, [r0, #4]
   d82f8:	9202      	str	r2, [sp, #8]
    spark_cloud_disconnect_options opts = {};
   d82fa:	2300      	movs	r3, #0
    opts.clear_session = clearSession_;
   d82fc:	7a42      	ldrb	r2, [r0, #9]
   d82fe:	f88d 200c 	strb.w	r2, [sp, #12]
    const auto opts = options.toSystemOptions();
    spark_set_connection_property(SPARK_CLOUD_DISCONNECT_OPTIONS, 0 /* value */, &opts, nullptr /* reserved */);
   d8302:	4619      	mov	r1, r3
   d8304:	aa01      	add	r2, sp, #4
   d8306:	2002      	movs	r0, #2
    spark_cloud_disconnect_options opts = {};
   d8308:	f8ad 300d 	strh.w	r3, [sp, #13]
   d830c:	f88d 300f 	strb.w	r3, [sp, #15]
    spark_set_connection_property(SPARK_CLOUD_DISCONNECT_OPTIONS, 0 /* value */, &opts, nullptr /* reserved */);
   d8310:	f7ff fd1c 	bl	d7d4c <spark_set_connection_property>
}
   d8314:	b005      	add	sp, #20
   d8316:	f85d fb04 	ldr.w	pc, [sp], #4

000d831a <_ZN8particle11PromiseBaseIbNS_6detail13FutureContextEE11fromDataPtrEPv>:
        // TODO: Use custom reference counting object to avoid unnecessary memory allocation
        return new detail::FutureImplPtr<ResultT, ContextT>(p_);
    }

    // Unwraps promise from an object pointer created via dataPtr() method
    static Promise<ResultT, ContextT> fromDataPtr(void* data) {
   d831a:	b573      	push	{r0, r1, r4, r5, r6, lr}
      __shared_ptr(const __shared_ptr&) noexcept = default;
   d831c:	460e      	mov	r6, r1
   d831e:	4604      	mov	r4, r0
   d8320:	f856 3b04 	ldr.w	r3, [r6], #4
   d8324:	9300      	str	r3, [sp, #0]
   d8326:	460d      	mov	r5, r1
   d8328:	a801      	add	r0, sp, #4
   d832a:	4631      	mov	r1, r6
   d832c:	f7ff fe19 	bl	d7f62 <_ZNSt14__shared_countILN9__gnu_cxx12_Lock_policyE0EEC1ERKS2_>
	_Sp_counted_base<_Lp>* __tmp = __r._M_pi;
   d8330:	9a01      	ldr	r2, [sp, #4]
	__shared_ptr(const __shared_ptr<_Yp, _Lp>& __r) noexcept
	: _M_ptr(__r._M_ptr), _M_refcount(__r._M_refcount)
	{ }

      __shared_ptr(__shared_ptr&& __r) noexcept
      : _M_ptr(__r._M_ptr), _M_refcount()
   d8332:	9b00      	ldr	r3, [sp, #0]
	_M_pi = __tmp;
   d8334:	6062      	str	r2, [r4, #4]
      : _M_ptr(__r._M_ptr), _M_refcount()
   d8336:	6023      	str	r3, [r4, #0]
      ~__shared_ptr() = default;
   d8338:	a801      	add	r0, sp, #4
	__r._M_pi = _M_pi;
   d833a:	2300      	movs	r3, #0
   d833c:	9301      	str	r3, [sp, #4]
      {
	_M_refcount._M_swap(__r._M_refcount);
	__r._M_ptr = 0;
   d833e:	9300      	str	r3, [sp, #0]
      ~__shared_ptr() = default;
   d8340:	f7fc fe6a 	bl	d5018 <_ZNSt14__shared_countILN9__gnu_cxx12_Lock_policyE0EED1Ev>
   d8344:	4630      	mov	r0, r6
   d8346:	f7fc fe67 	bl	d5018 <_ZNSt14__shared_countILN9__gnu_cxx12_Lock_policyE0EED1Ev>
        auto d = static_cast<detail::FutureImplPtr<ResultT, ContextT>*>(data);
        const Promise<ResultT, ContextT> p(*d);
        delete d;
   d834a:	4628      	mov	r0, r5
   d834c:	2108      	movs	r1, #8
   d834e:	f002 fec4 	bl	db0da <_ZdlPvj>
        return p;
    }
   d8352:	4620      	mov	r0, r4
   d8354:	b002      	add	sp, #8
   d8356:	bd70      	pop	{r4, r5, r6, pc}

000d8358 <_ZSt4swapISt9_Any_dataENSt9enable_ifIXsrSt6__and_IJSt6__not_ISt15__is_tuple_likeIT_EESt21is_move_constructibleIS5_ESt18is_move_assignableIS5_EEE5valueEvE4typeERS5_SF_>:
    swap(_Tp& __a, _Tp& __b)
   d8358:	b513      	push	{r0, r1, r4, lr}
   d835a:	460b      	mov	r3, r1
   d835c:	4602      	mov	r2, r0
      _Tp __tmp = _GLIBCXX_MOVE(__a);
   d835e:	e9d0 0100 	ldrd	r0, r1, [r0]
   d8362:	466c      	mov	r4, sp
   d8364:	e884 0003 	stmia.w	r4, {r0, r1}
      __a = _GLIBCXX_MOVE(__b);
   d8368:	e893 0003 	ldmia.w	r3, {r0, r1}
   d836c:	e882 0003 	stmia.w	r2, {r0, r1}
      __b = _GLIBCXX_MOVE(__tmp);
   d8370:	e894 0003 	ldmia.w	r4, {r0, r1}
   d8374:	e883 0003 	stmia.w	r3, {r0, r1}
    }
   d8378:	b002      	add	sp, #8
   d837a:	bd10      	pop	{r4, pc}

000d837c <_ZNKSt8functionIFvRKN8particle5ErrorEEEclES3_>:
      if (_M_empty())
   d837c:	6882      	ldr	r2, [r0, #8]
    function<_Res(_ArgTypes...)>::
   d837e:	b510      	push	{r4, lr}
      if (_M_empty())
   d8380:	b90a      	cbnz	r2, d8386 <_ZNKSt8functionIFvRKN8particle5ErrorEEEclES3_+0xa>
	__throw_bad_function_call();
   d8382:	f002 feb0 	bl	db0e6 <_ZSt25__throw_bad_function_callv>
    }
   d8386:	e8bd 4010 	ldmia.w	sp!, {r4, lr}
      return _M_invoker(_M_functor, std::forward<_ArgTypes>(__args)...);
   d838a:	68c3      	ldr	r3, [r0, #12]
   d838c:	4718      	bx	r3

000d838e <_ZNSt17_Function_handlerIFvvESt5_BindIFSt8functionIFvRKN8particle5ErrorEEES4_EEE9_M_invokeERKSt9_Any_data>:
      _M_invoke(const _Any_data& __functor, _ArgTypes&&... __args)
   d838e:	b508      	push	{r3, lr}
	    return __source._M_access<_Functor*>();
   d8390:	6800      	ldr	r0, [r0, #0]
    { return std::forward<_Fn>(__f)(std::forward<_Args>(__args)...); }
   d8392:	f100 0110 	add.w	r1, r0, #16
   d8396:	f7ff fff1 	bl	d837c <_ZNKSt8functionIFvRKN8particle5ErrorEEEclES3_>
      }
   d839a:	bd08      	pop	{r3, pc}

000d839c <_ZNKSt8functionIFvRKbEEclES1_>:
      if (_M_empty())
   d839c:	6882      	ldr	r2, [r0, #8]
    function<_Res(_ArgTypes...)>::
   d839e:	b510      	push	{r4, lr}
      if (_M_empty())
   d83a0:	b90a      	cbnz	r2, d83a6 <_ZNKSt8functionIFvRKbEEclES1_+0xa>
	__throw_bad_function_call();
   d83a2:	f002 fea0 	bl	db0e6 <_ZSt25__throw_bad_function_callv>
    }
   d83a6:	e8bd 4010 	ldmia.w	sp!, {r4, lr}
      return _M_invoker(_M_functor, std::forward<_ArgTypes>(__args)...);
   d83aa:	68c3      	ldr	r3, [r0, #12]
   d83ac:	4718      	bx	r3

000d83ae <_ZNSt17_Function_handlerIFvvESt5_BindIFSt8functionIFvRKbEEbEEE9_M_invokeERKSt9_Any_data>:
      _M_invoke(const _Any_data& __functor, _ArgTypes&&... __args)
   d83ae:	b508      	push	{r3, lr}
	    return __source._M_access<_Functor*>();
   d83b0:	6800      	ldr	r0, [r0, #0]
   d83b2:	f100 0110 	add.w	r1, r0, #16
   d83b6:	f7ff fff1 	bl	d839c <_ZNKSt8functionIFvRKbEEclES1_>
      }
   d83ba:	bd08      	pop	{r3, pc}

000d83bc <_ZNSt14__shared_countILN9__gnu_cxx12_Lock_policyE0EEC1IPN8particle6detail10FutureImplIbNS5_13FutureContextEEEEET_>:
	__shared_count(_Ptr __p) : _M_pi(0)
   d83bc:	b538      	push	{r3, r4, r5, lr}
   d83be:	2300      	movs	r3, #0
   d83c0:	4604      	mov	r4, r0
   d83c2:	6003      	str	r3, [r0, #0]
	      _M_pi = new _Sp_counted_ptr<_Ptr, _Lp>(__p);
   d83c4:	2010      	movs	r0, #16
	__shared_count(_Ptr __p) : _M_pi(0)
   d83c6:	460d      	mov	r5, r1
	      _M_pi = new _Sp_counted_ptr<_Ptr, _Lp>(__p);
   d83c8:	f7fb fe65 	bl	d4096 <_Znwj>
   d83cc:	b128      	cbz	r0, d83da <_ZNSt14__shared_countILN9__gnu_cxx12_Lock_policyE0EEC1IPN8particle6detail10FutureImplIbNS5_13FutureContextEEEEET_+0x1e>
      : _M_use_count(1), _M_weak_count(1) { }
   d83ce:	2301      	movs	r3, #1
   d83d0:	e9c0 3301 	strd	r3, r3, [r0, #4]
      : _M_ptr(__p) { }
   d83d4:	4b02      	ldr	r3, [pc, #8]	; (d83e0 <_ZNSt14__shared_countILN9__gnu_cxx12_Lock_policyE0EEC1IPN8particle6detail10FutureImplIbNS5_13FutureContextEEEEET_+0x24>)
   d83d6:	6003      	str	r3, [r0, #0]
   d83d8:	60c5      	str	r5, [r0, #12]
	      _M_pi = new _Sp_counted_ptr<_Ptr, _Lp>(__p);
   d83da:	6020      	str	r0, [r4, #0]
	}
   d83dc:	4620      	mov	r0, r4
   d83de:	bd38      	pop	{r3, r4, r5, pc}
   d83e0:	000de768 	.word	0x000de768

000d83e4 <_ZNSt8functionIFvRKN8particle5ErrorEEEC1ERKS5_>:
    function<_Res(_ArgTypes...)>::
   d83e4:	b538      	push	{r3, r4, r5, lr}
    _Function_base() : _M_manager(nullptr) { }
   d83e6:	2300      	movs	r3, #0
   d83e8:	6083      	str	r3, [r0, #8]
      { return !_M_empty(); }
   d83ea:	688b      	ldr	r3, [r1, #8]
    function<_Res(_ArgTypes...)>::
   d83ec:	4604      	mov	r4, r0
   d83ee:	460d      	mov	r5, r1
      if (static_cast<bool>(__x))
   d83f0:	b12b      	cbz	r3, d83fe <_ZNSt8functionIFvRKN8particle5ErrorEEEC1ERKS5_+0x1a>
	  __x._M_manager(_M_functor, __x._M_functor, __clone_functor);
   d83f2:	2202      	movs	r2, #2
   d83f4:	4798      	blx	r3
	  _M_invoker = __x._M_invoker;
   d83f6:	68eb      	ldr	r3, [r5, #12]
   d83f8:	60e3      	str	r3, [r4, #12]
	  _M_manager = __x._M_manager;
   d83fa:	68ab      	ldr	r3, [r5, #8]
   d83fc:	60a3      	str	r3, [r4, #8]
    }
   d83fe:	4620      	mov	r0, r4
   d8400:	bd38      	pop	{r3, r4, r5, pc}
	...

000d8404 <_ZN8particle11PromiseBaseIbNS_6detail13FutureContextEE8setErrorENS_5ErrorE>:
    void setError(Error error) {
   d8404:	b5f0      	push	{r4, r5, r6, r7, lr}
   d8406:	b089      	sub	sp, #36	; 0x24
      { return static_cast<const __shared_ptr<_Tp, _Lp>*>(this)->get(); }
   d8408:	6804      	ldr	r4, [r0, #0]
        p_->setError(std::move(error));
   d840a:	4668      	mov	r0, sp
   d840c:	f7ff fef1 	bl	d81f2 <_ZN8particle5ErrorC1EOS0_>

      bool
      compare_exchange_strong(_Tp& __e, _Tp __i, memory_order __s,
			      memory_order __f) noexcept
      {
	return __atomic_compare_exchange(std::__addressof(_M_i),
   d8410:	f04f 0302 	mov.w	r3, #2
   d8414:	e8d4 2f4f 	ldrexb	r2, [r4]
   d8418:	2a00      	cmp	r2, #0
   d841a:	d103      	bne.n	d8424 <_ZN8particle11PromiseBaseIbNS_6detail13FutureContextEE8setErrorENS_5ErrorE+0x20>
   d841c:	e8c4 3f41 	strexb	r1, r3, [r4]
   d8420:	2900      	cmp	r1, #0
   d8422:	d1f7      	bne.n	d8414 <_ZN8particle11PromiseBaseIbNS_6detail13FutureContextEE8setErrorENS_5ErrorE+0x10>
        if (this->changeState(State::FAILED)) {
   d8424:	d125      	bne.n	d8472 <_ZN8particle11PromiseBaseIbNS_6detail13FutureContextEE8setErrorENS_5ErrorE+0x6e>
            new(&error_) Error(std::move(error));
   d8426:	f104 050c 	add.w	r5, r4, #12
   d842a:	4669      	mov	r1, sp
   d842c:	4628      	mov	r0, r5
   d842e:	f7ff fee0 	bl	d81f2 <_ZN8particle5ErrorC1EOS0_>
	__atomic_store_n(&_M_i, __i, int(__m));
   d8432:	f3bf 8f5b 	dmb	ish
   d8436:	2301      	movs	r3, #1
   d8438:	7063      	strb	r3, [r4, #1]

      _GLIBCXX_ALWAYS_INLINE __pointer_type
      exchange(__pointer_type __p,
	       memory_order __m = memory_order_seq_cst) noexcept
      {
	return __atomic_exchange_n(&_M_p, __p, int(__m));
   d843a:	2000      	movs	r0, #0
   d843c:	f104 0308 	add.w	r3, r4, #8
   d8440:	f3bf 8f5b 	dmb	ish
   d8444:	e853 6f00 	ldrex	r6, [r3]
   d8448:	e843 0200 	strex	r2, r0, [r3]
   d844c:	2a00      	cmp	r2, #0
   d844e:	d1f9      	bne.n	d8444 <_ZN8particle11PromiseBaseIbNS_6detail13FutureContextEE8setErrorENS_5ErrorE+0x40>
   d8450:	f3bf 8f5b 	dmb	ish
        if (callbackPtr) {
   d8454:	b16e      	cbz	r6, d8472 <_ZN8particle11PromiseBaseIbNS_6detail13FutureContextEE8setErrorENS_5ErrorE+0x6e>
        return (application_thread_current(nullptr) != 0);
   d8456:	f7ff fbcf 	bl	d7bf8 <application_thread_current>
        if (ContextT::isApplicationThreadCurrent()) {
   d845a:	b178      	cbz	r0, d847c <_ZN8particle11PromiseBaseIbNS_6detail13FutureContextEE8setErrorENS_5ErrorE+0x78>
            callback(std::forward<ArgsT>(args)...); // Synchronous call
   d845c:	4629      	mov	r1, r5
   d845e:	4630      	mov	r0, r6
   d8460:	f7ff ff8c 	bl	d837c <_ZNKSt8functionIFvRKN8particle5ErrorEEEclES3_>
    class function<_Res(_ArgTypes...)>
   d8464:	4630      	mov	r0, r6
   d8466:	f7fb ff4d 	bl	d4304 <_ZNSt14_Function_baseD1Ev>
            delete callbackPtr;
   d846a:	2110      	movs	r1, #16
   d846c:	4630      	mov	r0, r6
   d846e:	f002 fe34 	bl	db0da <_ZdlPvj>
        p_->setError(std::move(error));
   d8472:	4668      	mov	r0, sp
   d8474:	f7ff feca 	bl	d820c <_ZN8particle5ErrorD1Ev>
    }
   d8478:	b009      	add	sp, #36	; 0x24
   d847a:	bdf0      	pop	{r4, r5, r6, r7, pc}
	  typename __cv_quals<_Bound_args>::type...>;

     public:
      template<typename... _Args>
	explicit _Bind(const _Functor& __f, _Args&&... __args)
	: _M_f(__f), _M_bound_args(std::forward<_Args>(__args)...)
   d847c:	4631      	mov	r1, r6
   d847e:	a802      	add	r0, sp, #8
   d8480:	f7ff ffb0 	bl	d83e4 <_ZNSt8functionIFvRKN8particle5ErrorEEEC1ERKS5_>
        Error(error.type_, error.msg_) {
   d8484:	68e0      	ldr	r0, [r4, #12]
   d8486:	f9b4 5010 	ldrsh.w	r5, [r4, #16]
        msg_(msg ? (const char*)strdup(msg) : nullptr),
   d848a:	b108      	cbz	r0, d8490 <_ZN8particle11PromiseBaseIbNS_6detail13FutureContextEE8setErrorENS_5ErrorE+0x8c>
   d848c:	f003 fc4c 	bl	dbd28 <strdup>
        type_(type) {
   d8490:	9006      	str	r0, [sp, #24]
            auto callbackPtr = new std::function<void()>(std::bind(callback, std::forward<ArgsT>(args)...));
   d8492:	2010      	movs	r0, #16
   d8494:	f8ad 501c 	strh.w	r5, [sp, #28]
   d8498:	f7fb fdfd 	bl	d4096 <_Znwj>
   d849c:	4605      	mov	r5, r0
   d849e:	b1e8      	cbz	r0, d84dc <_ZN8particle11PromiseBaseIbNS_6detail13FutureContextEE8setErrorENS_5ErrorE+0xd8>
    _Function_base() : _M_manager(nullptr) { }
   d84a0:	2700      	movs	r7, #0
   d84a2:	6087      	str	r7, [r0, #8]
	{ __functor._M_access<_Functor*>() = new _Functor(std::move(__f)); }
   d84a4:	2018      	movs	r0, #24
   d84a6:	f7fb fdf6 	bl	d4096 <_Znwj>
   d84aa:	4604      	mov	r4, r0
   d84ac:	b188      	cbz	r0, d84d2 <_ZN8particle11PromiseBaseIbNS_6detail13FutureContextEE8setErrorENS_5ErrorE+0xce>
	std::swap(_M_functor, __x._M_functor);
   d84ae:	4601      	mov	r1, r0
    _Function_base() : _M_manager(nullptr) { }
   d84b0:	6087      	str	r7, [r0, #8]
	std::swap(_M_functor, __x._M_functor);
   d84b2:	a802      	add	r0, sp, #8
   d84b4:	f7ff ff50 	bl	d8358 <_ZSt4swapISt9_Any_dataENSt9enable_ifIXsrSt6__and_IJSt6__not_ISt15__is_tuple_likeIT_EESt21is_move_constructibleIS5_ESt18is_move_assignableIS5_EEE5valueEvE4typeERS5_SF_>
      _Tp __tmp = _GLIBCXX_MOVE(__a);
   d84b8:	9b04      	ldr	r3, [sp, #16]
      __a = _GLIBCXX_MOVE(__b);
   d84ba:	68a2      	ldr	r2, [r4, #8]
      __b = _GLIBCXX_MOVE(__tmp);
   d84bc:	60a3      	str	r3, [r4, #8]
      _Tp __tmp = _GLIBCXX_MOVE(__a);
   d84be:	9b05      	ldr	r3, [sp, #20]
      __a = _GLIBCXX_MOVE(__b);
   d84c0:	9204      	str	r2, [sp, #16]
      constexpr _Head_base(const _Head_base&) = default;
      constexpr _Head_base(_Head_base&&) = default;

      template<typename _UHead>
        constexpr _Head_base(_UHead&& __h)
	: _M_head_impl(std::forward<_UHead>(__h)) { }
   d84c2:	a906      	add	r1, sp, #24
   d84c4:	68e2      	ldr	r2, [r4, #12]
      __b = _GLIBCXX_MOVE(__tmp);
   d84c6:	60e3      	str	r3, [r4, #12]
   d84c8:	f104 0010 	add.w	r0, r4, #16
      __a = _GLIBCXX_MOVE(__b);
   d84cc:	9205      	str	r2, [sp, #20]
   d84ce:	f7ff fe90 	bl	d81f2 <_ZN8particle5ErrorC1EOS0_>
	    _M_invoker = &_My_handler::_M_invoke;
   d84d2:	4b08      	ldr	r3, [pc, #32]	; (d84f4 <_ZN8particle11PromiseBaseIbNS_6detail13FutureContextEE8setErrorENS_5ErrorE+0xf0>)
   d84d4:	60eb      	str	r3, [r5, #12]
	    _M_manager = &_My_handler::_M_manager;
   d84d6:	4b08      	ldr	r3, [pc, #32]	; (d84f8 <_ZN8particle11PromiseBaseIbNS_6detail13FutureContextEE8setErrorENS_5ErrorE+0xf4>)
	{ __functor._M_access<_Functor*>() = new _Functor(std::move(__f)); }
   d84d8:	602c      	str	r4, [r5, #0]
	    _M_manager = &_My_handler::_M_manager;
   d84da:	60ab      	str	r3, [r5, #8]
    struct _Head_base<_Idx, _Head, false>
   d84dc:	a806      	add	r0, sp, #24
   d84de:	f7ff fe95 	bl	d820c <_ZN8particle5ErrorD1Ev>
    class function<_Res(_ArgTypes...)>
   d84e2:	a802      	add	r0, sp, #8
   d84e4:	f7fb ff0e 	bl	d4304 <_ZNSt14_Function_baseD1Ev>
        return (application_thread_invoke(callback, data, nullptr) == 0);
   d84e8:	2200      	movs	r2, #0
   d84ea:	4629      	mov	r1, r5
   d84ec:	4803      	ldr	r0, [pc, #12]	; (d84fc <_ZN8particle11PromiseBaseIbNS_6detail13FutureContextEE8setErrorENS_5ErrorE+0xf8>)
   d84ee:	f7ff fb8b 	bl	d7c08 <application_thread_invoke>
   d84f2:	e7b7      	b.n	d8464 <_ZN8particle11PromiseBaseIbNS_6detail13FutureContextEE8setErrorENS_5ErrorE+0x60>
   d84f4:	000d838f 	.word	0x000d838f
   d84f8:	000d8625 	.word	0x000d8625
   d84fc:	000d7f2b 	.word	0x000d7f2b

000d8500 <_ZN10CloudClass13publish_eventEPKcS1_iN8particle5FlagsI15PublishFlagTypehEE>:
Future<bool> CloudClass::publish_event(const char *eventName, const char *eventData, int ttl, PublishFlags flags) {
   d8500:	e92d 47f0 	stmdb	sp!, {r4, r5, r6, r7, r8, r9, sl, lr}
   d8504:	b08a      	sub	sp, #40	; 0x28
   d8506:	4605      	mov	r5, r0
   d8508:	f89d 9048 	ldrb.w	r9, [sp, #72]	; 0x48
   d850c:	460c      	mov	r4, r1
   d850e:	4617      	mov	r7, r2
   d8510:	4698      	mov	r8, r3
    static void sleep(Spark_Sleep_TypeDef sleepMode, long seconds=0) __attribute__ ((deprecated("Please use System.sleep() instead.")))
    { SystemClass::sleep(sleepMode, seconds); }
    static void sleep(uint16_t wakeUpPin, InterruptMode edgeTriggerMode, long seconds=0) __attribute__ ((deprecated("Please use System.sleep() instead.")))
    { SystemClass::sleep(wakeUpPin, edgeTriggerMode, seconds); }

    static bool connected(void) { return spark_cloud_flag_connected(); }
   d8512:	f7ff fbe3 	bl	d7cdc <spark_cloud_flag_connected>
   d8516:	ae07      	add	r6, sp, #28
    if (!connected()) {
   d8518:	4682      	mov	sl, r0
   d851a:	bb38      	cbnz	r0, d856c <_ZN10CloudClass13publish_eventEPKcS1_iN8particle5FlagsI15PublishFlagTypehEE+0x6c>
        type_(type) {
   d851c:	f64f 732e 	movw	r3, #65326	; 0xff2e
   d8520:	9005      	str	r0, [sp, #20]
    typedef typename detail::FutureImpl<ResultT, ContextT>::OnSuccessCallback OnSuccessCallback;
    typedef typename detail::FutureImpl<ResultT, ContextT>::OnErrorCallback OnErrorCallback;

    // Construct failed future
    explicit FutureBase(Error error) :
            p_(new detail::FutureImpl<ResultT, ContextT>(std::move(error))) {
   d8522:	a905      	add	r1, sp, #20
   d8524:	4630      	mov	r0, r6
   d8526:	f8ad 3018 	strh.w	r3, [sp, #24]
   d852a:	f7ff fe62 	bl	d81f2 <_ZN8particle5ErrorC1EOS0_>
   d852e:	2014      	movs	r0, #20
   d8530:	f7fb fdb1 	bl	d4096 <_Znwj>
   d8534:	4604      	mov	r4, r0
   d8536:	b148      	cbz	r0, d854c <_ZN10CloudClass13publish_eventEPKcS1_iN8particle5FlagsI15PublishFlagTypehEE+0x4c>
      constexpr atomic(_Tp __i) noexcept : _M_i(__i) { }
   d8538:	2302      	movs	r3, #2
   d853a:	7003      	strb	r3, [r0, #0]
      constexpr __atomic_base(__int_type __i) noexcept : _M_i (__i) { }
   d853c:	2301      	movs	r3, #1
      constexpr __atomic_base(__pointer_type __p) noexcept : _M_p (__p) { }
   d853e:	e9c0 aa01 	strd	sl, sl, [r0, #4]
      constexpr __atomic_base(__int_type __i) noexcept : _M_i (__i) { }
   d8542:	7043      	strb	r3, [r0, #1]
            error_(std::move(error)) {
   d8544:	4631      	mov	r1, r6
   d8546:	300c      	adds	r0, #12
   d8548:	f7ff fe53 	bl	d81f2 <_ZN8particle5ErrorC1EOS0_>
	: _M_ptr(__p), _M_refcount(__p, typename is_array<_Tp>::type())
   d854c:	4628      	mov	r0, r5
	: __shared_count(__p)
   d854e:	4621      	mov	r1, r4
	: _M_ptr(__p), _M_refcount(__p, typename is_array<_Tp>::type())
   d8550:	f840 4b04 	str.w	r4, [r0], #4
	: __shared_count(__p)
   d8554:	f7ff ff32 	bl	d83bc <_ZNSt14__shared_countILN9__gnu_cxx12_Lock_policyE0EEC1IPN8particle6detail10FutureImplIbNS5_13FutureContextEEEEET_>
            p_(new detail::FutureImpl<ResultT, ContextT>(std::move(error))) {
   d8558:	4630      	mov	r0, r6
   d855a:	f7ff fe57 	bl	d820c <_ZN8particle5ErrorD1Ev>
    }

    explicit FutureBase(Error::Type error) :
            FutureBase(Error(error)) {
   d855e:	a805      	add	r0, sp, #20
   d8560:	f7ff fe54 	bl	d820c <_ZN8particle5ErrorD1Ev>
}
   d8564:	4628      	mov	r0, r5
   d8566:	b00a      	add	sp, #40	; 0x28
   d8568:	e8bd 87f0 	ldmia.w	sp!, {r4, r5, r6, r7, r8, r9, sl, pc}
    spark_send_event_data d = { sizeof(spark_send_event_data) };
   d856c:	230c      	movs	r3, #12
   d856e:	f04f 0a00 	mov.w	sl, #0
            p_(new detail::FutureImpl<ResultT, ContextT>(State::RUNNING)) {
   d8572:	2014      	movs	r0, #20
   d8574:	e9cd aa08 	strd	sl, sl, [sp, #32]
   d8578:	9307      	str	r3, [sp, #28]
   d857a:	f7fb fd8c 	bl	d4096 <_Znwj>
   d857e:	4601      	mov	r1, r0
   d8580:	b128      	cbz	r0, d858e <_ZN10CloudClass13publish_eventEPKcS1_iN8particle5FlagsI15PublishFlagTypehEE+0x8e>
      constexpr __atomic_base(__pointer_type __p) noexcept : _M_p (__p) { }
   d8582:	e9c0 aa01 	strd	sl, sl, [r0, #4]
   d8586:	f880 a000 	strb.w	sl, [r0]
      constexpr __atomic_base(__int_type __i) noexcept : _M_i (__i) { }
   d858a:	f880 a001 	strb.w	sl, [r0, #1]
   d858e:	a804      	add	r0, sp, #16
	: _M_ptr(__p), _M_refcount(__p, typename is_array<_Tp>::type())
   d8590:	9103      	str	r1, [sp, #12]
	: __shared_count(__p)
   d8592:	f7ff ff13 	bl	d83bc <_ZNSt14__shared_countILN9__gnu_cxx12_Lock_policyE0EEC1IPN8particle6detail10FutureImplIbNS5_13FutureContextEEEEET_>
    d.handler_callback = publishCompletionCallback;
   d8596:	4b22      	ldr	r3, [pc, #136]	; (d8620 <_ZN10CloudClass13publish_eventEPKcS1_iN8particle5FlagsI15PublishFlagTypehEE+0x120>)
   d8598:	9308      	str	r3, [sp, #32]
        return new detail::FutureImplPtr<ResultT, ContextT>(p_);
   d859a:	2008      	movs	r0, #8
   d859c:	f7fb fd7b 	bl	d4096 <_Znwj>
   d85a0:	4682      	mov	sl, r0
   d85a2:	b128      	cbz	r0, d85b0 <_ZN10CloudClass13publish_eventEPKcS1_iN8particle5FlagsI15PublishFlagTypehEE+0xb0>
      __shared_ptr(const __shared_ptr&) noexcept = default;
   d85a4:	9b03      	ldr	r3, [sp, #12]
   d85a6:	f840 3b04 	str.w	r3, [r0], #4
   d85aa:	a904      	add	r1, sp, #16
   d85ac:	f7ff fcd9 	bl	d7f62 <_ZNSt14__shared_countILN9__gnu_cxx12_Lock_policyE0EEC1ERKS2_>
    if (!spark_send_event(eventName, eventData, ttl, flags.value(), &d) && !p.isDone()) {
   d85b0:	9600      	str	r6, [sp, #0]
   d85b2:	fa5f f389 	uxtb.w	r3, r9
   d85b6:	4642      	mov	r2, r8
   d85b8:	4639      	mov	r1, r7
   d85ba:	4620      	mov	r0, r4
    d.handler_data = p.dataPtr();
   d85bc:	f8cd a024 	str.w	sl, [sp, #36]	; 0x24
    if (!spark_send_event(eventName, eventData, ttl, flags.value(), &d) && !p.isDone()) {
   d85c0:	f7ff fb9c 	bl	d7cfc <spark_send_event>
   d85c4:	b9b8      	cbnz	r0, d85f6 <_ZN10CloudClass13publish_eventEPKcS1_iN8particle5FlagsI15PublishFlagTypehEE+0xf6>
	return __atomic_load_n(&_M_i, int(__m));
   d85c6:	9b03      	ldr	r3, [sp, #12]
   d85c8:	785b      	ldrb	r3, [r3, #1]
   d85ca:	f003 02ff 	and.w	r2, r3, #255	; 0xff
   d85ce:	b993      	cbnz	r3, d85f6 <_ZN10CloudClass13publish_eventEPKcS1_iN8particle5FlagsI15PublishFlagTypehEE+0xf6>
   d85d0:	f64f 739c 	movw	r3, #65436	; 0xff9c
        p.setError(Error::UNKNOWN);
   d85d4:	a905      	add	r1, sp, #20
   d85d6:	a803      	add	r0, sp, #12
   d85d8:	9205      	str	r2, [sp, #20]
   d85da:	f8ad 3018 	strh.w	r3, [sp, #24]
   d85de:	f7ff ff11 	bl	d8404 <_ZN8particle11PromiseBaseIbNS_6detail13FutureContextEE8setErrorENS_5ErrorE>
   d85e2:	a805      	add	r0, sp, #20
   d85e4:	f7ff fe12 	bl	d820c <_ZN8particle5ErrorD1Ev>
        p.fromDataPtr(d.handler_data); // Free wrapper object
   d85e8:	a805      	add	r0, sp, #20
   d85ea:	9909      	ldr	r1, [sp, #36]	; 0x24
   d85ec:	f7ff fe95 	bl	d831a <_ZN8particle11PromiseBaseIbNS_6detail13FutureContextEE11fromDataPtrEPv>
      ~__shared_ptr() = default;
   d85f0:	a806      	add	r0, sp, #24
   d85f2:	f7fc fd11 	bl	d5018 <_ZNSt14__shared_countILN9__gnu_cxx12_Lock_policyE0EED1Ev>
      __shared_ptr(const __shared_ptr&) noexcept = default;
   d85f6:	9b03      	ldr	r3, [sp, #12]
   d85f8:	9305      	str	r3, [sp, #20]
   d85fa:	a904      	add	r1, sp, #16
   d85fc:	a806      	add	r0, sp, #24
   d85fe:	f7ff fcb0 	bl	d7f62 <_ZNSt14__shared_countILN9__gnu_cxx12_Lock_policyE0EEC1ERKS2_>
      : _M_ptr(__r._M_ptr), _M_refcount()
   d8602:	9b05      	ldr	r3, [sp, #20]
	_Sp_counted_base<_Lp>* __tmp = __r._M_pi;
   d8604:	9a06      	ldr	r2, [sp, #24]
      : _M_ptr(__r._M_ptr), _M_refcount()
   d8606:	602b      	str	r3, [r5, #0]
	_M_pi = __tmp;
   d8608:	606a      	str	r2, [r5, #4]
	__r._M_pi = _M_pi;
   d860a:	2300      	movs	r3, #0
      ~__shared_ptr() = default;
   d860c:	a806      	add	r0, sp, #24
	__r._M_pi = _M_pi;
   d860e:	9306      	str	r3, [sp, #24]
	__r._M_ptr = 0;
   d8610:	9305      	str	r3, [sp, #20]
      ~__shared_ptr() = default;
   d8612:	f7fc fd01 	bl	d5018 <_ZNSt14__shared_countILN9__gnu_cxx12_Lock_policyE0EED1Ev>
   d8616:	a804      	add	r0, sp, #16
   d8618:	f7fc fcfe 	bl	d5018 <_ZNSt14__shared_countILN9__gnu_cxx12_Lock_policyE0EED1Ev>
class Promise: public PromiseBase<ResultT, ContextT> {
   d861c:	e7a2      	b.n	d8564 <_ZN10CloudClass13publish_eventEPKcS1_iN8particle5FlagsI15PublishFlagTypehEE+0x64>
   d861e:	bf00      	nop
   d8620:	000d86e9 	.word	0x000d86e9

000d8624 <_ZNSt14_Function_base13_Base_managerISt5_BindIFSt8functionIFvRKN8particle5ErrorEEES4_EEE10_M_managerERSt9_Any_dataRKSC_St18_Manager_operation>:
	  switch (__op)
   d8624:	2a02      	cmp	r2, #2
	_M_manager(_Any_data& __dest, const _Any_data& __source,
   d8626:	b5f8      	push	{r3, r4, r5, r6, r7, lr}
   d8628:	4605      	mov	r5, r0
	  switch (__op)
   d862a:	d007      	beq.n	d863c <_ZNSt14_Function_base13_Base_managerISt5_BindIFSt8functionIFvRKN8particle5ErrorEEES4_EEE10_M_managerERSt9_Any_dataRKSC_St18_Manager_operation+0x18>
   d862c:	2a03      	cmp	r2, #3
   d862e:	d018      	beq.n	d8662 <_ZNSt14_Function_base13_Base_managerISt5_BindIFSt8functionIFvRKN8particle5ErrorEEES4_EEE10_M_managerERSt9_Any_dataRKSC_St18_Manager_operation+0x3e>
   d8630:	2a01      	cmp	r2, #1
   d8632:	d101      	bne.n	d8638 <_ZNSt14_Function_base13_Base_managerISt5_BindIFSt8functionIFvRKN8particle5ErrorEEES4_EEE10_M_managerERSt9_Any_dataRKSC_St18_Manager_operation+0x14>
	    return __source._M_access<_Functor*>();
   d8634:	680b      	ldr	r3, [r1, #0]
	      __dest._M_access<_Functor*>() = _M_get_pointer(__source);
   d8636:	6003      	str	r3, [r0, #0]
	}
   d8638:	2000      	movs	r0, #0
   d863a:	bdf8      	pop	{r3, r4, r5, r6, r7, pc}
	    new _Functor(*__source._M_access<const _Functor*>());
   d863c:	2018      	movs	r0, #24
	  __dest._M_access<_Functor*>() =
   d863e:	680e      	ldr	r6, [r1, #0]
	    new _Functor(*__source._M_access<const _Functor*>());
   d8640:	f7fb fd29 	bl	d4096 <_Znwj>
   d8644:	4604      	mov	r4, r0
   d8646:	b150      	cbz	r0, d865e <_ZNSt14_Function_base13_Base_managerISt5_BindIFSt8functionIFvRKN8particle5ErrorEEES4_EEE10_M_managerERSt9_Any_dataRKSC_St18_Manager_operation+0x3a>
      template<typename... _Args>
	explicit _Bind(_Functor&& __f, _Args&&... __args)
	: _M_f(std::move(__f)), _M_bound_args(std::forward<_Args>(__args)...)
	{ }

      _Bind(const _Bind&) = default;
   d8648:	4631      	mov	r1, r6
   d864a:	f7ff fecb 	bl	d83e4 <_ZNSt8functionIFvRKN8particle5ErrorEEEC1ERKS5_>
        Error(error.type_, error.msg_) {
   d864e:	6930      	ldr	r0, [r6, #16]
   d8650:	f9b6 7014 	ldrsh.w	r7, [r6, #20]
        msg_(msg ? (const char*)strdup(msg) : nullptr),
   d8654:	b108      	cbz	r0, d865a <_ZNSt14_Function_base13_Base_managerISt5_BindIFSt8functionIFvRKN8particle5ErrorEEES4_EEE10_M_managerERSt9_Any_dataRKSC_St18_Manager_operation+0x36>
   d8656:	f003 fb67 	bl	dbd28 <strdup>
        type_(type) {
   d865a:	6120      	str	r0, [r4, #16]
   d865c:	82a7      	strh	r7, [r4, #20]
	  __dest._M_access<_Functor*>() =
   d865e:	602c      	str	r4, [r5, #0]
	}
   d8660:	e7ea      	b.n	d8638 <_ZNSt14_Function_base13_Base_managerISt5_BindIFSt8functionIFvRKN8particle5ErrorEEES4_EEE10_M_managerERSt9_Any_dataRKSC_St18_Manager_operation+0x14>
	  delete __victim._M_access<_Functor*>();
   d8662:	6804      	ldr	r4, [r0, #0]
   d8664:	2c00      	cmp	r4, #0
   d8666:	d0e7      	beq.n	d8638 <_ZNSt14_Function_base13_Base_managerISt5_BindIFSt8functionIFvRKN8particle5ErrorEEES4_EEE10_M_managerERSt9_Any_dataRKSC_St18_Manager_operation+0x14>
   d8668:	f104 0010 	add.w	r0, r4, #16
   d866c:	f7ff fdce 	bl	d820c <_ZN8particle5ErrorD1Ev>
    class function<_Res(_ArgTypes...)>
   d8670:	4620      	mov	r0, r4
   d8672:	f7fb fe47 	bl	d4304 <_ZNSt14_Function_baseD1Ev>
	  delete __victim._M_access<_Functor*>();
   d8676:	2118      	movs	r1, #24
   d8678:	4620      	mov	r0, r4
   d867a:	f002 fd2e 	bl	db0da <_ZdlPvj>
   d867e:	e7db      	b.n	d8638 <_ZNSt14_Function_base13_Base_managerISt5_BindIFSt8functionIFvRKN8particle5ErrorEEES4_EEE10_M_managerERSt9_Any_dataRKSC_St18_Manager_operation+0x14>

000d8680 <_ZNSt8functionIFvRKbEEC1ERKS3_>:
    function<_Res(_ArgTypes...)>::
   d8680:	b538      	push	{r3, r4, r5, lr}
    _Function_base() : _M_manager(nullptr) { }
   d8682:	2300      	movs	r3, #0
   d8684:	6083      	str	r3, [r0, #8]
      { return !_M_empty(); }
   d8686:	688b      	ldr	r3, [r1, #8]
    function<_Res(_ArgTypes...)>::
   d8688:	4604      	mov	r4, r0
   d868a:	460d      	mov	r5, r1
      if (static_cast<bool>(__x))
   d868c:	b12b      	cbz	r3, d869a <_ZNSt8functionIFvRKbEEC1ERKS3_+0x1a>
	  __x._M_manager(_M_functor, __x._M_functor, __clone_functor);
   d868e:	2202      	movs	r2, #2
   d8690:	4798      	blx	r3
	  _M_invoker = __x._M_invoker;
   d8692:	68eb      	ldr	r3, [r5, #12]
   d8694:	60e3      	str	r3, [r4, #12]
	  _M_manager = __x._M_manager;
   d8696:	68ab      	ldr	r3, [r5, #8]
   d8698:	60a3      	str	r3, [r4, #8]
    }
   d869a:	4620      	mov	r0, r4
   d869c:	bd38      	pop	{r3, r4, r5, pc}

000d869e <_ZNSt14_Function_base13_Base_managerISt5_BindIFSt8functionIFvRKbEEbEEE10_M_managerERSt9_Any_dataRKSA_St18_Manager_operation>:
	  switch (__op)
   d869e:	2a02      	cmp	r2, #2
	_M_manager(_Any_data& __dest, const _Any_data& __source,
   d86a0:	b570      	push	{r4, r5, r6, lr}
   d86a2:	4604      	mov	r4, r0
	  switch (__op)
   d86a4:	d007      	beq.n	d86b6 <_ZNSt14_Function_base13_Base_managerISt5_BindIFSt8functionIFvRKbEEbEEE10_M_managerERSt9_Any_dataRKSA_St18_Manager_operation+0x18>
   d86a6:	2a03      	cmp	r2, #3
   d86a8:	d012      	beq.n	d86d0 <_ZNSt14_Function_base13_Base_managerISt5_BindIFSt8functionIFvRKbEEbEEE10_M_managerERSt9_Any_dataRKSA_St18_Manager_operation+0x32>
   d86aa:	2a01      	cmp	r2, #1
   d86ac:	d101      	bne.n	d86b2 <_ZNSt14_Function_base13_Base_managerISt5_BindIFSt8functionIFvRKbEEbEEE10_M_managerERSt9_Any_dataRKSA_St18_Manager_operation+0x14>
	    return __source._M_access<_Functor*>();
   d86ae:	680b      	ldr	r3, [r1, #0]
	      __dest._M_access<_Functor*>() = _M_get_pointer(__source);
   d86b0:	6003      	str	r3, [r0, #0]
	}
   d86b2:	2000      	movs	r0, #0
   d86b4:	bd70      	pop	{r4, r5, r6, pc}
	    new _Functor(*__source._M_access<const _Functor*>());
   d86b6:	2014      	movs	r0, #20
	  __dest._M_access<_Functor*>() =
   d86b8:	680e      	ldr	r6, [r1, #0]
	    new _Functor(*__source._M_access<const _Functor*>());
   d86ba:	f7fb fcec 	bl	d4096 <_Znwj>
   d86be:	4605      	mov	r5, r0
   d86c0:	b120      	cbz	r0, d86cc <_ZNSt14_Function_base13_Base_managerISt5_BindIFSt8functionIFvRKbEEbEEE10_M_managerERSt9_Any_dataRKSA_St18_Manager_operation+0x2e>
   d86c2:	4631      	mov	r1, r6
   d86c4:	f7ff ffdc 	bl	d8680 <_ZNSt8functionIFvRKbEEC1ERKS3_>
   d86c8:	7c33      	ldrb	r3, [r6, #16]
   d86ca:	742b      	strb	r3, [r5, #16]
	  __dest._M_access<_Functor*>() =
   d86cc:	6025      	str	r5, [r4, #0]
	}
   d86ce:	e7f0      	b.n	d86b2 <_ZNSt14_Function_base13_Base_managerISt5_BindIFSt8functionIFvRKbEEbEEE10_M_managerERSt9_Any_dataRKSA_St18_Manager_operation+0x14>
	  delete __victim._M_access<_Functor*>();
   d86d0:	6804      	ldr	r4, [r0, #0]
   d86d2:	2c00      	cmp	r4, #0
   d86d4:	d0ed      	beq.n	d86b2 <_ZNSt14_Function_base13_Base_managerISt5_BindIFSt8functionIFvRKbEEbEEE10_M_managerERSt9_Any_dataRKSA_St18_Manager_operation+0x14>
    class function<_Res(_ArgTypes...)>
   d86d6:	4620      	mov	r0, r4
   d86d8:	f7fb fe14 	bl	d4304 <_ZNSt14_Function_baseD1Ev>
	  delete __victim._M_access<_Functor*>();
   d86dc:	2114      	movs	r1, #20
   d86de:	4620      	mov	r0, r4
   d86e0:	f002 fcfb 	bl	db0da <_ZdlPvj>
   d86e4:	e7e5      	b.n	d86b2 <_ZNSt14_Function_base13_Base_managerISt5_BindIFSt8functionIFvRKbEEbEEE10_M_managerERSt9_Any_dataRKSA_St18_Manager_operation+0x14>
	...

000d86e8 <_ZN12_GLOBAL__N_125publishCompletionCallbackEiPKvPvS2_>:
void publishCompletionCallback(int error, const void* data, void* callbackData, void* reserved) {
   d86e8:	b5f0      	push	{r4, r5, r6, r7, lr}
   d86ea:	b089      	sub	sp, #36	; 0x24
   d86ec:	4604      	mov	r4, r0
   d86ee:	460d      	mov	r5, r1
    auto p = Promise<bool>::fromDataPtr(callbackData);
   d86f0:	a801      	add	r0, sp, #4
   d86f2:	4611      	mov	r1, r2
   d86f4:	f7ff fe11 	bl	d831a <_ZN8particle11PromiseBaseIbNS_6detail13FutureContextEE11fromDataPtrEPv>
    if (error != Error::NONE) {
   d86f8:	b1a4      	cbz	r4, d8724 <_ZN12_GLOBAL__N_125publishCompletionCallbackEiPKvPvS2_+0x3c>
        p.setError(Error((Error::Type)error, (const char*)data));
   d86fa:	b224      	sxth	r4, r4
        msg_(msg ? (const char*)strdup(msg) : nullptr),
   d86fc:	b11d      	cbz	r5, d8706 <_ZN12_GLOBAL__N_125publishCompletionCallbackEiPKvPvS2_+0x1e>
   d86fe:	4628      	mov	r0, r5
   d8700:	f003 fb12 	bl	dbd28 <strdup>
   d8704:	4605      	mov	r5, r0
   d8706:	a801      	add	r0, sp, #4
   d8708:	a903      	add	r1, sp, #12
        type_(type) {
   d870a:	9503      	str	r5, [sp, #12]
   d870c:	f8ad 4010 	strh.w	r4, [sp, #16]
   d8710:	f7ff fe78 	bl	d8404 <_ZN8particle11PromiseBaseIbNS_6detail13FutureContextEE8setErrorENS_5ErrorE>
   d8714:	a803      	add	r0, sp, #12
   d8716:	f7ff fd79 	bl	d820c <_ZN8particle5ErrorD1Ev>
   d871a:	a802      	add	r0, sp, #8
   d871c:	f7fc fc7c 	bl	d5018 <_ZNSt14__shared_countILN9__gnu_cxx12_Lock_policyE0EED1Ev>
}
   d8720:	b009      	add	sp, #36	; 0x24
   d8722:	bdf0      	pop	{r4, r5, r6, r7, pc}
      { return static_cast<const __shared_ptr<_Tp, _Lp>*>(this)->get(); }
   d8724:	9d01      	ldr	r5, [sp, #4]
	return __atomic_compare_exchange(std::__addressof(_M_i),
   d8726:	2301      	movs	r3, #1
   d8728:	e8d5 2f4f 	ldrexb	r2, [r5]
   d872c:	2a00      	cmp	r2, #0
   d872e:	d103      	bne.n	d8738 <_ZN12_GLOBAL__N_125publishCompletionCallbackEiPKvPvS2_+0x50>
   d8730:	e8c5 3f41 	strexb	r1, r3, [r5]
   d8734:	2900      	cmp	r1, #0
   d8736:	d1f7      	bne.n	d8728 <_ZN12_GLOBAL__N_125publishCompletionCallbackEiPKvPvS2_+0x40>
        if (this->changeState(State::SUCCEEDED)) {
   d8738:	d1ef      	bne.n	d871a <_ZN12_GLOBAL__N_125publishCompletionCallbackEiPKvPvS2_+0x32>
            new(&result_) ResultT(std::move(result));
   d873a:	732b      	strb	r3, [r5, #12]
	__atomic_store_n(&_M_i, __i, int(__m));
   d873c:	f3bf 8f5b 	dmb	ish
   d8740:	706b      	strb	r3, [r5, #1]
	return __atomic_exchange_n(&_M_p, __p, int(__m));
   d8742:	1d2b      	adds	r3, r5, #4
   d8744:	f3bf 8f5b 	dmb	ish
   d8748:	e853 6f00 	ldrex	r6, [r3]
   d874c:	e843 4200 	strex	r2, r4, [r3]
   d8750:	2a00      	cmp	r2, #0
   d8752:	d1f9      	bne.n	d8748 <_ZN12_GLOBAL__N_125publishCompletionCallbackEiPKvPvS2_+0x60>
   d8754:	f3bf 8f5b 	dmb	ish
        if (callbackPtr) {
   d8758:	2e00      	cmp	r6, #0
   d875a:	d0de      	beq.n	d871a <_ZN12_GLOBAL__N_125publishCompletionCallbackEiPKvPvS2_+0x32>
        return (application_thread_current(nullptr) != 0);
   d875c:	4620      	mov	r0, r4
   d875e:	f7ff fa4b 	bl	d7bf8 <application_thread_current>
        if (ContextT::isApplicationThreadCurrent()) {
   d8762:	4607      	mov	r7, r0
   d8764:	b160      	cbz	r0, d8780 <_ZN12_GLOBAL__N_125publishCompletionCallbackEiPKvPvS2_+0x98>
            callback(std::forward<ArgsT>(args)...); // Synchronous call
   d8766:	f105 010c 	add.w	r1, r5, #12
   d876a:	4630      	mov	r0, r6
   d876c:	f7ff fe16 	bl	d839c <_ZNKSt8functionIFvRKbEEclES1_>
    class function<_Res(_ArgTypes...)>
   d8770:	4630      	mov	r0, r6
   d8772:	f7fb fdc7 	bl	d4304 <_ZNSt14_Function_baseD1Ev>
            delete callbackPtr;
   d8776:	2110      	movs	r1, #16
   d8778:	4630      	mov	r0, r6
   d877a:	f002 fcae 	bl	db0da <_ZdlPvj>
   d877e:	e7cc      	b.n	d871a <_ZN12_GLOBAL__N_125publishCompletionCallbackEiPKvPvS2_+0x32>
	: _M_f(__f), _M_bound_args(std::forward<_Args>(__args)...)
   d8780:	4631      	mov	r1, r6
   d8782:	a803      	add	r0, sp, #12
   d8784:	f7ff ff7c 	bl	d8680 <_ZNSt8functionIFvRKbEEC1ERKS3_>
	: _M_head_impl(std::forward<_UHead>(__h)) { }
   d8788:	7b2b      	ldrb	r3, [r5, #12]
   d878a:	f88d 301c 	strb.w	r3, [sp, #28]
            auto callbackPtr = new std::function<void()>(std::bind(callback, std::forward<ArgsT>(args)...));
   d878e:	2010      	movs	r0, #16
   d8790:	f7fb fc81 	bl	d4096 <_Znwj>
   d8794:	4605      	mov	r5, r0
   d8796:	b1d0      	cbz	r0, d87ce <_ZN12_GLOBAL__N_125publishCompletionCallbackEiPKvPvS2_+0xe6>
    _Function_base() : _M_manager(nullptr) { }
   d8798:	6087      	str	r7, [r0, #8]
	{ __functor._M_access<_Functor*>() = new _Functor(std::move(__f)); }
   d879a:	2014      	movs	r0, #20
   d879c:	f7fb fc7b 	bl	d4096 <_Znwj>
   d87a0:	4604      	mov	r4, r0
   d87a2:	b178      	cbz	r0, d87c4 <_ZN12_GLOBAL__N_125publishCompletionCallbackEiPKvPvS2_+0xdc>
    _Function_base() : _M_manager(nullptr) { }
   d87a4:	6087      	str	r7, [r0, #8]
	std::swap(_M_functor, __x._M_functor);
   d87a6:	4601      	mov	r1, r0
   d87a8:	a803      	add	r0, sp, #12
   d87aa:	f7ff fdd5 	bl	d8358 <_ZSt4swapISt9_Any_dataENSt9enable_ifIXsrSt6__and_IJSt6__not_ISt15__is_tuple_likeIT_EESt21is_move_constructibleIS5_ESt18is_move_assignableIS5_EEE5valueEvE4typeERS5_SF_>
      _Tp __tmp = _GLIBCXX_MOVE(__a);
   d87ae:	9b05      	ldr	r3, [sp, #20]
      __a = _GLIBCXX_MOVE(__b);
   d87b0:	68a2      	ldr	r2, [r4, #8]
      __b = _GLIBCXX_MOVE(__tmp);
   d87b2:	60a3      	str	r3, [r4, #8]
      _Tp __tmp = _GLIBCXX_MOVE(__a);
   d87b4:	9b06      	ldr	r3, [sp, #24]
      __a = _GLIBCXX_MOVE(__b);
   d87b6:	9205      	str	r2, [sp, #20]
   d87b8:	68e2      	ldr	r2, [r4, #12]
      __b = _GLIBCXX_MOVE(__tmp);
   d87ba:	60e3      	str	r3, [r4, #12]
   d87bc:	f89d 301c 	ldrb.w	r3, [sp, #28]
      __a = _GLIBCXX_MOVE(__b);
   d87c0:	9206      	str	r2, [sp, #24]
   d87c2:	7423      	strb	r3, [r4, #16]
	    _M_invoker = &_My_handler::_M_invoke;
   d87c4:	4b06      	ldr	r3, [pc, #24]	; (d87e0 <_ZN12_GLOBAL__N_125publishCompletionCallbackEiPKvPvS2_+0xf8>)
   d87c6:	60eb      	str	r3, [r5, #12]
	    _M_manager = &_My_handler::_M_manager;
   d87c8:	4b06      	ldr	r3, [pc, #24]	; (d87e4 <_ZN12_GLOBAL__N_125publishCompletionCallbackEiPKvPvS2_+0xfc>)
	{ __functor._M_access<_Functor*>() = new _Functor(std::move(__f)); }
   d87ca:	602c      	str	r4, [r5, #0]
	    _M_manager = &_My_handler::_M_manager;
   d87cc:	60ab      	str	r3, [r5, #8]
    class function<_Res(_ArgTypes...)>
   d87ce:	a803      	add	r0, sp, #12
   d87d0:	f7fb fd98 	bl	d4304 <_ZNSt14_Function_baseD1Ev>
        return (application_thread_invoke(callback, data, nullptr) == 0);
   d87d4:	2200      	movs	r2, #0
   d87d6:	4629      	mov	r1, r5
   d87d8:	4803      	ldr	r0, [pc, #12]	; (d87e8 <_ZN12_GLOBAL__N_125publishCompletionCallbackEiPKvPvS2_+0x100>)
   d87da:	f7ff fa15 	bl	d7c08 <application_thread_invoke>
   d87de:	e7c7      	b.n	d8770 <_ZN12_GLOBAL__N_125publishCompletionCallbackEiPKvPvS2_+0x88>
   d87e0:	000d83af 	.word	0x000d83af
   d87e4:	000d869f 	.word	0x000d869f
   d87e8:	000d7f2b 	.word	0x000d7f2b

000d87ec <_ZN5spark13EthernetClass9listeningEv>:
    uint16_t getListenTimeout(void) {
        return network_get_listen_timeout(*this, 0, NULL);
    }

    bool listening(void) {
        return network_listening(*this, 0, NULL);
   d87ec:	2200      	movs	r2, #0
   d87ee:	6840      	ldr	r0, [r0, #4]
   d87f0:	4611      	mov	r1, r2
   d87f2:	f7ff bafb 	b.w	d7dec <network_listening>

000d87f6 <_ZN5spark13EthernetClass16getListenTimeoutEv>:
        return network_get_listen_timeout(*this, 0, NULL);
   d87f6:	2200      	movs	r2, #0
   d87f8:	6840      	ldr	r0, [r0, #4]
   d87fa:	4611      	mov	r1, r2
   d87fc:	f7ff bb06 	b.w	d7e0c <network_get_listen_timeout>

000d8800 <_ZN5spark13EthernetClass16setListenTimeoutEt>:
        network_set_listen_timeout(*this, timeout, NULL);
   d8800:	6840      	ldr	r0, [r0, #4]
   d8802:	2200      	movs	r2, #0
   d8804:	f7ff bafa 	b.w	d7dfc <network_set_listen_timeout>

000d8808 <_ZN5spark13EthernetClass6listenEb>:
        network_listen(*this, begin ? 0 : 1, NULL);
   d8808:	6840      	ldr	r0, [r0, #4]
   d880a:	2200      	movs	r2, #0
   d880c:	f081 0101 	eor.w	r1, r1, #1
   d8810:	f7ff bae4 	b.w	d7ddc <network_listen>

000d8814 <_ZN5spark13EthernetClass3offEv>:
        network_off(*this, 0, 0, NULL);
   d8814:	2300      	movs	r3, #0
   d8816:	6840      	ldr	r0, [r0, #4]
   d8818:	461a      	mov	r2, r3
   d881a:	4619      	mov	r1, r3
   d881c:	f7ff bad6 	b.w	d7dcc <network_off>

000d8820 <_ZN5spark13EthernetClass2onEv>:
        network_on(*this, 0, 0, NULL);
   d8820:	2300      	movs	r3, #0
   d8822:	6840      	ldr	r0, [r0, #4]
   d8824:	461a      	mov	r2, r3
   d8826:	4619      	mov	r1, r3
   d8828:	f7ff bac8 	b.w	d7dbc <network_on>

000d882c <_ZN5spark13EthernetClass5readyEv>:
    }

    bool ready() {
        return network_ready(*this, 0,  NULL);
   d882c:	2200      	movs	r2, #0
   d882e:	6840      	ldr	r0, [r0, #4]
   d8830:	4611      	mov	r1, r2
   d8832:	f7ff babb 	b.w	d7dac <network_ready>

000d8836 <_ZN5spark13EthernetClass10connectingEv>:
        return network_connecting(*this, 0, NULL);
   d8836:	2200      	movs	r2, #0
   d8838:	6840      	ldr	r0, [r0, #4]
   d883a:	4611      	mov	r1, r2
   d883c:	f7ff baa6 	b.w	d7d8c <network_connecting>

000d8840 <_ZN5spark13EthernetClass10disconnectEv>:
        network_disconnect(*this, NETWORK_DISCONNECT_REASON_USER, NULL);
   d8840:	6840      	ldr	r0, [r0, #4]
   d8842:	2200      	movs	r2, #0
   d8844:	2102      	movs	r1, #2
   d8846:	f7ff baa9 	b.w	d7d9c <network_disconnect>

000d884a <_ZN5spark13EthernetClass7connectEj>:
        network_connect(*this, flags, 0, NULL);
   d884a:	2300      	movs	r3, #0
   d884c:	6840      	ldr	r0, [r0, #4]
   d884e:	461a      	mov	r2, r3
   d8850:	f7ff ba94 	b.w	d7d7c <network_connect>

000d8854 <_GLOBAL__sub_I__ZN5spark8EthernetE>:
   d8854:	4b02      	ldr	r3, [pc, #8]	; (d8860 <_GLOBAL__sub_I__ZN5spark8EthernetE+0xc>)
   d8856:	2203      	movs	r2, #3
   d8858:	605a      	str	r2, [r3, #4]
            NetworkClass(NETWORK_INTERFACE_ETHERNET) {
   d885a:	4a02      	ldr	r2, [pc, #8]	; (d8864 <_GLOBAL__sub_I__ZN5spark8EthernetE+0x10>)
   d885c:	601a      	str	r2, [r3, #0]

namespace spark {

EthernetClass Ethernet;

} // spark
   d885e:	4770      	bx	lr
   d8860:	2003e5cc 	.word	0x2003e5cc
   d8864:	000de784 	.word	0x000de784

000d8868 <_ZN9FuelGauge4lockEv>:
    CHECK_TRUE(i2c_.endTransmission(true) == 0, SYSTEM_ERROR_TIMEOUT);
    return SYSTEM_ERROR_NONE;
}

bool FuelGauge::lock() {
    return i2c_.lock();
   d8868:	6800      	ldr	r0, [r0, #0]
   d886a:	f000 b957 	b.w	d8b1c <_ZN7TwoWire4lockEv>

000d886e <_ZN9FuelGaugeC1ER7TwoWireb>:
FuelGauge::FuelGauge(TwoWire& i2c, bool _lock)
   d886e:	b510      	push	{r4, lr}
   d8870:	4604      	mov	r4, r0
      lock_(_lock) {
   d8872:	6001      	str	r1, [r0, #0]
   d8874:	7102      	strb	r2, [r0, #4]
    if (lock_) {
   d8876:	b10a      	cbz	r2, d887c <_ZN9FuelGaugeC1ER7TwoWireb+0xe>
        lock();
   d8878:	f7ff fff6 	bl	d8868 <_ZN9FuelGauge4lockEv>
}
   d887c:	4620      	mov	r0, r4
   d887e:	bd10      	pop	{r4, pc}

000d8880 <_ZN9FuelGaugeC1Eb>:
FuelGauge::FuelGauge(bool _lock)
   d8880:	b513      	push	{r0, r1, r4, lr}
   d8882:	4604      	mov	r4, r0
   d8884:	9101      	str	r1, [sp, #4]
            return &Wire1;
   d8886:	f002 fbfb 	bl	db080 <_Z20__fetch_global_Wire1v>
        : FuelGauge(*fuelWireInstance(), _lock)
   d888a:	9a01      	ldr	r2, [sp, #4]
            return &Wire1;
   d888c:	4601      	mov	r1, r0
        : FuelGauge(*fuelWireInstance(), _lock)
   d888e:	4620      	mov	r0, r4
   d8890:	f7ff ffed 	bl	d886e <_ZN9FuelGaugeC1ER7TwoWireb>
}
   d8894:	4620      	mov	r0, r4
   d8896:	b002      	add	sp, #8
   d8898:	bd10      	pop	{r4, pc}

000d889a <_ZN9FuelGauge6unlockEv>:
}

bool FuelGauge::unlock() {
    return i2c_.unlock();
   d889a:	6800      	ldr	r0, [r0, #0]
   d889c:	f000 b947 	b.w	d8b2e <_ZN7TwoWire6unlockEv>

000d88a0 <_ZN9FuelGaugeD1Ev>:
FuelGauge::~FuelGauge()
   d88a0:	b510      	push	{r4, lr}
    if (lock_) {
   d88a2:	7903      	ldrb	r3, [r0, #4]
FuelGauge::~FuelGauge()
   d88a4:	4604      	mov	r4, r0
    if (lock_) {
   d88a6:	b10b      	cbz	r3, d88ac <_ZN9FuelGaugeD1Ev+0xc>
        unlock();
   d88a8:	f7ff fff7 	bl	d889a <_ZN9FuelGauge6unlockEv>
}
   d88ac:	4620      	mov	r0, r4
   d88ae:	bd10      	pop	{r4, pc}

000d88b0 <_ZN9FuelGauge12readRegisterEhRhS0_>:
int FuelGauge::readRegister(byte startAddress, byte &MSB, byte &LSB) {
   d88b0:	e92d 41ff 	stmdb	sp!, {r0, r1, r2, r3, r4, r5, r6, r7, r8, lr}
   d88b4:	4604      	mov	r4, r0
   d88b6:	460d      	mov	r5, r1
   d88b8:	4617      	mov	r7, r2
   d88ba:	461e      	mov	r6, r3
   d88bc:	f7ff ffd4 	bl	d8868 <_ZN9FuelGauge4lockEv>
public:
  WireTransmission(uint8_t address)
      : address_{address},
        size_{0},
        stop_{true},
        timeout_{HAL_I2C_DEFAULT_TIMEOUT_MS} {
   d88c0:	2336      	movs	r3, #54	; 0x36
   d88c2:	f88d 3000 	strb.w	r3, [sp]
   d88c6:	2300      	movs	r3, #0
    i2c_.beginTransmission(config);
   d88c8:	6820      	ldr	r0, [r4, #0]
   d88ca:	9301      	str	r3, [sp, #4]
   d88cc:	f04f 0801 	mov.w	r8, #1
    size_ = size;
    return *this;
  }

  WireTransmission& timeout(system_tick_t ms) {
    timeout_ = ms;
   d88d0:	230a      	movs	r3, #10
   d88d2:	4669      	mov	r1, sp
   d88d4:	9303      	str	r3, [sp, #12]
        timeout_{HAL_I2C_DEFAULT_TIMEOUT_MS} {
   d88d6:	f88d 8008 	strb.w	r8, [sp, #8]
   d88da:	f000 f903 	bl	d8ae4 <_ZN7TwoWire17beginTransmissionERK16WireTransmission>
    i2c_.write(startAddress);
   d88de:	6820      	ldr	r0, [r4, #0]
   d88e0:	6803      	ldr	r3, [r0, #0]
   d88e2:	4629      	mov	r1, r5
   d88e4:	689b      	ldr	r3, [r3, #8]
   d88e6:	4798      	blx	r3
    CHECK_TRUE(i2c_.endTransmission(true) == 0, SYSTEM_ERROR_TIMEOUT);
   d88e8:	6820      	ldr	r0, [r4, #0]
   d88ea:	4641      	mov	r1, r8
   d88ec:	f000 f912 	bl	d8b14 <_ZN7TwoWire15endTransmissionEh>
   d88f0:	4605      	mov	r5, r0
   d88f2:	b140      	cbz	r0, d8906 <_ZN9FuelGauge12readRegisterEhRhS0_+0x56>
   d88f4:	f06f 059f 	mvn.w	r5, #159	; 0x9f
      { _M_device.unlock(); }
   d88f8:	4620      	mov	r0, r4
   d88fa:	f7ff ffce 	bl	d889a <_ZN9FuelGauge6unlockEv>
}
   d88fe:	4628      	mov	r0, r5
   d8900:	b004      	add	sp, #16
   d8902:	e8bd 81f0 	ldmia.w	sp!, {r4, r5, r6, r7, r8, pc}
    size_ = size;
   d8906:	2302      	movs	r3, #2
    CHECK_TRUE(i2c_.requestFrom(config) == 2, SYSTEM_ERROR_TIMEOUT);
   d8908:	6820      	ldr	r0, [r4, #0]
   d890a:	9301      	str	r3, [sp, #4]
   d890c:	4669      	mov	r1, sp
   d890e:	f000 f8b9 	bl	d8a84 <_ZN7TwoWire11requestFromERK16WireTransmission>
   d8912:	2802      	cmp	r0, #2
   d8914:	d1ee      	bne.n	d88f4 <_ZN9FuelGauge12readRegisterEhRhS0_+0x44>
    MSB = i2c_.read();
   d8916:	6820      	ldr	r0, [r4, #0]
   d8918:	6803      	ldr	r3, [r0, #0]
   d891a:	695b      	ldr	r3, [r3, #20]
   d891c:	4798      	blx	r3
   d891e:	7038      	strb	r0, [r7, #0]
    LSB = i2c_.read();
   d8920:	6820      	ldr	r0, [r4, #0]
   d8922:	6803      	ldr	r3, [r0, #0]
   d8924:	695b      	ldr	r3, [r3, #20]
   d8926:	4798      	blx	r3
   d8928:	7030      	strb	r0, [r6, #0]
    return SYSTEM_ERROR_NONE;
   d892a:	e7e5      	b.n	d88f8 <_ZN9FuelGauge12readRegisterEhRhS0_+0x48>

000d892c <_ZN9FuelGauge18readConfigRegisterERhS0_>:
int FuelGauge::readConfigRegister(byte &MSB, byte &LSB) {
   d892c:	4613      	mov	r3, r2
    return readRegister(CONFIG_REGISTER, MSB, LSB);
   d892e:	460a      	mov	r2, r1
   d8930:	210c      	movs	r1, #12
   d8932:	f7ff bfbd 	b.w	d88b0 <_ZN9FuelGauge12readRegisterEhRhS0_>

000d8936 <_ZN9FuelGauge13writeRegisterEhhh>:
int FuelGauge::writeRegister(byte address, byte MSB, byte LSB) {
   d8936:	e92d 41ff 	stmdb	sp!, {r0, r1, r2, r3, r4, r5, r6, r7, r8, lr}
   d893a:	4616      	mov	r6, r2
   d893c:	4604      	mov	r4, r0
   d893e:	461d      	mov	r5, r3
   d8940:	460f      	mov	r7, r1
      { _M_device.lock(); }
   d8942:	f7ff ff91 	bl	d8868 <_ZN9FuelGauge4lockEv>
        timeout_{HAL_I2C_DEFAULT_TIMEOUT_MS} {
   d8946:	2336      	movs	r3, #54	; 0x36
   d8948:	f88d 3000 	strb.w	r3, [sp]
   d894c:	2300      	movs	r3, #0
    i2c_.beginTransmission(config);
   d894e:	6820      	ldr	r0, [r4, #0]
   d8950:	9301      	str	r3, [sp, #4]
   d8952:	f04f 0801 	mov.w	r8, #1
    timeout_ = ms;
   d8956:	230a      	movs	r3, #10
   d8958:	4669      	mov	r1, sp
   d895a:	9303      	str	r3, [sp, #12]
        timeout_{HAL_I2C_DEFAULT_TIMEOUT_MS} {
   d895c:	f88d 8008 	strb.w	r8, [sp, #8]
   d8960:	f000 f8c0 	bl	d8ae4 <_ZN7TwoWire17beginTransmissionERK16WireTransmission>
    i2c_.write(address);
   d8964:	6820      	ldr	r0, [r4, #0]
   d8966:	6803      	ldr	r3, [r0, #0]
   d8968:	4639      	mov	r1, r7
   d896a:	689b      	ldr	r3, [r3, #8]
   d896c:	4798      	blx	r3
    i2c_.write(MSB);
   d896e:	6820      	ldr	r0, [r4, #0]
   d8970:	6803      	ldr	r3, [r0, #0]
   d8972:	4631      	mov	r1, r6
   d8974:	689b      	ldr	r3, [r3, #8]
   d8976:	4798      	blx	r3
    i2c_.write(LSB);
   d8978:	6820      	ldr	r0, [r4, #0]
   d897a:	6803      	ldr	r3, [r0, #0]
   d897c:	4629      	mov	r1, r5
   d897e:	689b      	ldr	r3, [r3, #8]
   d8980:	4798      	blx	r3
    CHECK_TRUE(i2c_.endTransmission(true) == 0, SYSTEM_ERROR_TIMEOUT);
   d8982:	4641      	mov	r1, r8
   d8984:	6820      	ldr	r0, [r4, #0]
   d8986:	f000 f8c5 	bl	d8b14 <_ZN7TwoWire15endTransmissionEh>
   d898a:	2800      	cmp	r0, #0
      { _M_device.unlock(); }
   d898c:	4620      	mov	r0, r4
   d898e:	bf0c      	ite	eq
   d8990:	2500      	moveq	r5, #0
   d8992:	f06f 059f 	mvnne.w	r5, #159	; 0x9f
   d8996:	f7ff ff80 	bl	d889a <_ZN9FuelGauge6unlockEv>
}
   d899a:	4628      	mov	r0, r5
   d899c:	b004      	add	sp, #16
   d899e:	e8bd 81f0 	ldmia.w	sp!, {r4, r5, r6, r7, r8, pc}

000d89a2 <_ZN9FuelGauge10quickStartEv>:
int FuelGauge::quickStart() {
   d89a2:	b508      	push	{r3, lr}
    CHECK(writeRegister(MODE_REGISTER, 0x40, 0x00));
   d89a4:	2240      	movs	r2, #64	; 0x40
   d89a6:	2300      	movs	r3, #0
   d89a8:	2106      	movs	r1, #6
   d89aa:	f7ff ffc4 	bl	d8936 <_ZN9FuelGauge13writeRegisterEhhh>
}
   d89ae:	ea00 70e0 	and.w	r0, r0, r0, asr #31
   d89b2:	bd08      	pop	{r3, pc}

000d89b4 <_ZN9FuelGauge6wakeupEv>:
int FuelGauge::wakeup() {
   d89b4:	b537      	push	{r0, r1, r2, r4, r5, lr}
   d89b6:	4605      	mov	r5, r0
      { _M_device.lock(); }
   d89b8:	f7ff ff56 	bl	d8868 <_ZN9FuelGauge4lockEv>
    byte MSB = 0;
   d89bc:	2300      	movs	r3, #0
    CHECK(readConfigRegister(MSB, LSB));
   d89be:	f10d 0207 	add.w	r2, sp, #7
   d89c2:	f10d 0106 	add.w	r1, sp, #6
   d89c6:	4628      	mov	r0, r5
    byte MSB = 0;
   d89c8:	f88d 3006 	strb.w	r3, [sp, #6]
    byte LSB = 0;
   d89cc:	f88d 3007 	strb.w	r3, [sp, #7]
    CHECK(readConfigRegister(MSB, LSB));
   d89d0:	f7ff ffac 	bl	d892c <_ZN9FuelGauge18readConfigRegisterERhS0_>
   d89d4:	1e04      	subs	r4, r0, #0
   d89d6:	db0b      	blt.n	d89f0 <_ZN9FuelGauge6wakeupEv+0x3c>
    CHECK(writeRegister(CONFIG_REGISTER, MSB, (LSB & 0b01111111)));
   d89d8:	f89d 3007 	ldrb.w	r3, [sp, #7]
   d89dc:	f89d 2006 	ldrb.w	r2, [sp, #6]
   d89e0:	f003 037f 	and.w	r3, r3, #127	; 0x7f
   d89e4:	210c      	movs	r1, #12
   d89e6:	4628      	mov	r0, r5
   d89e8:	f7ff ffa5 	bl	d8936 <_ZN9FuelGauge13writeRegisterEhhh>
   d89ec:	ea00 74e0 	and.w	r4, r0, r0, asr #31
      { _M_device.unlock(); }
   d89f0:	4628      	mov	r0, r5
   d89f2:	f7ff ff52 	bl	d889a <_ZN9FuelGauge6unlockEv>
}
   d89f6:	4620      	mov	r0, r4
   d89f8:	b003      	add	sp, #12
   d89fa:	bd30      	pop	{r4, r5, pc}

000d89fc <_ZN7TwoWireD1Ev>:
private:
  hal_i2c_interface_t _i2c;

public:
  TwoWire(hal_i2c_interface_t i2c, const hal_i2c_config_t& config);
  virtual ~TwoWire() {};
   d89fc:	4770      	bx	lr

000d89fe <_ZN7TwoWire5writeEPKhj>:

// must be called in:
// slave tx event callback
// or after beginTransmission(address)
size_t TwoWire::write(const uint8_t *data, size_t quantity)
{
   d89fe:	b5f8      	push	{r3, r4, r5, r6, r7, lr}
   d8a00:	4606      	mov	r6, r0
   d8a02:	4615      	mov	r5, r2
   d8a04:	460c      	mov	r4, r1
   d8a06:	188f      	adds	r7, r1, r2
  // in master/slave transmitter mode
  for(size_t i = 0; i < quantity; ++i)
   d8a08:	42bc      	cmp	r4, r7
   d8a0a:	d006      	beq.n	d8a1a <_ZN7TwoWire5writeEPKhj+0x1c>
  {
    write(data[i]);
   d8a0c:	6833      	ldr	r3, [r6, #0]
   d8a0e:	f814 1b01 	ldrb.w	r1, [r4], #1
   d8a12:	689b      	ldr	r3, [r3, #8]
   d8a14:	4630      	mov	r0, r6
   d8a16:	4798      	blx	r3
  for(size_t i = 0; i < quantity; ++i)
   d8a18:	e7f6      	b.n	d8a08 <_ZN7TwoWire5writeEPKhj+0xa>
  }

  return quantity;
}
   d8a1a:	4628      	mov	r0, r5
   d8a1c:	bdf8      	pop	{r3, r4, r5, r6, r7, pc}

000d8a1e <_ZN7TwoWire5writeEh>:
  return hal_i2c_write(_i2c, data, NULL);
   d8a1e:	7c00      	ldrb	r0, [r0, #16]
   d8a20:	2200      	movs	r2, #0
   d8a22:	f7fe bf87 	b.w	d7934 <hal_i2c_write>

000d8a26 <_ZN7TwoWire9availableEv>:
// must be called in:
// slave rx event callback
// or after requestFrom(address, numBytes)
int TwoWire::available(void)
{
  return hal_i2c_available(_i2c, NULL);
   d8a26:	7c00      	ldrb	r0, [r0, #16]
   d8a28:	2100      	movs	r1, #0
   d8a2a:	f7fe bf8b 	b.w	d7944 <hal_i2c_available>

000d8a2e <_ZN7TwoWire4readEv>:
// must be called in:
// slave rx event callback
// or after requestFrom(address, numBytes)
int TwoWire::read(void)
{
  return hal_i2c_read(_i2c, NULL);
   d8a2e:	7c00      	ldrb	r0, [r0, #16]
   d8a30:	2100      	movs	r1, #0
   d8a32:	f7fe bf8f 	b.w	d7954 <hal_i2c_read>

000d8a36 <_ZN7TwoWire4peekEv>:
// must be called in:
// slave rx event callback
// or after requestFrom(address, numBytes)
int TwoWire::peek(void)
{
  return hal_i2c_peek(_i2c, NULL);
   d8a36:	7c00      	ldrb	r0, [r0, #16]
   d8a38:	2100      	movs	r1, #0
   d8a3a:	f7fe bf93 	b.w	d7964 <hal_i2c_peek>

000d8a3e <_ZN7TwoWire5flushEv>:
}

void TwoWire::flush(void)
{
  hal_i2c_flush(_i2c, NULL);
   d8a3e:	7c00      	ldrb	r0, [r0, #16]
   d8a40:	2100      	movs	r1, #0
   d8a42:	f7fe bf97 	b.w	d7974 <hal_i2c_flush>

000d8a46 <_ZN7TwoWireD0Ev>:
   d8a46:	b510      	push	{r4, lr}
   d8a48:	2114      	movs	r1, #20
   d8a4a:	4604      	mov	r4, r0
   d8a4c:	f002 fb45 	bl	db0da <_ZdlPvj>
   d8a50:	4620      	mov	r0, r4
   d8a52:	bd10      	pop	{r4, pc}

000d8a54 <_ZN7TwoWireC1E19hal_i2c_interface_tRK16hal_i2c_config_t>:
TwoWire::TwoWire(hal_i2c_interface_t i2c, const hal_i2c_config_t& conf)
   d8a54:	b510      	push	{r4, lr}
    virtual int available() = 0;
    virtual int read() = 0;
    virtual int peek() = 0;
    virtual void flush() = 0;

    Stream() {_timeout=1000;}
   d8a56:	f44f 737a 	mov.w	r3, #1000	; 0x3e8
   d8a5a:	4604      	mov	r4, r0
   d8a5c:	4608      	mov	r0, r1
   d8a5e:	2100      	movs	r1, #0
   d8a60:	e9c4 1301 	strd	r1, r3, [r4, #4]
   d8a64:	4b03      	ldr	r3, [pc, #12]	; (d8a74 <_ZN7TwoWireC1E19hal_i2c_interface_tRK16hal_i2c_config_t+0x20>)
   d8a66:	6023      	str	r3, [r4, #0]
  _i2c = i2c;
   d8a68:	7420      	strb	r0, [r4, #16]
  hal_i2c_init(_i2c, &conf);
   d8a6a:	4611      	mov	r1, r2
   d8a6c:	f7fe ff92 	bl	d7994 <hal_i2c_init>
}
   d8a70:	4620      	mov	r0, r4
   d8a72:	bd10      	pop	{r4, pc}
   d8a74:	000de7c0 	.word	0x000de7c0

000d8a78 <_ZN7TwoWire5beginEv>:
	hal_i2c_begin(_i2c, I2C_MODE_MASTER, 0x00, NULL);
   d8a78:	2300      	movs	r3, #0
   d8a7a:	7c00      	ldrb	r0, [r0, #16]
   d8a7c:	461a      	mov	r2, r3
   d8a7e:	4619      	mov	r1, r3
   d8a80:	f7fe bf40 	b.w	d7904 <hal_i2c_begin>

000d8a84 <_ZN7TwoWire11requestFromERK16WireTransmission>:
size_t TwoWire::requestFrom(const WireTransmission& transfer) {
   d8a84:	b57f      	push	{r0, r1, r2, r3, r4, r5, r6, lr}
    hal_i2c_transmission_config_t conf = {
   d8a86:	2200      	movs	r2, #0
   d8a88:	2314      	movs	r3, #20
   d8a8a:	e9cd 2201 	strd	r2, r2, [sp, #4]
   d8a8e:	f8ad 3004 	strh.w	r3, [sp, #4]
    };
   d8a92:	780b      	ldrb	r3, [r1, #0]
   d8a94:	f88d 3008 	strb.w	r3, [sp, #8]
   d8a98:	684b      	ldr	r3, [r1, #4]
   d8a9a:	9303      	str	r3, [sp, #12]
   d8a9c:	68cb      	ldr	r3, [r1, #12]
   d8a9e:	9304      	str	r3, [sp, #16]
  return hal_i2c_request_ex(_i2c, &conf, nullptr);
   d8aa0:	7c00      	ldrb	r0, [r0, #16]
      .flags = (uint32_t)(stop_ ? HAL_I2C_TRANSMISSION_FLAG_STOP : 0)
   d8aa2:	7a0b      	ldrb	r3, [r1, #8]
   d8aa4:	9305      	str	r3, [sp, #20]
   d8aa6:	a901      	add	r1, sp, #4
   d8aa8:	f7fe ff8c 	bl	d79c4 <hal_i2c_request_ex>
}
   d8aac:	b007      	add	sp, #28
   d8aae:	f85d fb04 	ldr.w	pc, [sp], #4

000d8ab2 <_ZN7TwoWire11requestFromEhjh>:
{
   d8ab2:	b51f      	push	{r0, r1, r2, r3, r4, lr}
  return requestFrom(WireTransmission(address).quantity(quantity).stop(sendStop));
   d8ab4:	3b00      	subs	r3, #0
        timeout_{HAL_I2C_DEFAULT_TIMEOUT_MS} {
   d8ab6:	f88d 1000 	strb.w	r1, [sp]
   d8aba:	f04f 0164 	mov.w	r1, #100	; 0x64
   d8abe:	9103      	str	r1, [sp, #12]
   d8ac0:	bf18      	it	ne
   d8ac2:	2301      	movne	r3, #1
   d8ac4:	4669      	mov	r1, sp
    size_ = size;
   d8ac6:	9201      	str	r2, [sp, #4]
   d8ac8:	f88d 3008 	strb.w	r3, [sp, #8]
   d8acc:	f7ff ffda 	bl	d8a84 <_ZN7TwoWire11requestFromERK16WireTransmission>
}
   d8ad0:	b005      	add	sp, #20
   d8ad2:	f85d fb04 	ldr.w	pc, [sp], #4

000d8ad6 <_ZN7TwoWire17beginTransmissionEh>:
	hal_i2c_begin_transmission(_i2c, address, NULL);
   d8ad6:	7c00      	ldrb	r0, [r0, #16]
   d8ad8:	2200      	movs	r2, #0
   d8ada:	f7fe bf1b 	b.w	d7914 <hal_i2c_begin_transmission>

000d8ade <_ZN7TwoWire17beginTransmissionEi>:
  beginTransmission((uint8_t)address);
   d8ade:	b2c9      	uxtb	r1, r1
   d8ae0:	f7ff bff9 	b.w	d8ad6 <_ZN7TwoWire17beginTransmissionEh>

000d8ae4 <_ZN7TwoWire17beginTransmissionERK16WireTransmission>:
void TwoWire::beginTransmission(const WireTransmission& transfer) {
   d8ae4:	b57f      	push	{r0, r1, r2, r3, r4, r5, r6, lr}
    hal_i2c_transmission_config_t conf = {
   d8ae6:	2300      	movs	r3, #0
   d8ae8:	e9cd 3301 	strd	r3, r3, [sp, #4]
    };
   d8aec:	684a      	ldr	r2, [r1, #4]
   d8aee:	9203      	str	r2, [sp, #12]
    hal_i2c_transmission_config_t conf = {
   d8af0:	2314      	movs	r3, #20
    };
   d8af2:	68ca      	ldr	r2, [r1, #12]
    hal_i2c_transmission_config_t conf = {
   d8af4:	f8ad 3004 	strh.w	r3, [sp, #4]
      .address = address_,
   d8af8:	780b      	ldrb	r3, [r1, #0]
    };
   d8afa:	9204      	str	r2, [sp, #16]
      .flags = (uint32_t)(stop_ ? HAL_I2C_TRANSMISSION_FLAG_STOP : 0)
   d8afc:	7a0a      	ldrb	r2, [r1, #8]
   d8afe:	9205      	str	r2, [sp, #20]
  hal_i2c_begin_transmission(_i2c, conf.address, &conf);
   d8b00:	7c00      	ldrb	r0, [r0, #16]
    };
   d8b02:	f88d 3008 	strb.w	r3, [sp, #8]
   d8b06:	aa01      	add	r2, sp, #4
   d8b08:	4619      	mov	r1, r3
   d8b0a:	f7fe ff03 	bl	d7914 <hal_i2c_begin_transmission>
}
   d8b0e:	b007      	add	sp, #28
   d8b10:	f85d fb04 	ldr.w	pc, [sp], #4

000d8b14 <_ZN7TwoWire15endTransmissionEh>:
	return hal_i2c_end_transmission(_i2c, sendStop, NULL);
   d8b14:	7c00      	ldrb	r0, [r0, #16]
   d8b16:	2200      	movs	r2, #0
   d8b18:	f7fe bf04 	b.w	d7924 <hal_i2c_end_transmission>

000d8b1c <_ZN7TwoWire4lockEv>:
{
  hal_i2c_reset(_i2c, 0, NULL);
}

bool TwoWire::lock()
{
   d8b1c:	b508      	push	{r3, lr}
  return hal_i2c_lock(_i2c, NULL) == 0;
   d8b1e:	2100      	movs	r1, #0
   d8b20:	7c00      	ldrb	r0, [r0, #16]
   d8b22:	f7fe ff3f 	bl	d79a4 <hal_i2c_lock>
}
   d8b26:	fab0 f080 	clz	r0, r0
   d8b2a:	0940      	lsrs	r0, r0, #5
   d8b2c:	bd08      	pop	{r3, pc}

000d8b2e <_ZN7TwoWire6unlockEv>:

bool TwoWire::unlock()
{
   d8b2e:	b508      	push	{r3, lr}
  return hal_i2c_unlock(_i2c, NULL) == 0;
   d8b30:	2100      	movs	r1, #0
   d8b32:	7c00      	ldrb	r0, [r0, #16]
   d8b34:	f7fe ff3e 	bl	d79b4 <hal_i2c_unlock>
}
   d8b38:	fab0 f080 	clz	r0, r0
   d8b3c:	0940      	lsrs	r0, r0, #5
   d8b3e:	bd08      	pop	{r3, pc}

000d8b40 <_ZN9IPAddressD1Ev>:
    IPAddress(uint8_t first_octet, uint8_t second_octet, uint8_t third_octet, uint8_t fourth_octet);
    IPAddress(uint32_t address);
    IPAddress(const uint8_t* address);
    IPAddress(const HAL_IPAddress& address);

    virtual ~IPAddress() {}
   d8b40:	4770      	bx	lr

000d8b42 <_ZN9IPAddressD0Ev>:
   d8b42:	b510      	push	{r4, lr}
   d8b44:	2118      	movs	r1, #24
   d8b46:	4604      	mov	r4, r0
   d8b48:	f002 fac7 	bl	db0da <_ZdlPvj>
   d8b4c:	4620      	mov	r0, r4
   d8b4e:	bd10      	pop	{r4, pc}

000d8b50 <_ZNK9IPAddress7printToER5Print>:
#endif // Wiring_IPv6
	return address.ipv4==that.address.ipv4;
}

size_t IPAddress::printTo(Print& p) const
{
   d8b50:	b5f0      	push	{r4, r5, r6, r7, lr}
#if Wiring_IPv6
#if HAL_USE_INET_HAL_POSIX
	if (address.v==6) {
   d8b52:	7d03      	ldrb	r3, [r0, #20]
   d8b54:	2b06      	cmp	r3, #6
{
   d8b56:	b08d      	sub	sp, #52	; 0x34
   d8b58:	460e      	mov	r6, r1
   d8b5a:	f100 0704 	add.w	r7, r0, #4
   d8b5e:	f04f 0400 	mov.w	r4, #0
	if (address.v==6) {
   d8b62:	d012      	beq.n	d8b8a <_ZNK9IPAddress7printToER5Print+0x3a>
   d8b64:	f100 0508 	add.w	r5, r0, #8
        return printNumber(val, base) + t;
   d8b68:	f815 1d01 	ldrb.w	r1, [r5, #-1]!
   d8b6c:	220a      	movs	r2, #10
   d8b6e:	4630      	mov	r0, r6
   d8b70:	f001 fb8e 	bl	da290 <_ZN5Print11printNumberEmh>
#else
#pragma message "HAL_USE_INET_HAL_POSIX is required for IPv6 support in IPAddress::printTo()"
#endif // HAL_USE_INET_HAL_POSIX
#endif // Wiring_IPv6
    size_t n = 0;
    for (int i = 0; i < 4; i++)
   d8b74:	42af      	cmp	r7, r5
    {
        if (n)
            n += p.print('.');
        n += p.print((*this)[i], DEC);
   d8b76:	4404      	add	r4, r0
    for (int i = 0; i < 4; i++)
   d8b78:	d019      	beq.n	d8bae <_ZNK9IPAddress7printToER5Print+0x5e>
        if (n)
   d8b7a:	2c00      	cmp	r4, #0
   d8b7c:	d0f4      	beq.n	d8b68 <_ZNK9IPAddress7printToER5Print+0x18>
            n += p.print('.');
   d8b7e:	212e      	movs	r1, #46	; 0x2e
   d8b80:	4630      	mov	r0, r6
   d8b82:	f001 fb76 	bl	da272 <_ZN5Print5printEc>
   d8b86:	4404      	add	r4, r0
   d8b88:	e7ee      	b.n	d8b68 <_ZNK9IPAddress7printToER5Print+0x18>
		inet_inet_ntop(AF_INET6, address.ipv6, buf, sizeof(buf));
   d8b8a:	232f      	movs	r3, #47	; 0x2f
   d8b8c:	466a      	mov	r2, sp
   d8b8e:	4639      	mov	r1, r7
   d8b90:	200a      	movs	r0, #10
		buf[0] = 0;
   d8b92:	f88d 4000 	strb.w	r4, [sp]
		inet_inet_ntop(AF_INET6, address.ipv6, buf, sizeof(buf));
   d8b96:	f7fe ff1d 	bl	d79d4 <inet_inet_ntop>
      return write((const uint8_t *)str, strlen(str));
   d8b9a:	4668      	mov	r0, sp
   d8b9c:	f003 f8e1 	bl	dbd62 <strlen>
   d8ba0:	6833      	ldr	r3, [r6, #0]
   d8ba2:	4602      	mov	r2, r0
   d8ba4:	68db      	ldr	r3, [r3, #12]
   d8ba6:	4669      	mov	r1, sp
   d8ba8:	4630      	mov	r0, r6
   d8baa:	4798      	blx	r3
   d8bac:	4604      	mov	r4, r0
    }
    return n;
}
   d8bae:	4620      	mov	r0, r4
   d8bb0:	b00d      	add	sp, #52	; 0x34
   d8bb2:	bdf0      	pop	{r4, r5, r6, r7, pc}

000d8bb4 <_ZN9IPAddressC1Ev>:
IPAddress::IPAddress()
   d8bb4:	b510      	push	{r4, lr}
   d8bb6:	4b05      	ldr	r3, [pc, #20]	; (d8bcc <_ZN9IPAddressC1Ev+0x18>)
   d8bb8:	4604      	mov	r4, r0
        return address;
    }

    virtual size_t printTo(Print& p) const;

    void clear() { memset(&address, 0, sizeof (address)); }
   d8bba:	2211      	movs	r2, #17
   d8bbc:	f840 3b04 	str.w	r3, [r0], #4
   d8bc0:	2100      	movs	r1, #0
   d8bc2:	f003 f85b 	bl	dbc7c <memset>
}
   d8bc6:	4620      	mov	r0, r4
   d8bc8:	bd10      	pop	{r4, pc}
   d8bca:	bf00      	nop
   d8bcc:	000de7e8 	.word	0x000de7e8

000d8bd0 <_ZN9IPAddressC1ERK16_HAL_IPAddress_t>:
IPAddress::IPAddress(const HAL_IPAddress& address)
   d8bd0:	4603      	mov	r3, r0
   d8bd2:	4a07      	ldr	r2, [pc, #28]	; (d8bf0 <_ZN9IPAddressC1ERK16_HAL_IPAddress_t+0x20>)
   d8bd4:	b510      	push	{r4, lr}
   d8bd6:	f843 2b04 	str.w	r2, [r3], #4
    memcpy(&this->address, &address, sizeof(address));
   d8bda:	f101 0210 	add.w	r2, r1, #16
   d8bde:	f851 4b04 	ldr.w	r4, [r1], #4
   d8be2:	f843 4b04 	str.w	r4, [r3], #4
   d8be6:	4291      	cmp	r1, r2
   d8be8:	d1f9      	bne.n	d8bde <_ZN9IPAddressC1ERK16_HAL_IPAddress_t+0xe>
   d8bea:	780a      	ldrb	r2, [r1, #0]
   d8bec:	701a      	strb	r2, [r3, #0]
}
   d8bee:	bd10      	pop	{r4, pc}
   d8bf0:	000de7e8 	.word	0x000de7e8

000d8bf4 <_ZN9IPAddress8set_ipv4Ehhhh>:
{
   d8bf4:	b510      	push	{r4, lr}
    address.ipv4 = b0<<24 | b1 << 16 | b2 << 8 | b3;
   d8bf6:	f89d 4008 	ldrb.w	r4, [sp, #8]
   d8bfa:	ea44 2303 	orr.w	r3, r4, r3, lsl #8
   d8bfe:	ea43 4202 	orr.w	r2, r3, r2, lsl #16
   d8c02:	ea42 6101 	orr.w	r1, r2, r1, lsl #24
        address.v = version;
   d8c06:	2304      	movs	r3, #4
   d8c08:	6041      	str	r1, [r0, #4]
   d8c0a:	7503      	strb	r3, [r0, #20]
}
   d8c0c:	bd10      	pop	{r4, pc}

000d8c0e <_ZN9IPAddressaSEPKh>:
{
   d8c0e:	b513      	push	{r0, r1, r4, lr}
    set_ipv4(address[0], address[1], address[2], address[3]);
   d8c10:	78cb      	ldrb	r3, [r1, #3]
   d8c12:	9300      	str	r3, [sp, #0]
   d8c14:	788b      	ldrb	r3, [r1, #2]
   d8c16:	784a      	ldrb	r2, [r1, #1]
   d8c18:	7809      	ldrb	r1, [r1, #0]
   d8c1a:	f7ff ffeb 	bl	d8bf4 <_ZN9IPAddress8set_ipv4Ehhhh>
}
   d8c1e:	b002      	add	sp, #8
   d8c20:	bd10      	pop	{r4, pc}

000d8c22 <_ZN12_GLOBAL__N_19skipTokenEPK9jsmntok_t>:

namespace {

// Skips token and all its children tokens if any
const jsmntok_t* skipToken(const jsmntok_t *t) {
    size_t n = 1;
   d8c22:	f100 0310 	add.w	r3, r0, #16
   d8c26:	2201      	movs	r2, #1
    do {
        if (t->type == JSMN_OBJECT) {
   d8c28:	f813 1c10 	ldrb.w	r1, [r3, #-16]
   d8c2c:	2901      	cmp	r1, #1
   d8c2e:	4618      	mov	r0, r3
   d8c30:	d108      	bne.n	d8c44 <_ZN12_GLOBAL__N_19skipTokenEPK9jsmntok_t+0x22>
            n += t->size * 2; // Number of name and value tokens
   d8c32:	f853 1c04 	ldr.w	r1, [r3, #-4]
   d8c36:	eb02 0241 	add.w	r2, r2, r1, lsl #1
        } else if (t->type == JSMN_ARRAY) {
            n += t->size; // Number of value tokens
        }
        ++t;
        --n;
    } while (n);
   d8c3a:	3a01      	subs	r2, #1
   d8c3c:	f103 0310 	add.w	r3, r3, #16
   d8c40:	d1f2      	bne.n	d8c28 <_ZN12_GLOBAL__N_19skipTokenEPK9jsmntok_t+0x6>
    return t;
}
   d8c42:	4770      	bx	lr
        } else if (t->type == JSMN_ARRAY) {
   d8c44:	2902      	cmp	r1, #2
            n += t->size; // Number of value tokens
   d8c46:	bf04      	itt	eq
   d8c48:	f853 1c04 	ldreq.w	r1, [r3, #-4]
   d8c4c:	1852      	addeq	r2, r2, r1
   d8c4e:	e7f4      	b.n	d8c3a <_ZN12_GLOBAL__N_19skipTokenEPK9jsmntok_t+0x18>

000d8c50 <_ZN5spark10JSONWriter6printfEPKcz>:
    write("null", 4);
    state_ = NEXT;
    return *this;
}

void spark::JSONWriter::printf(const char *fmt, ...) {
   d8c50:	b40e      	push	{r1, r2, r3}
   d8c52:	b5f0      	push	{r4, r5, r6, r7, lr}
   d8c54:	b088      	sub	sp, #32
   d8c56:	af00      	add	r7, sp, #0
   d8c58:	f107 0534 	add.w	r5, r7, #52	; 0x34
    char buf[16];
    va_list args;
    va_start(args, fmt);
    int n = vsnprintf(buf, sizeof(buf), fmt, args);
   d8c5c:	2110      	movs	r1, #16
void spark::JSONWriter::printf(const char *fmt, ...) {
   d8c5e:	f855 2b04 	ldr.w	r2, [r5], #4
    int n = vsnprintf(buf, sizeof(buf), fmt, args);
   d8c62:	607a      	str	r2, [r7, #4]
void spark::JSONWriter::printf(const char *fmt, ...) {
   d8c64:	4604      	mov	r4, r0
    int n = vsnprintf(buf, sizeof(buf), fmt, args);
   d8c66:	462b      	mov	r3, r5
   d8c68:	1878      	adds	r0, r7, r1
    va_start(args, fmt);
   d8c6a:	60fd      	str	r5, [r7, #12]
    int n = vsnprintf(buf, sizeof(buf), fmt, args);
   d8c6c:	f7ff f90e 	bl	d7e8c <vsnprintf>
    va_end(args);
    if ((size_t)n >= sizeof(buf)) {
   d8c70:	280f      	cmp	r0, #15
   d8c72:	687a      	ldr	r2, [r7, #4]
   d8c74:	d91a      	bls.n	d8cac <_ZN5spark10JSONWriter6printfEPKcz+0x5c>
        char buf[n + 1]; // Use larger buffer
   d8c76:	f100 0308 	add.w	r3, r0, #8
   d8c7a:	f023 0307 	bic.w	r3, r3, #7
        va_start(args, fmt);
        n = vsnprintf(buf, sizeof(buf), fmt, args);
        va_end(args);
        if (n > 0) {
            write(buf, n);
        }
   d8c7e:	466e      	mov	r6, sp
        char buf[n + 1]; // Use larger buffer
   d8c80:	ebad 0d03 	sub.w	sp, sp, r3
        n = vsnprintf(buf, sizeof(buf), fmt, args);
   d8c84:	1c41      	adds	r1, r0, #1
   d8c86:	462b      	mov	r3, r5
   d8c88:	4668      	mov	r0, sp
        va_start(args, fmt);
   d8c8a:	60fd      	str	r5, [r7, #12]
        n = vsnprintf(buf, sizeof(buf), fmt, args);
   d8c8c:	f7ff f8fe 	bl	d7e8c <vsnprintf>
        if (n > 0) {
   d8c90:	1e02      	subs	r2, r0, #0
   d8c92:	dd04      	ble.n	d8c9e <_ZN5spark10JSONWriter6printfEPKcz+0x4e>
            write(buf, n);
   d8c94:	6823      	ldr	r3, [r4, #0]
   d8c96:	4669      	mov	r1, sp
   d8c98:	689b      	ldr	r3, [r3, #8]
   d8c9a:	4620      	mov	r0, r4
   d8c9c:	4798      	blx	r3
   d8c9e:	46b5      	mov	sp, r6
    } else if (n > 0) {
        write(buf, n);
    }
}
   d8ca0:	3720      	adds	r7, #32
   d8ca2:	46bd      	mov	sp, r7
   d8ca4:	e8bd 40f0 	ldmia.w	sp!, {r4, r5, r6, r7, lr}
   d8ca8:	b003      	add	sp, #12
   d8caa:	4770      	bx	lr
    } else if (n > 0) {
   d8cac:	2800      	cmp	r0, #0
   d8cae:	d0f7      	beq.n	d8ca0 <_ZN5spark10JSONWriter6printfEPKcz+0x50>
        write(buf, n);
   d8cb0:	6823      	ldr	r3, [r4, #0]
   d8cb2:	4602      	mov	r2, r0
   d8cb4:	689b      	ldr	r3, [r3, #8]
   d8cb6:	f107 0110 	add.w	r1, r7, #16
   d8cba:	4620      	mov	r0, r4
   d8cbc:	4798      	blx	r3
}
   d8cbe:	e7ef      	b.n	d8ca0 <_ZN5spark10JSONWriter6printfEPKcz+0x50>

000d8cc0 <_ZNSt16_Sp_counted_baseILN9__gnu_cxx12_Lock_policyE0EE10_M_releaseEv.part.0>:
    _Sp_counted_base<_S_single>::_M_release() noexcept
   d8cc0:	b510      	push	{r4, lr}
          _M_dispose();
   d8cc2:	6803      	ldr	r3, [r0, #0]
    _Sp_counted_base<_S_single>::_M_release() noexcept
   d8cc4:	4604      	mov	r4, r0
          _M_dispose();
   d8cc6:	689b      	ldr	r3, [r3, #8]
   d8cc8:	4798      	blx	r3
          if (--_M_weak_count == 0)
   d8cca:	68a3      	ldr	r3, [r4, #8]
   d8ccc:	3b01      	subs	r3, #1
   d8cce:	60a3      	str	r3, [r4, #8]
   d8cd0:	b92b      	cbnz	r3, d8cde <_ZNSt16_Sp_counted_baseILN9__gnu_cxx12_Lock_policyE0EE10_M_releaseEv.part.0+0x1e>
            _M_destroy();
   d8cd2:	6823      	ldr	r3, [r4, #0]
   d8cd4:	4620      	mov	r0, r4
   d8cd6:	68db      	ldr	r3, [r3, #12]
    }
   d8cd8:	e8bd 4010 	ldmia.w	sp!, {r4, lr}
            _M_destroy();
   d8cdc:	4718      	bx	r3
    }
   d8cde:	bd10      	pop	{r4, pc}

000d8ce0 <_ZN5spark10JSONWriter5writeEc>:

inline spark::JSONWriter& spark::JSONWriter::value(const String &val) {
    return value(val.c_str(), val.length());
}

inline void spark::JSONWriter::write(char c) {
   d8ce0:	b507      	push	{r0, r1, r2, lr}
    write(&c, 1);
   d8ce2:	6803      	ldr	r3, [r0, #0]
inline void spark::JSONWriter::write(char c) {
   d8ce4:	f88d 1007 	strb.w	r1, [sp, #7]
    write(&c, 1);
   d8ce8:	689b      	ldr	r3, [r3, #8]
   d8cea:	2201      	movs	r2, #1
   d8cec:	f10d 0107 	add.w	r1, sp, #7
   d8cf0:	4798      	blx	r3
}
   d8cf2:	b003      	add	sp, #12
   d8cf4:	f85d fb04 	ldr.w	pc, [sp], #4

000d8cf8 <_ZNSt12__shared_ptrIN5spark6detail8JSONDataELN9__gnu_cxx12_Lock_policyE0EEaSERKS5_>:
    class __shared_ptr
   d8cf8:	b538      	push	{r3, r4, r5, lr}
   d8cfa:	680b      	ldr	r3, [r1, #0]
   d8cfc:	6003      	str	r3, [r0, #0]
   d8cfe:	684d      	ldr	r5, [r1, #4]
	if (__tmp != _M_pi)
   d8d00:	6843      	ldr	r3, [r0, #4]
   d8d02:	429d      	cmp	r5, r3
    class __shared_ptr
   d8d04:	4604      	mov	r4, r0
	if (__tmp != _M_pi)
   d8d06:	d00c      	beq.n	d8d22 <_ZNSt12__shared_ptrIN5spark6detail8JSONDataELN9__gnu_cxx12_Lock_policyE0EEaSERKS5_+0x2a>
	    if (__tmp != 0)
   d8d08:	b115      	cbz	r5, d8d10 <_ZNSt12__shared_ptrIN5spark6detail8JSONDataELN9__gnu_cxx12_Lock_policyE0EEaSERKS5_+0x18>
    { ++_M_use_count; }
   d8d0a:	686b      	ldr	r3, [r5, #4]
   d8d0c:	3301      	adds	r3, #1
   d8d0e:	606b      	str	r3, [r5, #4]
	    if (_M_pi != 0)
   d8d10:	6860      	ldr	r0, [r4, #4]
   d8d12:	b128      	cbz	r0, d8d20 <_ZNSt12__shared_ptrIN5spark6detail8JSONDataELN9__gnu_cxx12_Lock_policyE0EEaSERKS5_+0x28>
      if (--_M_use_count == 0)
   d8d14:	6843      	ldr	r3, [r0, #4]
   d8d16:	3b01      	subs	r3, #1
   d8d18:	6043      	str	r3, [r0, #4]
   d8d1a:	b90b      	cbnz	r3, d8d20 <_ZNSt12__shared_ptrIN5spark6detail8JSONDataELN9__gnu_cxx12_Lock_policyE0EEaSERKS5_+0x28>
   d8d1c:	f7ff ffd0 	bl	d8cc0 <_ZNSt16_Sp_counted_baseILN9__gnu_cxx12_Lock_policyE0EE10_M_releaseEv.part.0>
	    _M_pi = __tmp;
   d8d20:	6065      	str	r5, [r4, #4]
    class __shared_ptr
   d8d22:	4620      	mov	r0, r4
   d8d24:	bd38      	pop	{r3, r4, r5, pc}

000d8d26 <_ZN5spark9JSONValueC1EPK9jsmntok_tSt10shared_ptrINS_6detail8JSONDataEE>:
spark::JSONValue::JSONValue(const jsmntok_t *t, detail::JSONDataPtr d) :
   d8d26:	460b      	mov	r3, r1
   d8d28:	4611      	mov	r1, r2
      : _M_ptr(0), _M_refcount()
   d8d2a:	2200      	movs	r2, #0
   d8d2c:	b510      	push	{r4, lr}
      constexpr __shared_count() noexcept : _M_pi(0)
   d8d2e:	e9c0 2200 	strd	r2, r2, [r0]
   d8d32:	4604      	mov	r4, r0
        t_ = t;
   d8d34:	6083      	str	r3, [r0, #8]
    if (t) {
   d8d36:	b90b      	cbnz	r3, d8d3c <_ZN5spark9JSONValueC1EPK9jsmntok_tSt10shared_ptrINS_6detail8JSONDataEE+0x16>
}
   d8d38:	4620      	mov	r0, r4
   d8d3a:	bd10      	pop	{r4, pc}
   *
   *  The object pointed to is deleted when the last shared_ptr pointing to
   *  it is destroyed or reset.
  */
  template<typename _Tp>
    class shared_ptr : public __shared_ptr<_Tp>
   d8d3c:	f7ff ffdc 	bl	d8cf8 <_ZNSt12__shared_ptrIN5spark6detail8JSONDataELN9__gnu_cxx12_Lock_policyE0EEaSERKS5_>
   d8d40:	e7fa      	b.n	d8d38 <_ZN5spark9JSONValueC1EPK9jsmntok_tSt10shared_ptrINS_6detail8JSONDataEE+0x12>

000d8d42 <_ZNK5spark9JSONValue4typeEv>:
    if (!t_) {
   d8d42:	6883      	ldr	r3, [r0, #8]
   d8d44:	b1eb      	cbz	r3, d8d82 <_ZNK5spark9JSONValue4typeEv+0x40>
    switch (t_->type) {
   d8d46:	781a      	ldrb	r2, [r3, #0]
   d8d48:	2a03      	cmp	r2, #3
   d8d4a:	d81a      	bhi.n	d8d82 <_ZNK5spark9JSONValue4typeEv+0x40>
   d8d4c:	e8df f002 	tbb	[pc, r2]
   d8d50:	1b021704 	.word	0x1b021704
   d8d54:	2005      	movs	r0, #5
   d8d56:	4770      	bx	lr
        const char c = d_->json[t_->start];
   d8d58:	6802      	ldr	r2, [r0, #0]
   d8d5a:	685b      	ldr	r3, [r3, #4]
   d8d5c:	6852      	ldr	r2, [r2, #4]
   d8d5e:	5cd0      	ldrb	r0, [r2, r3]
        if (c == '-' || (c >= '0' && c <= '9')) {
   d8d60:	282d      	cmp	r0, #45	; 0x2d
   d8d62:	d012      	beq.n	d8d8a <_ZNK5spark9JSONValue4typeEv+0x48>
   d8d64:	f1a0 0330 	sub.w	r3, r0, #48	; 0x30
   d8d68:	2b09      	cmp	r3, #9
   d8d6a:	d90e      	bls.n	d8d8a <_ZNK5spark9JSONValue4typeEv+0x48>
        } else if (c == 't' || c == 'f') { // Literal names are always in lower case
   d8d6c:	2874      	cmp	r0, #116	; 0x74
   d8d6e:	d00e      	beq.n	d8d8e <_ZNK5spark9JSONValue4typeEv+0x4c>
   d8d70:	2866      	cmp	r0, #102	; 0x66
   d8d72:	d00c      	beq.n	d8d8e <_ZNK5spark9JSONValue4typeEv+0x4c>
        return JSON_TYPE_INVALID;
   d8d74:	f1a0 036e 	sub.w	r3, r0, #110	; 0x6e
   d8d78:	4258      	negs	r0, r3
   d8d7a:	4158      	adcs	r0, r3
   d8d7c:	4770      	bx	lr
        return JSON_TYPE_OBJECT;
   d8d7e:	2006      	movs	r0, #6
   d8d80:	4770      	bx	lr
        return JSON_TYPE_INVALID;
   d8d82:	2000      	movs	r0, #0
   d8d84:	4770      	bx	lr
        return JSON_TYPE_STRING;
   d8d86:	2004      	movs	r0, #4
   d8d88:	4770      	bx	lr
            return JSON_TYPE_NUMBER;
   d8d8a:	2003      	movs	r0, #3
   d8d8c:	4770      	bx	lr
            return JSON_TYPE_BOOL;
   d8d8e:	2002      	movs	r0, #2
}
   d8d90:	4770      	bx	lr

000d8d92 <_ZNK5spark9JSONValue5toIntEv>:
int spark::JSONValue::toInt() const {
   d8d92:	b510      	push	{r4, lr}
   d8d94:	4604      	mov	r4, r0
    switch (type()) {
   d8d96:	f7ff ffd4 	bl	d8d42 <_ZNK5spark9JSONValue4typeEv>
   d8d9a:	2802      	cmp	r0, #2
   d8d9c:	d00e      	beq.n	d8dbc <_ZNK5spark9JSONValue5toIntEv+0x2a>
   d8d9e:	1ec3      	subs	r3, r0, #3
   d8da0:	b2db      	uxtb	r3, r3
   d8da2:	2b01      	cmp	r3, #1
   d8da4:	d814      	bhi.n	d8dd0 <_ZNK5spark9JSONValue5toIntEv+0x3e>
        const char* const s = d_->json + t_->start;
   d8da6:	6822      	ldr	r2, [r4, #0]
   d8da8:	68a3      	ldr	r3, [r4, #8]
   d8daa:	6850      	ldr	r0, [r2, #4]
   d8dac:	685b      	ldr	r3, [r3, #4]
}
   d8dae:	e8bd 4010 	ldmia.w	sp!, {r4, lr}
        return strtol(s, nullptr, 10);
   d8db2:	220a      	movs	r2, #10
   d8db4:	2100      	movs	r1, #0
   d8db6:	4418      	add	r0, r3
   d8db8:	f003 bf10 	b.w	dcbdc <strtol>
        const char* const s = d_->json + t_->start;
   d8dbc:	6822      	ldr	r2, [r4, #0]
   d8dbe:	68a3      	ldr	r3, [r4, #8]
        return *s == 't';
   d8dc0:	6852      	ldr	r2, [r2, #4]
   d8dc2:	685b      	ldr	r3, [r3, #4]
   d8dc4:	5cd0      	ldrb	r0, [r2, r3]
   d8dc6:	f1a0 0374 	sub.w	r3, r0, #116	; 0x74
   d8dca:	4258      	negs	r0, r3
   d8dcc:	4158      	adcs	r0, r3
}
   d8dce:	bd10      	pop	{r4, pc}
    switch (type()) {
   d8dd0:	2000      	movs	r0, #0
   d8dd2:	e7fc      	b.n	d8dce <_ZNK5spark9JSONValue5toIntEv+0x3c>

000d8dd4 <_ZN5spark10JSONStringC1EPK9jsmntok_tSt10shared_ptrINS_6detail8JSONDataEE>:
spark::JSONString::JSONString(const jsmntok_t *t, detail::JSONDataPtr d) :
   d8dd4:	b538      	push	{r3, r4, r5, lr}
      : _M_ptr(0), _M_refcount()
   d8dd6:	2300      	movs	r3, #0
      constexpr __shared_count() noexcept : _M_pi(0)
   d8dd8:	e9c0 3300 	strd	r3, r3, [r0]
   d8ddc:	4604      	mov	r4, r0
        n_(0) {
   d8dde:	480e      	ldr	r0, [pc, #56]	; (d8e18 <_ZN5spark10JSONStringC1EPK9jsmntok_tSt10shared_ptrINS_6detail8JSONDataEE+0x44>)
   d8de0:	e9c4 0302 	strd	r0, r3, [r4, #8]
    if (t && (t->type == JSMN_STRING || t->type == JSMN_PRIMITIVE)) {
   d8de4:	b1a9      	cbz	r1, d8e12 <_ZN5spark10JSONStringC1EPK9jsmntok_tSt10shared_ptrINS_6detail8JSONDataEE+0x3e>
   d8de6:	780b      	ldrb	r3, [r1, #0]
   d8de8:	2b03      	cmp	r3, #3
   d8dea:	d006      	beq.n	d8dfa <_ZN5spark10JSONStringC1EPK9jsmntok_tSt10shared_ptrINS_6detail8JSONDataEE+0x26>
   d8dec:	b98b      	cbnz	r3, d8e12 <_ZN5spark10JSONStringC1EPK9jsmntok_tSt10shared_ptrINS_6detail8JSONDataEE+0x3e>
        if (t->type != JSMN_PRIMITIVE || d->json[t->start] != 'n') { // Nulls are treated as empty strings
   d8dee:	6813      	ldr	r3, [r2, #0]
   d8df0:	6858      	ldr	r0, [r3, #4]
   d8df2:	684b      	ldr	r3, [r1, #4]
   d8df4:	5cc3      	ldrb	r3, [r0, r3]
   d8df6:	2b6e      	cmp	r3, #110	; 0x6e
   d8df8:	d007      	beq.n	d8e0a <_ZN5spark10JSONStringC1EPK9jsmntok_tSt10shared_ptrINS_6detail8JSONDataEE+0x36>
            s_ = d->json + t->start;
   d8dfa:	6813      	ldr	r3, [r2, #0]
   d8dfc:	684d      	ldr	r5, [r1, #4]
   d8dfe:	6858      	ldr	r0, [r3, #4]
            n_ = t->end - t->start;
   d8e00:	688b      	ldr	r3, [r1, #8]
            s_ = d->json + t->start;
   d8e02:	4428      	add	r0, r5
            n_ = t->end - t->start;
   d8e04:	1b5b      	subs	r3, r3, r5
            s_ = d->json + t->start;
   d8e06:	60a0      	str	r0, [r4, #8]
            n_ = t->end - t->start;
   d8e08:	60e3      	str	r3, [r4, #12]
   d8e0a:	4611      	mov	r1, r2
   d8e0c:	4620      	mov	r0, r4
   d8e0e:	f7ff ff73 	bl	d8cf8 <_ZNSt12__shared_ptrIN5spark6detail8JSONDataELN9__gnu_cxx12_Lock_policyE0EEaSERKS5_>
}
   d8e12:	4620      	mov	r0, r4
   d8e14:	bd38      	pop	{r3, r4, r5, pc}
   d8e16:	bf00      	nop
   d8e18:	000de851 	.word	0x000de851

000d8e1c <_ZN5spark18JSONObjectIteratorC1EPK9jsmntok_tSt10shared_ptrINS_6detail8JSONDataEE>:
spark::JSONObjectIterator::JSONObjectIterator(const jsmntok_t *t, detail::JSONDataPtr d) :
   d8e1c:	b538      	push	{r3, r4, r5, lr}
      : _M_ptr(0), _M_refcount()
   d8e1e:	2500      	movs	r5, #0
   d8e20:	460b      	mov	r3, r1
      constexpr __shared_count() noexcept : _M_pi(0)
   d8e22:	e9c0 5500 	strd	r5, r5, [r0]
        n_(0) {
   d8e26:	e9c0 5502 	strd	r5, r5, [r0, #8]
   d8e2a:	e9c0 5504 	strd	r5, r5, [r0, #16]
   d8e2e:	4604      	mov	r4, r0
   d8e30:	4611      	mov	r1, r2
    if (t && t->type == JSMN_OBJECT) {
   d8e32:	b14b      	cbz	r3, d8e48 <_ZN5spark18JSONObjectIteratorC1EPK9jsmntok_tSt10shared_ptrINS_6detail8JSONDataEE+0x2c>
   d8e34:	781a      	ldrb	r2, [r3, #0]
   d8e36:	2a01      	cmp	r2, #1
   d8e38:	d106      	bne.n	d8e48 <_ZN5spark18JSONObjectIteratorC1EPK9jsmntok_tSt10shared_ptrINS_6detail8JSONDataEE+0x2c>
        t_ = t + 1; // First property's name
   d8e3a:	f103 0210 	add.w	r2, r3, #16
        n_ = t->size; // Number of properties
   d8e3e:	68db      	ldr	r3, [r3, #12]
        t_ = t + 1; // First property's name
   d8e40:	6082      	str	r2, [r0, #8]
        n_ = t->size; // Number of properties
   d8e42:	6143      	str	r3, [r0, #20]
   d8e44:	f7ff ff58 	bl	d8cf8 <_ZNSt12__shared_ptrIN5spark6detail8JSONDataELN9__gnu_cxx12_Lock_policyE0EEaSERKS5_>
}
   d8e48:	4620      	mov	r0, r4
   d8e4a:	bd38      	pop	{r3, r4, r5, pc}

000d8e4c <_ZN5spark18JSONObjectIterator4nextEv>:
bool spark::JSONObjectIterator::next() {
   d8e4c:	b510      	push	{r4, lr}
    if (!n_) {
   d8e4e:	6943      	ldr	r3, [r0, #20]
bool spark::JSONObjectIterator::next() {
   d8e50:	4604      	mov	r4, r0
    if (!n_) {
   d8e52:	b163      	cbz	r3, d8e6e <_ZN5spark18JSONObjectIterator4nextEv+0x22>
    k_ = t_; // Name
   d8e54:	6880      	ldr	r0, [r0, #8]
   d8e56:	60e0      	str	r0, [r4, #12]
    --n_;
   d8e58:	3b01      	subs	r3, #1
    ++t_;
   d8e5a:	3010      	adds	r0, #16
   d8e5c:	60a0      	str	r0, [r4, #8]
    v_ = t_; // Value
   d8e5e:	6120      	str	r0, [r4, #16]
    --n_;
   d8e60:	6163      	str	r3, [r4, #20]
    if (n_) {
   d8e62:	b113      	cbz	r3, d8e6a <_ZN5spark18JSONObjectIterator4nextEv+0x1e>
        t_ = skipToken(t_);
   d8e64:	f7ff fedd 	bl	d8c22 <_ZN12_GLOBAL__N_19skipTokenEPK9jsmntok_t>
   d8e68:	60a0      	str	r0, [r4, #8]
    return true;
   d8e6a:	2001      	movs	r0, #1
   d8e6c:	e000      	b.n	d8e70 <_ZN5spark18JSONObjectIterator4nextEv+0x24>
        return false;
   d8e6e:	4618      	mov	r0, r3
}
   d8e70:	bd10      	pop	{r4, pc}

000d8e72 <_ZN5spark10JSONWriter9endObjectEv>:
spark::JSONWriter& spark::JSONWriter::endObject() {
   d8e72:	b510      	push	{r4, lr}
    write('}');
   d8e74:	217d      	movs	r1, #125	; 0x7d
spark::JSONWriter& spark::JSONWriter::endObject() {
   d8e76:	4604      	mov	r4, r0
    write('}');
   d8e78:	f7ff ff32 	bl	d8ce0 <_ZN5spark10JSONWriter5writeEc>
    state_ = NEXT;
   d8e7c:	2301      	movs	r3, #1
   d8e7e:	7123      	strb	r3, [r4, #4]
}
   d8e80:	4620      	mov	r0, r4
   d8e82:	bd10      	pop	{r4, pc}

000d8e84 <_ZN5spark10JSONWriter14writeSeparatorEv>:

void spark::JSONWriter::writeSeparator() {
   d8e84:	b508      	push	{r3, lr}
    switch (state_) {
   d8e86:	7903      	ldrb	r3, [r0, #4]
   d8e88:	2b01      	cmp	r3, #1
   d8e8a:	d002      	beq.n	d8e92 <_ZN5spark10JSONWriter14writeSeparatorEv+0xe>
   d8e8c:	2b02      	cmp	r3, #2
   d8e8e:	d004      	beq.n	d8e9a <_ZN5spark10JSONWriter14writeSeparatorEv+0x16>
        write(':');
        break;
    default:
        break;
    }
}
   d8e90:	bd08      	pop	{r3, pc}
        write(',');
   d8e92:	212c      	movs	r1, #44	; 0x2c
        write(':');
   d8e94:	f7ff ff24 	bl	d8ce0 <_ZN5spark10JSONWriter5writeEc>
}
   d8e98:	e7fa      	b.n	d8e90 <_ZN5spark10JSONWriter14writeSeparatorEv+0xc>
        write(':');
   d8e9a:	213a      	movs	r1, #58	; 0x3a
   d8e9c:	e7fa      	b.n	d8e94 <_ZN5spark10JSONWriter14writeSeparatorEv+0x10>

000d8e9e <_ZN5spark10JSONWriter11beginObjectEv>:
spark::JSONWriter& spark::JSONWriter::beginObject() {
   d8e9e:	b510      	push	{r4, lr}
   d8ea0:	4604      	mov	r4, r0
    writeSeparator();
   d8ea2:	f7ff ffef 	bl	d8e84 <_ZN5spark10JSONWriter14writeSeparatorEv>
    write('{');
   d8ea6:	4620      	mov	r0, r4
   d8ea8:	217b      	movs	r1, #123	; 0x7b
   d8eaa:	f7ff ff19 	bl	d8ce0 <_ZN5spark10JSONWriter5writeEc>
    state_ = BEGIN;
   d8eae:	2300      	movs	r3, #0
   d8eb0:	7123      	strb	r3, [r4, #4]
}
   d8eb2:	4620      	mov	r0, r4
   d8eb4:	bd10      	pop	{r4, pc}
	...

000d8eb8 <_ZN5spark10JSONWriter5valueEi>:
spark::JSONWriter& spark::JSONWriter::value(int val) {
   d8eb8:	b513      	push	{r0, r1, r4, lr}
   d8eba:	4604      	mov	r4, r0
   d8ebc:	9101      	str	r1, [sp, #4]
    writeSeparator();
   d8ebe:	f7ff ffe1 	bl	d8e84 <_ZN5spark10JSONWriter14writeSeparatorEv>
    printf("%d", val);
   d8ec2:	6823      	ldr	r3, [r4, #0]
   d8ec4:	9a01      	ldr	r2, [sp, #4]
   d8ec6:	68db      	ldr	r3, [r3, #12]
   d8ec8:	4903      	ldr	r1, [pc, #12]	; (d8ed8 <_ZN5spark10JSONWriter5valueEi+0x20>)
   d8eca:	4620      	mov	r0, r4
   d8ecc:	4798      	blx	r3
    state_ = NEXT;
   d8ece:	2301      	movs	r3, #1
}
   d8ed0:	4620      	mov	r0, r4
    state_ = NEXT;
   d8ed2:	7123      	strb	r3, [r4, #4]
}
   d8ed4:	b002      	add	sp, #8
   d8ed6:	bd10      	pop	{r4, pc}
   d8ed8:	000de290 	.word	0x000de290

000d8edc <_ZN5spark10JSONWriter5valueEj>:
spark::JSONWriter& spark::JSONWriter::value(unsigned val) {
   d8edc:	b513      	push	{r0, r1, r4, lr}
   d8ede:	4604      	mov	r4, r0
   d8ee0:	9101      	str	r1, [sp, #4]
    writeSeparator();
   d8ee2:	f7ff ffcf 	bl	d8e84 <_ZN5spark10JSONWriter14writeSeparatorEv>
    printf("%u", val);
   d8ee6:	6823      	ldr	r3, [r4, #0]
   d8ee8:	9a01      	ldr	r2, [sp, #4]
   d8eea:	68db      	ldr	r3, [r3, #12]
   d8eec:	4903      	ldr	r1, [pc, #12]	; (d8efc <_ZN5spark10JSONWriter5valueEj+0x20>)
   d8eee:	4620      	mov	r0, r4
   d8ef0:	4798      	blx	r3
    state_ = NEXT;
   d8ef2:	2301      	movs	r3, #1
}
   d8ef4:	4620      	mov	r0, r4
    state_ = NEXT;
   d8ef6:	7123      	strb	r3, [r4, #4]
}
   d8ef8:	b002      	add	sp, #8
   d8efa:	bd10      	pop	{r4, pc}
   d8efc:	000de47f 	.word	0x000de47f

000d8f00 <_ZN5spark10JSONWriter12writeEscapedEPKcj>:

void spark::JSONWriter::writeEscaped(const char *str, size_t size) {
   d8f00:	e92d 41f0 	stmdb	sp!, {r4, r5, r6, r7, r8, lr}
   d8f04:	460d      	mov	r5, r1
   d8f06:	4617      	mov	r7, r2
    write('"');
   d8f08:	2122      	movs	r1, #34	; 0x22
            case 0x0d: // Carriage return
                write('r');
                break;
            default:
                // All other control characters are written in hex, e.g. "\u001f"
                printf("u%04x", (unsigned)c);
   d8f0a:	f8df 80a0 	ldr.w	r8, [pc, #160]	; d8fac <_ZN5spark10JSONWriter12writeEscapedEPKcj+0xac>
void spark::JSONWriter::writeEscaped(const char *str, size_t size) {
   d8f0e:	4604      	mov	r4, r0
    const char* const end = str + size;
   d8f10:	442f      	add	r7, r5
    write('"');
   d8f12:	f7ff fee5 	bl	d8ce0 <_ZN5spark10JSONWriter5writeEc>
    const char* const end = str + size;
   d8f16:	4629      	mov	r1, r5
    while (s != end) {
   d8f18:	42bd      	cmp	r5, r7
   d8f1a:	462a      	mov	r2, r5
   d8f1c:	d038      	beq.n	d8f90 <_ZN5spark10JSONWriter12writeEscapedEPKcj+0x90>
        const char c = *s;
   d8f1e:	f815 6b01 	ldrb.w	r6, [r5], #1
        if (c == '"' || c == '\\' || (c >= 0 && c <= 0x1f)) {
   d8f22:	2e22      	cmp	r6, #34	; 0x22
   d8f24:	d003      	beq.n	d8f2e <_ZN5spark10JSONWriter12writeEscapedEPKcj+0x2e>
   d8f26:	2e5c      	cmp	r6, #92	; 0x5c
   d8f28:	d001      	beq.n	d8f2e <_ZN5spark10JSONWriter12writeEscapedEPKcj+0x2e>
   d8f2a:	2e1f      	cmp	r6, #31
   d8f2c:	d8f4      	bhi.n	d8f18 <_ZN5spark10JSONWriter12writeEscapedEPKcj+0x18>
            write(str, s - str); // Write preceeding characters
   d8f2e:	6823      	ldr	r3, [r4, #0]
   d8f30:	1a52      	subs	r2, r2, r1
   d8f32:	689b      	ldr	r3, [r3, #8]
   d8f34:	4620      	mov	r0, r4
   d8f36:	4798      	blx	r3
            write('\\');
   d8f38:	215c      	movs	r1, #92	; 0x5c
   d8f3a:	4620      	mov	r0, r4
   d8f3c:	f7ff fed0 	bl	d8ce0 <_ZN5spark10JSONWriter5writeEc>
            switch (c) {
   d8f40:	2e0d      	cmp	r6, #13
   d8f42:	d80a      	bhi.n	d8f5a <_ZN5spark10JSONWriter12writeEscapedEPKcj+0x5a>
   d8f44:	2e07      	cmp	r6, #7
   d8f46:	d91c      	bls.n	d8f82 <_ZN5spark10JSONWriter12writeEscapedEPKcj+0x82>
   d8f48:	f1a6 0308 	sub.w	r3, r6, #8
   d8f4c:	2b05      	cmp	r3, #5
   d8f4e:	d818      	bhi.n	d8f82 <_ZN5spark10JSONWriter12writeEscapedEPKcj+0x82>
   d8f50:	e8df f003 	tbb	[pc, r3]
   d8f54:	17110f0d 	.word	0x17110f0d
   d8f58:	1513      	.short	0x1513
   d8f5a:	2e22      	cmp	r6, #34	; 0x22
   d8f5c:	d001      	beq.n	d8f62 <_ZN5spark10JSONWriter12writeEscapedEPKcj+0x62>
   d8f5e:	2e5c      	cmp	r6, #92	; 0x5c
   d8f60:	d10f      	bne.n	d8f82 <_ZN5spark10JSONWriter12writeEscapedEPKcj+0x82>
                write(c);
   d8f62:	4631      	mov	r1, r6
                write('b');
   d8f64:	4620      	mov	r0, r4
   d8f66:	f7ff febb 	bl	d8ce0 <_ZN5spark10JSONWriter5writeEc>
                break;
            }
            str = s + 1;
   d8f6a:	4629      	mov	r1, r5
    while (s != end) {
   d8f6c:	e7d4      	b.n	d8f18 <_ZN5spark10JSONWriter12writeEscapedEPKcj+0x18>
                write('b');
   d8f6e:	2162      	movs	r1, #98	; 0x62
   d8f70:	e7f8      	b.n	d8f64 <_ZN5spark10JSONWriter12writeEscapedEPKcj+0x64>
                write('t');
   d8f72:	2174      	movs	r1, #116	; 0x74
   d8f74:	e7f6      	b.n	d8f64 <_ZN5spark10JSONWriter12writeEscapedEPKcj+0x64>
                write('n');
   d8f76:	216e      	movs	r1, #110	; 0x6e
   d8f78:	e7f4      	b.n	d8f64 <_ZN5spark10JSONWriter12writeEscapedEPKcj+0x64>
                write('f');
   d8f7a:	2166      	movs	r1, #102	; 0x66
   d8f7c:	e7f2      	b.n	d8f64 <_ZN5spark10JSONWriter12writeEscapedEPKcj+0x64>
                write('r');
   d8f7e:	2172      	movs	r1, #114	; 0x72
   d8f80:	e7f0      	b.n	d8f64 <_ZN5spark10JSONWriter12writeEscapedEPKcj+0x64>
                printf("u%04x", (unsigned)c);
   d8f82:	6823      	ldr	r3, [r4, #0]
   d8f84:	4632      	mov	r2, r6
   d8f86:	68db      	ldr	r3, [r3, #12]
   d8f88:	4641      	mov	r1, r8
   d8f8a:	4620      	mov	r0, r4
   d8f8c:	4798      	blx	r3
                break;
   d8f8e:	e7ec      	b.n	d8f6a <_ZN5spark10JSONWriter12writeEscapedEPKcj+0x6a>
        }
        ++s;
    }
    if (s != str) {
   d8f90:	428d      	cmp	r5, r1
   d8f92:	d004      	beq.n	d8f9e <_ZN5spark10JSONWriter12writeEscapedEPKcj+0x9e>
        write(str, s - str); // Write remaining characters
   d8f94:	6823      	ldr	r3, [r4, #0]
   d8f96:	1a6a      	subs	r2, r5, r1
   d8f98:	689b      	ldr	r3, [r3, #8]
   d8f9a:	4620      	mov	r0, r4
   d8f9c:	4798      	blx	r3
    }
    write('"');
   d8f9e:	2122      	movs	r1, #34	; 0x22
   d8fa0:	4620      	mov	r0, r4
   d8fa2:	f7ff fe9d 	bl	d8ce0 <_ZN5spark10JSONWriter5writeEc>
}
   d8fa6:	e8bd 81f0 	ldmia.w	sp!, {r4, r5, r6, r7, r8, pc}
   d8faa:	bf00      	nop
   d8fac:	000de7f4 	.word	0x000de7f4

000d8fb0 <_ZN5spark10JSONWriter4nameEPKcj>:
spark::JSONWriter& spark::JSONWriter::name(const char *name, size_t size) {
   d8fb0:	b513      	push	{r0, r1, r4, lr}
   d8fb2:	4604      	mov	r4, r0
   d8fb4:	e9cd 2100 	strd	r2, r1, [sp]
    writeSeparator();
   d8fb8:	f7ff ff64 	bl	d8e84 <_ZN5spark10JSONWriter14writeSeparatorEv>
    writeEscaped(name, size);
   d8fbc:	4620      	mov	r0, r4
   d8fbe:	e9dd 2100 	ldrd	r2, r1, [sp]
   d8fc2:	f7ff ff9d 	bl	d8f00 <_ZN5spark10JSONWriter12writeEscapedEPKcj>
    state_ = VALUE;
   d8fc6:	2302      	movs	r3, #2
}
   d8fc8:	4620      	mov	r0, r4
    state_ = VALUE;
   d8fca:	7123      	strb	r3, [r4, #4]
}
   d8fcc:	b002      	add	sp, #8
   d8fce:	bd10      	pop	{r4, pc}

000d8fd0 <_ZN5spark10JSONWriter5valueEPKcj>:
spark::JSONWriter& spark::JSONWriter::value(const char *val, size_t size) {
   d8fd0:	b513      	push	{r0, r1, r4, lr}
   d8fd2:	4604      	mov	r4, r0
   d8fd4:	e9cd 2100 	strd	r2, r1, [sp]
    writeSeparator();
   d8fd8:	f7ff ff54 	bl	d8e84 <_ZN5spark10JSONWriter14writeSeparatorEv>
    writeEscaped(val, size);
   d8fdc:	4620      	mov	r0, r4
   d8fde:	e9dd 2100 	ldrd	r2, r1, [sp]
   d8fe2:	f7ff ff8d 	bl	d8f00 <_ZN5spark10JSONWriter12writeEscapedEPKcj>
    state_ = NEXT;
   d8fe6:	2301      	movs	r3, #1
}
   d8fe8:	4620      	mov	r0, r4
    state_ = NEXT;
   d8fea:	7123      	strb	r3, [r4, #4]
}
   d8fec:	b002      	add	sp, #8
   d8fee:	bd10      	pop	{r4, pc}

000d8ff0 <_ZN5spark16JSONStreamWriter5writeEPKcj>:
inline Print* spark::JSONStreamWriter::stream() const {
    return &strm_;
}

inline void spark::JSONStreamWriter::write(const char *data, size_t size) {
    strm_.write((const uint8_t*)data, size);
   d8ff0:	6880      	ldr	r0, [r0, #8]
   d8ff2:	6803      	ldr	r3, [r0, #0]
   d8ff4:	68db      	ldr	r3, [r3, #12]
   d8ff6:	4718      	bx	r3

000d8ff8 <_ZN5spark20JSONStreamLogHandler5writeEPKcj>:
}

// spark::JSONStreamLogHandler
inline void spark::JSONStreamLogHandler::write(const char *data, size_t size) {
    // This handler doesn't support direct logging
}
   d8ff8:	4770      	bx	lr

000d8ffa <_ZN5spark17LogHandlerFactory14destroyHandlerEPNS_10LogHandlerE>:

#if Wiring_LogConfig

// spark::LogHandlerFactory
inline void spark::LogHandlerFactory::destroyHandler(LogHandler *handler) {
    delete handler;
   d8ffa:	4608      	mov	r0, r1
   d8ffc:	b111      	cbz	r1, d9004 <_ZN5spark17LogHandlerFactory14destroyHandlerEPNS_10LogHandlerE+0xa>
   d8ffe:	680b      	ldr	r3, [r1, #0]
   d9000:	685b      	ldr	r3, [r3, #4]
   d9002:	4718      	bx	r3
}
   d9004:	4770      	bx	lr

000d9006 <_ZN5spark26DefaultOutputStreamFactoryD1Ev>:
class DefaultOutputStreamFactory: public OutputStreamFactory {
   d9006:	4770      	bx	lr

000d9008 <_ZN5spark24DefaultLogHandlerFactoryD1Ev>:
class DefaultLogHandlerFactory: public LogHandlerFactory {
   d9008:	4770      	bx	lr

000d900a <_ZN5spark16JSONStreamWriterD1Ev>:
class JSONStreamWriter: public JSONWriter {
   d900a:	4770      	bx	lr

000d900c <_ZN12_GLOBAL__N_119nextSubcategoryNameERPKcRj>:
    return s;
}
#endif

// Iterates over subcategory names separated by '.' character
const char* nextSubcategoryName(const char* &category, size_t &size) {
   d900c:	b538      	push	{r3, r4, r5, lr}
   d900e:	4604      	mov	r4, r0
   d9010:	460d      	mov	r5, r1
    const char *s = strchrnul(category, '.');
   d9012:	6800      	ldr	r0, [r0, #0]
   d9014:	212e      	movs	r1, #46	; 0x2e
   d9016:	f002 fe6a 	bl	dbcee <strchrnul>
    size = s - category;
   d901a:	6823      	ldr	r3, [r4, #0]
   d901c:	1ac3      	subs	r3, r0, r3
   d901e:	602b      	str	r3, [r5, #0]
    if (size) {
   d9020:	b123      	cbz	r3, d902c <_ZN12_GLOBAL__N_119nextSubcategoryNameERPKcRj+0x20>
        if (*s) {
   d9022:	7803      	ldrb	r3, [r0, #0]
   d9024:	b103      	cbz	r3, d9028 <_ZN12_GLOBAL__N_119nextSubcategoryNameERPKcRj+0x1c>
            ++s;
   d9026:	3001      	adds	r0, #1
   d9028:	6823      	ldr	r3, [r4, #0]
      __b = _GLIBCXX_MOVE(__tmp);
   d902a:	6020      	str	r0, [r4, #0]
        }
        std::swap(s, category);
        return s;
    }
    return nullptr;
}
   d902c:	4618      	mov	r0, r3
   d902e:	bd38      	pop	{r3, r4, r5, pc}

000d9030 <_ZN5spark16JSONStreamWriterD0Ev>:
   d9030:	b510      	push	{r4, lr}
   d9032:	210c      	movs	r1, #12
   d9034:	4604      	mov	r4, r0
   d9036:	f002 f850 	bl	db0da <_ZdlPvj>
   d903a:	4620      	mov	r0, r4
   d903c:	bd10      	pop	{r4, pc}

000d903e <_ZN5spark24DefaultLogHandlerFactoryD0Ev>:
   d903e:	b510      	push	{r4, lr}
   d9040:	2104      	movs	r1, #4
   d9042:	4604      	mov	r4, r0
   d9044:	f002 f849 	bl	db0da <_ZdlPvj>
   d9048:	4620      	mov	r0, r4
   d904a:	bd10      	pop	{r4, pc}

000d904c <_ZN5spark26DefaultOutputStreamFactoryD0Ev>:
class DefaultOutputStreamFactory: public OutputStreamFactory {
   d904c:	b510      	push	{r4, lr}
   d904e:	2104      	movs	r1, #4
   d9050:	4604      	mov	r4, r0
   d9052:	f002 f842 	bl	db0da <_ZdlPvj>
   d9056:	4620      	mov	r0, r4
   d9058:	bd10      	pop	{r4, pc}

000d905a <_ZNK5spark10JSONStringeqEPKc.isra.0>:
inline bool spark::JSONString::operator==(const char *str) const {
   d905a:	b508      	push	{r3, lr}
    return strcmp(s_, str) == 0;
   d905c:	f002 fe51 	bl	dbd02 <strcmp>
}
   d9060:	fab0 f080 	clz	r0, r0
   d9064:	0940      	lsrs	r0, r0, #5
   d9066:	bd08      	pop	{r3, pc}

000d9068 <_ZN5spark26DefaultOutputStreamFactory13destroyStreamEP5Print>:
    }
#endif // PLATFORM_ID != 3
    return nullptr;
}

void spark::DefaultOutputStreamFactory::destroyStream(Print *stream) {
   d9068:	b510      	push	{r4, lr}
   d906a:	460c      	mov	r4, r1
#if PLATFORM_ID != 3
    if (stream == &Serial) {
   d906c:	f001 fe4a 	bl	dad04 <_Z16_fetch_usbserialv>
   d9070:	4284      	cmp	r4, r0
   d9072:	d010      	beq.n	d9096 <_ZN5spark26DefaultOutputStreamFactory13destroyStreamEP5Print+0x2e>
    if (stream == &USBSerial1) {
        USBSerial1.end();
        return;
    }
#endif
    if (stream == &Serial1) {
   d9074:	f001 fdba 	bl	dabec <_Z22__fetch_global_Serial1v>
   d9078:	4284      	cmp	r4, r0
   d907a:	d105      	bne.n	d9088 <_ZN5spark26DefaultOutputStreamFactory13destroyStreamEP5Print+0x20>
        Serial1.end();
   d907c:	f001 fdb6 	bl	dabec <_Z22__fetch_global_Serial1v>
        return;
    }
#endif // PLATFORM_ID != 3
    OutputStreamFactory::destroyStream(stream);
}
   d9080:	e8bd 4010 	ldmia.w	sp!, {r4, lr}
        Serial1.end();
   d9084:	f001 bdaf 	b.w	dabe6 <_ZN11USARTSerial3endEv>

// spark::OutputStreamFactory
inline void spark::OutputStreamFactory::destroyStream(Print *stream) {
    delete stream;
   d9088:	b12c      	cbz	r4, d9096 <_ZN5spark26DefaultOutputStreamFactory13destroyStreamEP5Print+0x2e>
   d908a:	6823      	ldr	r3, [r4, #0]
   d908c:	4620      	mov	r0, r4
   d908e:	685b      	ldr	r3, [r3, #4]
}
   d9090:	e8bd 4010 	ldmia.w	sp!, {r4, lr}
   d9094:	4718      	bx	r3
   d9096:	bd10      	pop	{r4, pc}

000d9098 <_ZN5spark10JSONWriter5valueEPKc>:
inline spark::JSONWriter& spark::JSONWriter::value(const char *val) {
   d9098:	b513      	push	{r0, r1, r4, lr}
   d909a:	4604      	mov	r4, r0
    return value(val, strlen(val));
   d909c:	4608      	mov	r0, r1
   d909e:	9101      	str	r1, [sp, #4]
   d90a0:	f002 fe5f 	bl	dbd62 <strlen>
   d90a4:	9901      	ldr	r1, [sp, #4]
   d90a6:	4602      	mov	r2, r0
   d90a8:	4620      	mov	r0, r4
}
   d90aa:	b002      	add	sp, #8
   d90ac:	e8bd 4010 	ldmia.w	sp!, {r4, lr}
    return value(val, strlen(val));
   d90b0:	f7ff bf8e 	b.w	d8fd0 <_ZN5spark10JSONWriter5valueEPKcj>

000d90b4 <_ZN5spark16StreamLogHandler5writeEPKc>:
inline void spark::StreamLogHandler::write(const char *str) {
   d90b4:	b513      	push	{r0, r1, r4, lr}
   d90b6:	4604      	mov	r4, r0
    write(str, strlen(str));
   d90b8:	4608      	mov	r0, r1
   d90ba:	9101      	str	r1, [sp, #4]
   d90bc:	f002 fe51 	bl	dbd62 <strlen>
   d90c0:	6823      	ldr	r3, [r4, #0]
   d90c2:	9901      	ldr	r1, [sp, #4]
   d90c4:	68db      	ldr	r3, [r3, #12]
   d90c6:	4602      	mov	r2, r0
   d90c8:	4620      	mov	r0, r4
}
   d90ca:	b002      	add	sp, #8
   d90cc:	e8bd 4010 	ldmia.w	sp!, {r4, lr}
    write(str, strlen(str));
   d90d0:	4718      	bx	r3

000d90d2 <_ZN5spark16StreamLogHandler5writeEc>:
inline void spark::StreamLogHandler::write(char c) {
   d90d2:	b507      	push	{r0, r1, r2, lr}
    write(&c, 1);
   d90d4:	6803      	ldr	r3, [r0, #0]
inline void spark::StreamLogHandler::write(char c) {
   d90d6:	f88d 1007 	strb.w	r1, [sp, #7]
    write(&c, 1);
   d90da:	68db      	ldr	r3, [r3, #12]
   d90dc:	2201      	movs	r2, #1
   d90de:	f10d 0107 	add.w	r1, sp, #7
   d90e2:	4798      	blx	r3
}
   d90e4:	b003      	add	sp, #12
   d90e6:	f85d fb04 	ldr.w	pc, [sp], #4

000d90ea <_ZN5spark16StreamLogHandler6printfEPKcz>:
inline void spark::StreamLogHandler::printf(const char *fmt, ...) {
   d90ea:	b40e      	push	{r1, r2, r3}
   d90ec:	b503      	push	{r0, r1, lr}
   d90ee:	ab03      	add	r3, sp, #12
    stream_->vprintf(false, fmt, args);
   d90f0:	2100      	movs	r1, #0
inline void spark::StreamLogHandler::printf(const char *fmt, ...) {
   d90f2:	f853 2b04 	ldr.w	r2, [r3], #4
    stream_->vprintf(false, fmt, args);
   d90f6:	6a00      	ldr	r0, [r0, #32]
    va_start(args, fmt);
   d90f8:	9301      	str	r3, [sp, #4]
    stream_->vprintf(false, fmt, args);
   d90fa:	f001 f8e7 	bl	da2cc <_ZN5Print7vprintfEbPKcSt9__va_list>
}
   d90fe:	b002      	add	sp, #8
   d9100:	f85d eb04 	ldr.w	lr, [sp], #4
   d9104:	b003      	add	sp, #12
   d9106:	4770      	bx	lr

000d9108 <_ZN5spark6detail9LogFilter9nodeIndexERKNS_6VectorINS1_4NodeENS_16DefaultAllocatorEEEPKcjRb>:
int spark::detail::LogFilter::nodeIndex(const Vector<Node> &nodes, const char *name, size_t size, bool &found) {
   d9108:	e92d 4ff7 	stmdb	sp!, {r0, r1, r2, r4, r5, r6, r7, r8, r9, sl, fp, lr}
    return data_ + size_;
}

template<typename T, typename AllocatorT>
const T* spark::Vector<T, AllocatorT>::end() const {
    return data_ + size_;
   d910c:	e9d0 9500 	ldrd	r9, r5, [r0]
   d9110:	f04f 0814 	mov.w	r8, #20
   d9114:	fb08 f505 	mul.w	r5, r8, r5
   d9118:	9300      	str	r3, [sp, #0]
               random_access_iterator_tag)
    {
      // concept requirements
      __glibcxx_function_requires(_RandomAccessIteratorConcept<
				  _RandomAccessIterator>)
      return __last - __first;
   d911a:	10ab      	asrs	r3, r5, #2
   d911c:	4d18      	ldr	r5, [pc, #96]	; (d9180 <_ZN5spark6detail9LogFilter9nodeIndexERKNS_6VectorINS1_4NodeENS_16DefaultAllocatorEEEPKcjRb+0x78>)
   d911e:	4617      	mov	r7, r2
   d9120:	435d      	muls	r5, r3
   d9122:	464c      	mov	r4, r9
      typedef typename iterator_traits<_ForwardIterator>::difference_type
	_DistanceType;

      _DistanceType __len = std::distance(__first, __last);

      while (__len > 0)
   d9124:	2d00      	cmp	r5, #0
   d9126:	dd23      	ble.n	d9170 <_ZN5spark6detail9LogFilter9nodeIndexERKNS_6VectorINS1_4NodeENS_16DefaultAllocatorEEEPKcjRb+0x68>
	{
	  _DistanceType __half = __len >> 1;
   d9128:	106e      	asrs	r6, r5, #1
      if (__builtin_constant_p(__n) && __n == 1)
	++__i;
      else if (__builtin_constant_p(__n) && __n == -1)
	--__i;
      else
	__i += __n;
   d912a:	fb08 f006 	mul.w	r0, r8, r6
   d912e:	eb04 0a00 	add.w	sl, r4, r0
                const int cmp = strncmp(node.name, value.first, std::min<size_t>(node.size, value.second));
   d9132:	463a      	mov	r2, r7
   d9134:	f8ba b004 	ldrh.w	fp, [sl, #4]
   d9138:	5820      	ldr	r0, [r4, r0]
   d913a:	9101      	str	r1, [sp, #4]
   d913c:	455f      	cmp	r7, fp
   d913e:	bf28      	it	cs
   d9140:	465a      	movcs	r2, fp
   d9142:	f002 fe16 	bl	dbd72 <strncmp>
                if (cmp == 0) {
   d9146:	9901      	ldr	r1, [sp, #4]
   d9148:	2301      	movs	r3, #1
   d914a:	b978      	cbnz	r0, d916c <_ZN5spark6detail9LogFilter9nodeIndexERKNS_6VectorINS1_4NodeENS_16DefaultAllocatorEEEPKcjRb+0x64>
                    if (node.size == value.second) { // Lengths are equal
   d914c:	455f      	cmp	r7, fp
   d914e:	d103      	bne.n	d9158 <_ZN5spark6detail9LogFilter9nodeIndexERKNS_6VectorINS1_4NodeENS_16DefaultAllocatorEEEPKcjRb+0x50>
                        found = true; // Allows caller code to avoid extra call to strncmp()
   d9150:	9a00      	ldr	r2, [sp, #0]
   d9152:	7013      	strb	r3, [r2, #0]
int spark::detail::LogFilter::nodeIndex(const Vector<Node> &nodes, const char *name, size_t size, bool &found) {
   d9154:	4635      	mov	r5, r6
   d9156:	e7e5      	b.n	d9124 <_ZN5spark6detail9LogFilter9nodeIndexERKNS_6VectorINS1_4NodeENS_16DefaultAllocatorEEEPKcjRb+0x1c>
                    return node.size < value.second;
   d9158:	bf8c      	ite	hi
   d915a:	2001      	movhi	r0, #1
   d915c:	2000      	movls	r0, #0
	  _ForwardIterator __middle = __first;
	  std::advance(__middle, __half);
	  if (__comp(__middle, __val))
   d915e:	2800      	cmp	r0, #0
   d9160:	d0f8      	beq.n	d9154 <_ZN5spark6detail9LogFilter9nodeIndexERKNS_6VectorINS1_4NodeENS_16DefaultAllocatorEEEPKcjRb+0x4c>
	    {
	      __first = __middle;
	      ++__first;
	      __len = __len - __half - 1;
   d9162:	1bae      	subs	r6, r5, r6
	      ++__first;
   d9164:	f10a 0414 	add.w	r4, sl, #20
	      __len = __len - __half - 1;
   d9168:	3e01      	subs	r6, #1
   d916a:	e7f3      	b.n	d9154 <_ZN5spark6detail9LogFilter9nodeIndexERKNS_6VectorINS1_4NodeENS_16DefaultAllocatorEEEPKcjRb+0x4c>
                return cmp < 0;
   d916c:	0fc0      	lsrs	r0, r0, #31
   d916e:	e7f6      	b.n	d915e <_ZN5spark6detail9LogFilter9nodeIndexERKNS_6VectorINS1_4NodeENS_16DefaultAllocatorEEEPKcjRb+0x56>
      return __last - __first;
   d9170:	eba4 0409 	sub.w	r4, r4, r9
}
   d9174:	4802      	ldr	r0, [pc, #8]	; (d9180 <_ZN5spark6detail9LogFilter9nodeIndexERKNS_6VectorINS1_4NodeENS_16DefaultAllocatorEEEPKcjRb+0x78>)
   d9176:	10a4      	asrs	r4, r4, #2
   d9178:	4360      	muls	r0, r4
   d917a:	b003      	add	sp, #12
   d917c:	e8bd 8ff0 	ldmia.w	sp!, {r4, r5, r6, r7, r8, r9, sl, fp, pc}
   d9180:	cccccccd 	.word	0xcccccccd

000d9184 <_ZNK5spark6detail9LogFilter5levelEPKc>:
LogLevel spark::detail::LogFilter::level(const char *category) const {
   d9184:	b57f      	push	{r0, r1, r2, r3, r4, r5, r6, lr}
    if (!nodes_.isEmpty() && category) {
   d9186:	6903      	ldr	r3, [r0, #16]
    LogLevel level = level_; // Default level
   d9188:	7e06      	ldrb	r6, [r0, #24]
LogLevel spark::detail::LogFilter::level(const char *category) const {
   d918a:	9101      	str	r1, [sp, #4]
    if (!nodes_.isEmpty() && category) {
   d918c:	b30b      	cbz	r3, d91d2 <_ZNK5spark6detail9LogFilter5levelEPKc+0x4e>
   d918e:	b301      	cbz	r1, d91d2 <_ZNK5spark6detail9LogFilter5levelEPKc+0x4e>
        size_t size = 0; // Name length
   d9190:	2500      	movs	r5, #0
        const Vector<Node> *pNodes = &nodes_; // Root nodes
   d9192:	f100 040c 	add.w	r4, r0, #12
        size_t size = 0; // Name length
   d9196:	9503      	str	r5, [sp, #12]
        while ((name = nextSubcategoryName(category, size))) {
   d9198:	a903      	add	r1, sp, #12
   d919a:	a801      	add	r0, sp, #4
   d919c:	f7ff ff36 	bl	d900c <_ZN12_GLOBAL__N_119nextSubcategoryNameERPKcRj>
   d91a0:	4601      	mov	r1, r0
   d91a2:	b1b0      	cbz	r0, d91d2 <_ZNK5spark6detail9LogFilter5levelEPKc+0x4e>
            const int index = nodeIndex(*pNodes, name, size, found);
   d91a4:	f10d 030b 	add.w	r3, sp, #11
   d91a8:	9a03      	ldr	r2, [sp, #12]
            bool found = false;
   d91aa:	f88d 500b 	strb.w	r5, [sp, #11]
            const int index = nodeIndex(*pNodes, name, size, found);
   d91ae:	4620      	mov	r0, r4
   d91b0:	f7ff ffaa 	bl	d9108 <_ZN5spark6detail9LogFilter9nodeIndexERKNS_6VectorINS1_4NodeENS_16DefaultAllocatorEEEPKcjRb>
            if (!found) {
   d91b4:	f89d 300b 	ldrb.w	r3, [sp, #11]
   d91b8:	b15b      	cbz	r3, d91d2 <_ZNK5spark6detail9LogFilter5levelEPKc+0x4e>
    return data_[i];
   d91ba:	6824      	ldr	r4, [r4, #0]
   d91bc:	2314      	movs	r3, #20
   d91be:	fb03 4000 	mla	r0, r3, r0, r4
            pNodes = &node.nodes;
   d91c2:	f100 0408 	add.w	r4, r0, #8
            if (node.level >= 0) {
   d91c6:	f9b0 3006 	ldrsh.w	r3, [r0, #6]
   d91ca:	2b00      	cmp	r3, #0
                level = (LogLevel)node.level;
   d91cc:	bfa8      	it	ge
   d91ce:	b2de      	uxtbge	r6, r3
        while ((name = nextSubcategoryName(category, size))) {
   d91d0:	e7e2      	b.n	d9198 <_ZNK5spark6detail9LogFilter5levelEPKc+0x14>
}
   d91d2:	4630      	mov	r0, r6
   d91d4:	b004      	add	sp, #16
   d91d6:	bd70      	pop	{r4, r5, r6, pc}

000d91d8 <_ZN5spark24DefaultLogHandlerFactory8instanceEv>:
spark::DefaultLogHandlerFactory* spark::DefaultLogHandlerFactory::instance() {
   d91d8:	b510      	push	{r4, lr}
    static DefaultLogHandlerFactory factory;
   d91da:	4c0a      	ldr	r4, [pc, #40]	; (d9204 <_ZN5spark24DefaultLogHandlerFactory8instanceEv+0x2c>)
   d91dc:	7823      	ldrb	r3, [r4, #0]
   d91de:	f3bf 8f5b 	dmb	ish
   d91e2:	07db      	lsls	r3, r3, #31
   d91e4:	d40b      	bmi.n	d91fe <_ZN5spark24DefaultLogHandlerFactory8instanceEv+0x26>
   d91e6:	4620      	mov	r0, r4
   d91e8:	f7fa ff66 	bl	d40b8 <__cxa_guard_acquire>
   d91ec:	b138      	cbz	r0, d91fe <_ZN5spark24DefaultLogHandlerFactory8instanceEv+0x26>
   d91ee:	4620      	mov	r0, r4
   d91f0:	f7fa ff67 	bl	d40c2 <__cxa_guard_release>
   d91f4:	4a04      	ldr	r2, [pc, #16]	; (d9208 <_ZN5spark24DefaultLogHandlerFactory8instanceEv+0x30>)
   d91f6:	4905      	ldr	r1, [pc, #20]	; (d920c <_ZN5spark24DefaultLogHandlerFactory8instanceEv+0x34>)
   d91f8:	4805      	ldr	r0, [pc, #20]	; (d9210 <_ZN5spark24DefaultLogHandlerFactory8instanceEv+0x38>)
   d91fa:	f001 ff69 	bl	db0d0 <__aeabi_atexit>
}
   d91fe:	4804      	ldr	r0, [pc, #16]	; (d9210 <_ZN5spark24DefaultLogHandlerFactory8instanceEv+0x38>)
   d9200:	bd10      	pop	{r4, pc}
   d9202:	bf00      	nop
   d9204:	2003e5d8 	.word	0x2003e5d8
   d9208:	2003e3c0 	.word	0x2003e3c0
   d920c:	000d9009 	.word	0x000d9009
   d9210:	2003e1d0 	.word	0x2003e1d0

000d9214 <_ZN5spark26DefaultOutputStreamFactory8instanceEv>:

spark::DefaultOutputStreamFactory* spark::DefaultOutputStreamFactory::instance() {
   d9214:	b510      	push	{r4, lr}
    static DefaultOutputStreamFactory factory;
   d9216:	4c0a      	ldr	r4, [pc, #40]	; (d9240 <_ZN5spark26DefaultOutputStreamFactory8instanceEv+0x2c>)
   d9218:	7823      	ldrb	r3, [r4, #0]
   d921a:	f3bf 8f5b 	dmb	ish
   d921e:	07db      	lsls	r3, r3, #31
   d9220:	d40b      	bmi.n	d923a <_ZN5spark26DefaultOutputStreamFactory8instanceEv+0x26>
   d9222:	4620      	mov	r0, r4
   d9224:	f7fa ff48 	bl	d40b8 <__cxa_guard_acquire>
   d9228:	b138      	cbz	r0, d923a <_ZN5spark26DefaultOutputStreamFactory8instanceEv+0x26>
   d922a:	4620      	mov	r0, r4
   d922c:	f7fa ff49 	bl	d40c2 <__cxa_guard_release>
   d9230:	4a04      	ldr	r2, [pc, #16]	; (d9244 <_ZN5spark26DefaultOutputStreamFactory8instanceEv+0x30>)
   d9232:	4905      	ldr	r1, [pc, #20]	; (d9248 <_ZN5spark26DefaultOutputStreamFactory8instanceEv+0x34>)
   d9234:	4805      	ldr	r0, [pc, #20]	; (d924c <_ZN5spark26DefaultOutputStreamFactory8instanceEv+0x38>)
   d9236:	f001 ff4b 	bl	db0d0 <__aeabi_atexit>
    return &factory;
}
   d923a:	4804      	ldr	r0, [pc, #16]	; (d924c <_ZN5spark26DefaultOutputStreamFactory8instanceEv+0x38>)
   d923c:	bd10      	pop	{r4, pc}
   d923e:	bf00      	nop
   d9240:	2003e5dc 	.word	0x2003e5dc
   d9244:	2003e3c0 	.word	0x2003e3c0
   d9248:	000d9007 	.word	0x000d9007
   d924c:	2003e1d4 	.word	0x2003e1d4

000d9250 <_ZN5spark10LogManagerC1Ev>:
    Print *stream;
};

#endif // Wiring_LogConfig

spark::LogManager::LogManager() {
   d9250:	b538      	push	{r3, r4, r5, lr}
        capacity_(0) {
   d9252:	2500      	movs	r5, #0
   d9254:	4604      	mov	r4, r0
   d9256:	e9c0 5500 	strd	r5, r5, [r0]
   d925a:	e9c0 5504 	strd	r5, r5, [r0, #16]
   d925e:	6085      	str	r5, [r0, #8]
   d9260:	6185      	str	r5, [r0, #24]
    RecursiveMutex() : handle_(nullptr)
   d9262:	f840 5f24 	str.w	r5, [r0, #36]!
        os_mutex_recursive_create(&handle_);
   d9266:	f7fe fa9d 	bl	d77a4 <os_mutex_recursive_create>
#if Wiring_LogConfig
    handlerFactory_ = DefaultLogHandlerFactory::instance();
   d926a:	f7ff ffb5 	bl	d91d8 <_ZN5spark24DefaultLogHandlerFactory8instanceEv>
   d926e:	61e0      	str	r0, [r4, #28]
    streamFactory_ = DefaultOutputStreamFactory::instance();
   d9270:	f7ff ffd0 	bl	d9214 <_ZN5spark26DefaultOutputStreamFactory8instanceEv>
#endif
    outputActive_ = false;
   d9274:	7325      	strb	r5, [r4, #12]
    streamFactory_ = DefaultOutputStreamFactory::instance();
   d9276:	6220      	str	r0, [r4, #32]
}
   d9278:	4620      	mov	r0, r4
   d927a:	bd38      	pop	{r3, r4, r5, pc}

000d927c <_ZN5spark10LogManager8instanceEv>:
            resetSystemCallbacks();
        }
    }
}

spark::LogManager* spark::LogManager::instance() {
   d927c:	b510      	push	{r4, lr}
    static LogManager mgr;
   d927e:	4c0b      	ldr	r4, [pc, #44]	; (d92ac <_ZN5spark10LogManager8instanceEv+0x30>)
   d9280:	7823      	ldrb	r3, [r4, #0]
   d9282:	f3bf 8f5b 	dmb	ish
   d9286:	07db      	lsls	r3, r3, #31
   d9288:	d40e      	bmi.n	d92a8 <_ZN5spark10LogManager8instanceEv+0x2c>
   d928a:	4620      	mov	r0, r4
   d928c:	f7fa ff14 	bl	d40b8 <__cxa_guard_acquire>
   d9290:	b150      	cbz	r0, d92a8 <_ZN5spark10LogManager8instanceEv+0x2c>
   d9292:	4807      	ldr	r0, [pc, #28]	; (d92b0 <_ZN5spark10LogManager8instanceEv+0x34>)
   d9294:	f7ff ffdc 	bl	d9250 <_ZN5spark10LogManagerC1Ev>
   d9298:	4620      	mov	r0, r4
   d929a:	f7fa ff12 	bl	d40c2 <__cxa_guard_release>
   d929e:	4a05      	ldr	r2, [pc, #20]	; (d92b4 <_ZN5spark10LogManager8instanceEv+0x38>)
   d92a0:	4905      	ldr	r1, [pc, #20]	; (d92b8 <_ZN5spark10LogManager8instanceEv+0x3c>)
   d92a2:	4803      	ldr	r0, [pc, #12]	; (d92b0 <_ZN5spark10LogManager8instanceEv+0x34>)
   d92a4:	f001 ff14 	bl	db0d0 <__aeabi_atexit>
    return &mgr;
}
   d92a8:	4801      	ldr	r0, [pc, #4]	; (d92b0 <_ZN5spark10LogManager8instanceEv+0x34>)
   d92aa:	bd10      	pop	{r4, pc}
   d92ac:	2003e5d4 	.word	0x2003e5d4
   d92b0:	2003e5e4 	.word	0x2003e5e4
   d92b4:	2003e3c0 	.word	0x2003e3c0
   d92b8:	000d9711 	.word	0x000d9711

000d92bc <_ZN5spark10LogManager18setSystemCallbacksEv>:
}

#endif // Wiring_LogConfig

void spark::LogManager::setSystemCallbacks() {
    log_set_callbacks(logMessage, logWrite, logEnabled, nullptr);
   d92bc:	4a02      	ldr	r2, [pc, #8]	; (d92c8 <_ZN5spark10LogManager18setSystemCallbacksEv+0xc>)
   d92be:	4903      	ldr	r1, [pc, #12]	; (d92cc <_ZN5spark10LogManager18setSystemCallbacksEv+0x10>)
   d92c0:	4803      	ldr	r0, [pc, #12]	; (d92d0 <_ZN5spark10LogManager18setSystemCallbacksEv+0x14>)
   d92c2:	2300      	movs	r3, #0
   d92c4:	f7fe bc5e 	b.w	d7b84 <log_set_callbacks>
   d92c8:	000d95ed 	.word	0x000d95ed
   d92cc:	000d9579 	.word	0x000d9579
   d92d0:	000d94f9 	.word	0x000d94f9

000d92d4 <_ZN5spark10LogManager20resetSystemCallbacksEv>:
}

void spark::LogManager::resetSystemCallbacks() {
    log_set_callbacks(nullptr, nullptr, nullptr, nullptr);
   d92d4:	2300      	movs	r3, #0
   d92d6:	461a      	mov	r2, r3
   d92d8:	4619      	mov	r1, r3
   d92da:	4618      	mov	r0, r3
   d92dc:	f7fe bc52 	b.w	d7b84 <log_set_callbacks>

000d92e0 <_ZNK5spark18JSONObjectIterator5valueEv>:
inline spark::JSONValue spark::JSONObjectIterator::value() const {
   d92e0:	b537      	push	{r0, r1, r2, r4, r5, lr}
    return JSONValue(v_, d_);
   d92e2:	690d      	ldr	r5, [r1, #16]
      __shared_ptr(const __shared_ptr&) noexcept = default;
   d92e4:	f851 3b04 	ldr.w	r3, [r1], #4
   d92e8:	9300      	str	r3, [sp, #0]
inline spark::JSONValue spark::JSONObjectIterator::value() const {
   d92ea:	4604      	mov	r4, r0
   d92ec:	a801      	add	r0, sp, #4
   d92ee:	f7fe fe38 	bl	d7f62 <_ZNSt14__shared_countILN9__gnu_cxx12_Lock_policyE0EEC1ERKS2_>
    return JSONValue(v_, d_);
   d92f2:	466a      	mov	r2, sp
   d92f4:	4629      	mov	r1, r5
   d92f6:	4620      	mov	r0, r4
   d92f8:	f7ff fd15 	bl	d8d26 <_ZN5spark9JSONValueC1EPK9jsmntok_tSt10shared_ptrINS_6detail8JSONDataEE>
      ~__shared_ptr() = default;
   d92fc:	a801      	add	r0, sp, #4
   d92fe:	f7fb fe8b 	bl	d5018 <_ZNSt14__shared_countILN9__gnu_cxx12_Lock_policyE0EED1Ev>
}
   d9302:	4620      	mov	r0, r4
   d9304:	b003      	add	sp, #12
   d9306:	bd30      	pop	{r4, r5, pc}

000d9308 <_ZN5spark18JSONObjectIteratorC1ERKNS_9JSONValueE>:
inline spark::JSONObjectIterator::JSONObjectIterator(const JSONValue &value) :
   d9308:	b537      	push	{r0, r1, r2, r4, r5, lr}
        JSONObjectIterator(value.t_, value.d_) {
   d930a:	688d      	ldr	r5, [r1, #8]
      __shared_ptr(const __shared_ptr&) noexcept = default;
   d930c:	f851 3b04 	ldr.w	r3, [r1], #4
   d9310:	9300      	str	r3, [sp, #0]
inline spark::JSONObjectIterator::JSONObjectIterator(const JSONValue &value) :
   d9312:	4604      	mov	r4, r0
   d9314:	a801      	add	r0, sp, #4
   d9316:	f7fe fe24 	bl	d7f62 <_ZNSt14__shared_countILN9__gnu_cxx12_Lock_policyE0EEC1ERKS2_>
        JSONObjectIterator(value.t_, value.d_) {
   d931a:	466a      	mov	r2, sp
   d931c:	4629      	mov	r1, r5
   d931e:	4620      	mov	r0, r4
   d9320:	f7ff fd7c 	bl	d8e1c <_ZN5spark18JSONObjectIteratorC1EPK9jsmntok_tSt10shared_ptrINS_6detail8JSONDataEE>
      ~__shared_ptr() = default;
   d9324:	a801      	add	r0, sp, #4
   d9326:	f7fb fe77 	bl	d5018 <_ZNSt14__shared_countILN9__gnu_cxx12_Lock_policyE0EED1Ev>
}
   d932a:	4620      	mov	r0, r4
   d932c:	b003      	add	sp, #12
   d932e:	bd30      	pop	{r4, r5, pc}

000d9330 <_ZNK5spark18JSONObjectIterator4nameEv>:
inline spark::JSONString spark::JSONObjectIterator::name() const {
   d9330:	b537      	push	{r0, r1, r2, r4, r5, lr}
    return JSONString(k_, d_);
   d9332:	68cd      	ldr	r5, [r1, #12]
      __shared_ptr(const __shared_ptr&) noexcept = default;
   d9334:	f851 3b04 	ldr.w	r3, [r1], #4
   d9338:	9300      	str	r3, [sp, #0]
inline spark::JSONString spark::JSONObjectIterator::name() const {
   d933a:	4604      	mov	r4, r0
   d933c:	a801      	add	r0, sp, #4
   d933e:	f7fe fe10 	bl	d7f62 <_ZNSt14__shared_countILN9__gnu_cxx12_Lock_policyE0EEC1ERKS2_>
    return JSONString(k_, d_);
   d9342:	466a      	mov	r2, sp
   d9344:	4629      	mov	r1, r5
   d9346:	4620      	mov	r0, r4
   d9348:	f7ff fd44 	bl	d8dd4 <_ZN5spark10JSONStringC1EPK9jsmntok_tSt10shared_ptrINS_6detail8JSONDataEE>
      ~__shared_ptr() = default;
   d934c:	a801      	add	r0, sp, #4
   d934e:	f7fb fe63 	bl	d5018 <_ZNSt14__shared_countILN9__gnu_cxx12_Lock_policyE0EED1Ev>
}
   d9352:	4620      	mov	r0, r4
   d9354:	b003      	add	sp, #12
   d9356:	bd30      	pop	{r4, r5, pc}

000d9358 <_ZN5spark26DefaultOutputStreamFactory9getParamsERKNS_9JSONValueEPi>:
void spark::DefaultOutputStreamFactory::getParams(const JSONValue &params, int *baudRate) {
   d9358:	b570      	push	{r4, r5, r6, lr}
   d935a:	b08a      	sub	sp, #40	; 0x28
   d935c:	460d      	mov	r5, r1
    JSONObjectIterator it(params);
   d935e:	4601      	mov	r1, r0
   d9360:	a804      	add	r0, sp, #16
   d9362:	f7ff ffd1 	bl	d9308 <_ZN5spark18JSONObjectIteratorC1ERKNS_9JSONValueE>
        if (it.name() == "baud" && baudRate) {
   d9366:	4e14      	ldr	r6, [pc, #80]	; (d93b8 <_ZN5spark26DefaultOutputStreamFactory9getParamsERKNS_9JSONValueEPi+0x60>)
    while (it.next()) {
   d9368:	a804      	add	r0, sp, #16
   d936a:	f7ff fd6f 	bl	d8e4c <_ZN5spark18JSONObjectIterator4nextEv>
   d936e:	b1e8      	cbz	r0, d93ac <_ZN5spark26DefaultOutputStreamFactory9getParamsERKNS_9JSONValueEPi+0x54>
        if (it.name() == "baud" && baudRate) {
   d9370:	a904      	add	r1, sp, #16
   d9372:	4668      	mov	r0, sp
   d9374:	f7ff ffdc 	bl	d9330 <_ZNK5spark18JSONObjectIterator4nameEv>
   d9378:	9802      	ldr	r0, [sp, #8]
   d937a:	4631      	mov	r1, r6
   d937c:	f7ff fe6d 	bl	d905a <_ZNK5spark10JSONStringeqEPKc.isra.0>
   d9380:	4604      	mov	r4, r0
   d9382:	b110      	cbz	r0, d938a <_ZN5spark26DefaultOutputStreamFactory9getParamsERKNS_9JSONValueEPi+0x32>
   d9384:	1e2c      	subs	r4, r5, #0
   d9386:	bf18      	it	ne
   d9388:	2401      	movne	r4, #1
   d938a:	a801      	add	r0, sp, #4
   d938c:	f7fb fe44 	bl	d5018 <_ZNSt14__shared_countILN9__gnu_cxx12_Lock_policyE0EED1Ev>
   d9390:	2c00      	cmp	r4, #0
   d9392:	d0e9      	beq.n	d9368 <_ZN5spark26DefaultOutputStreamFactory9getParamsERKNS_9JSONValueEPi+0x10>
            *baudRate = it.value().toInt();
   d9394:	a904      	add	r1, sp, #16
   d9396:	4668      	mov	r0, sp
   d9398:	f7ff ffa2 	bl	d92e0 <_ZNK5spark18JSONObjectIterator5valueEv>
   d939c:	4668      	mov	r0, sp
   d939e:	f7ff fcf8 	bl	d8d92 <_ZNK5spark9JSONValue5toIntEv>
   d93a2:	6028      	str	r0, [r5, #0]
   d93a4:	a801      	add	r0, sp, #4
   d93a6:	f7fb fe37 	bl	d5018 <_ZNSt14__shared_countILN9__gnu_cxx12_Lock_policyE0EED1Ev>
   d93aa:	e7dd      	b.n	d9368 <_ZN5spark26DefaultOutputStreamFactory9getParamsERKNS_9JSONValueEPi+0x10>
   d93ac:	a805      	add	r0, sp, #20
   d93ae:	f7fb fe33 	bl	d5018 <_ZNSt14__shared_countILN9__gnu_cxx12_Lock_policyE0EED1Ev>
}
   d93b2:	b00a      	add	sp, #40	; 0x28
   d93b4:	bd70      	pop	{r4, r5, r6, pc}
   d93b6:	bf00      	nop
   d93b8:	000de7fa 	.word	0x000de7fa

000d93bc <_ZN5spark26DefaultOutputStreamFactory12createStreamEPKcRKNS_9JSONValueE>:
Print* spark::DefaultOutputStreamFactory::createStream(const char *type, const JSONValue &params) {
   d93bc:	b537      	push	{r0, r1, r2, r4, r5, lr}
   d93be:	460c      	mov	r4, r1
    if (strcmp(type, "Serial") == 0) {
   d93c0:	4620      	mov	r0, r4
   d93c2:	4912      	ldr	r1, [pc, #72]	; (d940c <_ZN5spark26DefaultOutputStreamFactory12createStreamEPKcRKNS_9JSONValueE+0x50>)
Print* spark::DefaultOutputStreamFactory::createStream(const char *type, const JSONValue &params) {
   d93c4:	4615      	mov	r5, r2
    if (strcmp(type, "Serial") == 0) {
   d93c6:	f002 fc9c 	bl	dbd02 <strcmp>
   d93ca:	b948      	cbnz	r0, d93e0 <_ZN5spark26DefaultOutputStreamFactory12createStreamEPKcRKNS_9JSONValueE+0x24>
        Serial.begin();
   d93cc:	f001 fc9a 	bl	dad04 <_Z16_fetch_usbserialv>
   d93d0:	f44f 5116 	mov.w	r1, #9600	; 0x2580
   d93d4:	f001 fc86 	bl	dace4 <_ZN9USBSerial5beginEl>
        return &Serial;
   d93d8:	f001 fc94 	bl	dad04 <_Z16_fetch_usbserialv>
}
   d93dc:	b003      	add	sp, #12
   d93de:	bd30      	pop	{r4, r5, pc}
    if (strcmp(type, "Serial1") == 0) {
   d93e0:	490b      	ldr	r1, [pc, #44]	; (d9410 <_ZN5spark26DefaultOutputStreamFactory12createStreamEPKcRKNS_9JSONValueE+0x54>)
   d93e2:	4620      	mov	r0, r4
   d93e4:	f002 fc8d 	bl	dbd02 <strcmp>
   d93e8:	b970      	cbnz	r0, d9408 <_ZN5spark26DefaultOutputStreamFactory12createStreamEPKcRKNS_9JSONValueE+0x4c>
        int baud = 9600;
   d93ea:	f44f 5316 	mov.w	r3, #9600	; 0x2580
        getParams(params, &baud);
   d93ee:	a901      	add	r1, sp, #4
   d93f0:	4628      	mov	r0, r5
        int baud = 9600;
   d93f2:	9301      	str	r3, [sp, #4]
        getParams(params, &baud);
   d93f4:	f7ff ffb0 	bl	d9358 <_ZN5spark26DefaultOutputStreamFactory9getParamsERKNS_9JSONValueEPi>
        Serial1.begin(baud);
   d93f8:	f001 fbf8 	bl	dabec <_Z22__fetch_global_Serial1v>
   d93fc:	9901      	ldr	r1, [sp, #4]
   d93fe:	f001 fbef 	bl	dabe0 <_ZN11USARTSerial5beginEm>
        return &Serial1;
   d9402:	f001 fbf3 	bl	dabec <_Z22__fetch_global_Serial1v>
   d9406:	e7e9      	b.n	d93dc <_ZN5spark26DefaultOutputStreamFactory12createStreamEPKcRKNS_9JSONValueE+0x20>
    return nullptr;
   d9408:	2000      	movs	r0, #0
   d940a:	e7e7      	b.n	d93dc <_ZN5spark26DefaultOutputStreamFactory12createStreamEPKcRKNS_9JSONValueE+0x20>
   d940c:	000de7ff 	.word	0x000de7ff
   d9410:	000de806 	.word	0x000de806

000d9414 <_ZN5spark6VectorINS_6detail9LogFilter4NodeENS_16DefaultAllocatorEED1Ev>:
inline spark::Vector<T, AllocatorT>::~Vector() {
   d9414:	b570      	push	{r4, r5, r6, lr}
    destruct(data_, data_ + size_);
   d9416:	e9d0 5300 	ldrd	r5, r3, [r0]
   d941a:	2614      	movs	r6, #20
inline spark::Vector<T, AllocatorT>::~Vector() {
   d941c:	4604      	mov	r4, r0
    destruct(data_, data_ + size_);
   d941e:	fb06 5603 	mla	r6, r6, r3, r5
        for (; p != end; ++p) {
   d9422:	42ae      	cmp	r6, r5
   d9424:	d005      	beq.n	d9432 <_ZN5spark6VectorINS_6detail9LogFilter4NodeENS_16DefaultAllocatorEED1Ev+0x1e>
struct spark::detail::LogFilter::Node {
   d9426:	f105 0008 	add.w	r0, r5, #8
   d942a:	f7ff fff3 	bl	d9414 <_ZN5spark6VectorINS_6detail9LogFilter4NodeENS_16DefaultAllocatorEED1Ev>
   d942e:	3514      	adds	r5, #20
   d9430:	e7f7      	b.n	d9422 <_ZN5spark6VectorINS_6detail9LogFilter4NodeENS_16DefaultAllocatorEED1Ev+0xe>
    ::free(ptr);
   d9432:	6820      	ldr	r0, [r4, #0]
   d9434:	f7fe fd0a 	bl	d7e4c <free>
}
   d9438:	4620      	mov	r0, r4
   d943a:	bd70      	pop	{r4, r5, r6, pc}

000d943c <_ZN5spark6VectorI6StringNS_16DefaultAllocatorEED1Ev>:
inline spark::Vector<T, AllocatorT>::~Vector() {
   d943c:	b570      	push	{r4, r5, r6, lr}
    destruct(data_, data_ + size_);
   d943e:	e9d0 5300 	ldrd	r5, r3, [r0]
inline spark::Vector<T, AllocatorT>::~Vector() {
   d9442:	4604      	mov	r4, r0
    destruct(data_, data_ + size_);
   d9444:	eb05 1603 	add.w	r6, r5, r3, lsl #4
        for (; p != end; ++p) {
   d9448:	42ae      	cmp	r6, r5
   d944a:	d004      	beq.n	d9456 <_ZN5spark6VectorI6StringNS_16DefaultAllocatorEED1Ev+0x1a>
            p->~T();
   d944c:	4628      	mov	r0, r5
   d944e:	f000 ff8d 	bl	da36c <_ZN6StringD1Ev>
        for (; p != end; ++p) {
   d9452:	3510      	adds	r5, #16
   d9454:	e7f8      	b.n	d9448 <_ZN5spark6VectorI6StringNS_16DefaultAllocatorEED1Ev+0xc>
    ::free(ptr);
   d9456:	6820      	ldr	r0, [r4, #0]
   d9458:	f7fe fcf8 	bl	d7e4c <free>
}
   d945c:	4620      	mov	r0, r4
   d945e:	bd70      	pop	{r4, r5, r6, pc}

000d9460 <_ZN5spark6detail9LogFilterD1Ev>:
spark::detail::LogFilter::~LogFilter() {
   d9460:	b510      	push	{r4, lr}
   d9462:	4604      	mov	r4, r0
   d9464:	300c      	adds	r0, #12
   d9466:	f7ff ffd5 	bl	d9414 <_ZN5spark6VectorINS_6detail9LogFilter4NodeENS_16DefaultAllocatorEED1Ev>
   d946a:	4620      	mov	r0, r4
   d946c:	f7ff ffe6 	bl	d943c <_ZN5spark6VectorI6StringNS_16DefaultAllocatorEED1Ev>
}
   d9470:	4620      	mov	r0, r4
   d9472:	bd10      	pop	{r4, pc}

000d9474 <_ZN5spark16StreamLogHandlerD1Ev>:
class StreamLogHandler: public LogHandler {
   d9474:	b510      	push	{r4, lr}
    virtual ~LogHandler() = default;
   d9476:	4b04      	ldr	r3, [pc, #16]	; (d9488 <_ZN5spark16StreamLogHandlerD1Ev+0x14>)
class StreamLogHandler: public LogHandler {
   d9478:	4604      	mov	r4, r0
    virtual ~LogHandler() = default;
   d947a:	f840 3b04 	str.w	r3, [r0], #4
   d947e:	f7ff ffef 	bl	d9460 <_ZN5spark6detail9LogFilterD1Ev>
class StreamLogHandler: public LogHandler {
   d9482:	4620      	mov	r0, r4
   d9484:	bd10      	pop	{r4, pc}
   d9486:	bf00      	nop
   d9488:	000de13c 	.word	0x000de13c

000d948c <_ZN5spark16StreamLogHandlerD0Ev>:
   d948c:	b510      	push	{r4, lr}
   d948e:	4604      	mov	r4, r0
   d9490:	f7ff fff0 	bl	d9474 <_ZN5spark16StreamLogHandlerD1Ev>
   d9494:	4620      	mov	r0, r4
   d9496:	2124      	movs	r1, #36	; 0x24
   d9498:	f001 fe1f 	bl	db0da <_ZdlPvj>
   d949c:	4620      	mov	r0, r4
   d949e:	bd10      	pop	{r4, pc}

000d94a0 <_ZN5spark20JSONStreamLogHandlerD1Ev>:
class JSONStreamLogHandler: public StreamLogHandler {
   d94a0:	b510      	push	{r4, lr}
   d94a2:	4b03      	ldr	r3, [pc, #12]	; (d94b0 <_ZN5spark20JSONStreamLogHandlerD1Ev+0x10>)
   d94a4:	6003      	str	r3, [r0, #0]
   d94a6:	4604      	mov	r4, r0
   d94a8:	f7ff ffe4 	bl	d9474 <_ZN5spark16StreamLogHandlerD1Ev>
   d94ac:	4620      	mov	r0, r4
   d94ae:	bd10      	pop	{r4, pc}
   d94b0:	000de8a0 	.word	0x000de8a0

000d94b4 <_ZN5spark20JSONStreamLogHandlerD0Ev>:
   d94b4:	b510      	push	{r4, lr}
   d94b6:	4604      	mov	r4, r0
   d94b8:	f7ff fff2 	bl	d94a0 <_ZN5spark20JSONStreamLogHandlerD1Ev>
   d94bc:	4620      	mov	r0, r4
   d94be:	2124      	movs	r1, #36	; 0x24
   d94c0:	f001 fe0b 	bl	db0da <_ZdlPvj>
   d94c4:	4620      	mov	r0, r4
   d94c6:	bd10      	pop	{r4, pc}

000d94c8 <_ZN5spark6VectorINS_17LogCategoryFilterENS_16DefaultAllocatorEEC1EOS3_>:
        capacity_(0) {
   d94c8:	2200      	movs	r2, #0
   d94ca:	e9c0 2200 	strd	r2, r2, [r0]
inline spark::Vector<T, AllocatorT>::Vector(Vector<T, AllocatorT>&& vector) : Vector() {
   d94ce:	b510      	push	{r4, lr}
        capacity_(0) {
   d94d0:	6082      	str	r2, [r0, #8]
      __a = _GLIBCXX_MOVE(__b);
   d94d2:	680c      	ldr	r4, [r1, #0]
   d94d4:	6004      	str	r4, [r0, #0]
   d94d6:	684c      	ldr	r4, [r1, #4]
   d94d8:	6044      	str	r4, [r0, #4]
   d94da:	688c      	ldr	r4, [r1, #8]
      __b = _GLIBCXX_MOVE(__tmp);
   d94dc:	600a      	str	r2, [r1, #0]
   d94de:	604a      	str	r2, [r1, #4]
      __a = _GLIBCXX_MOVE(__b);
   d94e0:	6084      	str	r4, [r0, #8]
      __b = _GLIBCXX_MOVE(__tmp);
   d94e2:	608a      	str	r2, [r1, #8]
}
   d94e4:	bd10      	pop	{r4, pc}

000d94e6 <_ZNSt10lock_guardI14RecursiveMutexED1Ev>:
      ~lock_guard()
   d94e6:	b510      	push	{r4, lr}
      { _M_device.unlock(); }
   d94e8:	6803      	ldr	r3, [r0, #0]
      ~lock_guard()
   d94ea:	4604      	mov	r4, r0
    }

    void lock() { os_mutex_recursive_lock(handle_); }
    bool trylock() { return os_mutex_recursive_trylock(handle_)==0; }
    bool try_lock() { return trylock(); }
    void unlock() { os_mutex_recursive_unlock(handle_); }
   d94ec:	6818      	ldr	r0, [r3, #0]
   d94ee:	f7fe f971 	bl	d77d4 <os_mutex_recursive_unlock>
      { _M_device.unlock(); }
   d94f2:	4620      	mov	r0, r4
   d94f4:	bd10      	pop	{r4, pc}
	...

000d94f8 <_ZN5spark10LogManager10logMessageEPKciS2_PK13LogAttributesPv>:
}

void spark::LogManager::logMessage(const char *msg, int level, const char *category, const LogAttributes *attr, void *reserved) {
   d94f8:	e92d 4ff0 	stmdb	sp!, {r4, r5, r6, r7, r8, r9, sl, fp, lr}
   d94fc:	b087      	sub	sp, #28
   d94fe:	4680      	mov	r8, r0
   d9500:	9303      	str	r3, [sp, #12]
#endif /* nRF52840 */

#if defined(STM32F10X_MD) || defined(STM32F10X_HD) || defined(STM32F2XX) || defined(nRF52840)
static inline bool HAL_IsISR() 
{
	return (SCB->ICSR & SCB_ICSR_VECTACTIVE_Msk) != 0;
   d9502:	4b1c      	ldr	r3, [pc, #112]	; (d9574 <_ZN5spark10LogManager10logMessageEPKciS2_PK13LogAttributesPv+0x7c>)
   d9504:	685b      	ldr	r3, [r3, #4]
   d9506:	f3c3 0308 	ubfx	r3, r3, #0, #9
   d950a:	4689      	mov	r9, r1
   d950c:	4616      	mov	r6, r2
#ifndef LOG_FROM_ISR
    if (HAL_IsISR()) {
   d950e:	b96b      	cbnz	r3, d952c <_ZN5spark10LogManager10logMessageEPKciS2_PK13LogAttributesPv+0x34>
        return;
    }
#endif
    LogManager *that = instance();
   d9510:	f7ff feb4 	bl	d927c <_ZN5spark10LogManager8instanceEv>
   d9514:	4604      	mov	r4, r0
    LOG_WITH_LOCK(that->mutex_) {
   d9516:	f100 0324 	add.w	r3, r0, #36	; 0x24
    void lock() { os_mutex_recursive_lock(handle_); }
   d951a:	6a40      	ldr	r0, [r0, #36]	; 0x24
      explicit lock_guard(mutex_type& __m) : _M_device(__m)
   d951c:	9305      	str	r3, [sp, #20]
   d951e:	f7fe f951 	bl	d77c4 <os_mutex_recursive_lock>
        // prevent re-entry
        if (that->isActive()) {
   d9522:	7b23      	ldrb	r3, [r4, #12]
   d9524:	b12b      	cbz	r3, d9532 <_ZN5spark10LogManager10logMessageEPKciS2_PK13LogAttributesPv+0x3a>
    LOG_WITH_LOCK(that->mutex_) {
   d9526:	a805      	add	r0, sp, #20
   d9528:	f7ff ffdd 	bl	d94e6 <_ZNSt10lock_guardI14RecursiveMutexED1Ev>
        for (LogHandler *handler: that->activeHandlers_) {
            handler->message(msg, (LogLevel)level, category, *attr);
        }
        that->setActive(false);
    }
}
   d952c:	b007      	add	sp, #28
   d952e:	e8bd 8ff0 	ldmia.w	sp!, {r4, r5, r6, r7, r8, r9, sl, fp, pc}
inline bool spark::LogManager::isActive() const {
    return outputActive_;
}

inline void spark::LogManager::setActive(bool outputActive) {
    outputActive_ = outputActive;
   d9532:	2301      	movs	r3, #1
   d9534:	7323      	strb	r3, [r4, #12]
    return data_ + size_;
   d9536:	e9d4 5300 	ldrd	r5, r3, [r4]
            handler->message(msg, (LogLevel)level, category, *attr);
   d953a:	fa5f f989 	uxtb.w	r9, r9
   d953e:	eb05 0a83 	add.w	sl, r5, r3, lsl #2
        for (LogHandler *handler: that->activeHandlers_) {
   d9542:	45aa      	cmp	sl, r5
   d9544:	d012      	beq.n	d956c <_ZN5spark10LogManager10logMessageEPKciS2_PK13LogAttributesPv+0x74>
   d9546:	f855 7b04 	ldr.w	r7, [r5], #4
    if (level >= filter_.level(category)) {
   d954a:	4631      	mov	r1, r6
   d954c:	1d38      	adds	r0, r7, #4
   d954e:	f7ff fe19 	bl	d9184 <_ZNK5spark6detail9LogFilter5levelEPKc>
   d9552:	4581      	cmp	r9, r0
   d9554:	d3f5      	bcc.n	d9542 <_ZN5spark10LogManager10logMessageEPKciS2_PK13LogAttributesPv+0x4a>
        logMessage(msg, level, category, attr);
   d9556:	683b      	ldr	r3, [r7, #0]
   d9558:	9a03      	ldr	r2, [sp, #12]
   d955a:	9200      	str	r2, [sp, #0]
   d955c:	f8d3 b008 	ldr.w	fp, [r3, #8]
   d9560:	464a      	mov	r2, r9
   d9562:	4633      	mov	r3, r6
   d9564:	4641      	mov	r1, r8
   d9566:	4638      	mov	r0, r7
   d9568:	47d8      	blx	fp
   d956a:	e7ea      	b.n	d9542 <_ZN5spark10LogManager10logMessageEPKciS2_PK13LogAttributesPv+0x4a>
    outputActive_ = outputActive;
   d956c:	2300      	movs	r3, #0
   d956e:	7323      	strb	r3, [r4, #12]
   d9570:	e7d9      	b.n	d9526 <_ZN5spark10LogManager10logMessageEPKciS2_PK13LogAttributesPv+0x2e>
   d9572:	bf00      	nop
   d9574:	e000ed00 	.word	0xe000ed00

000d9578 <_ZN5spark10LogManager8logWriteEPKcjiS2_Pv>:
void spark::LogManager::logWrite(const char *data, size_t size, int level, const char *category, void *reserved) {
   d9578:	e92d 4ff7 	stmdb	sp!, {r0, r1, r2, r4, r5, r6, r7, r8, r9, sl, fp, lr}
   d957c:	469b      	mov	fp, r3
   d957e:	4b1a      	ldr	r3, [pc, #104]	; (d95e8 <_ZN5spark10LogManager8logWriteEPKcjiS2_Pv+0x70>)
   d9580:	685b      	ldr	r3, [r3, #4]
   d9582:	f3c3 0308 	ubfx	r3, r3, #0, #9
   d9586:	4680      	mov	r8, r0
   d9588:	4689      	mov	r9, r1
   d958a:	4616      	mov	r6, r2
    if (HAL_IsISR()) {
   d958c:	b96b      	cbnz	r3, d95aa <_ZN5spark10LogManager8logWriteEPKcjiS2_Pv+0x32>
    LogManager *that = instance();
   d958e:	f7ff fe75 	bl	d927c <_ZN5spark10LogManager8instanceEv>
   d9592:	4604      	mov	r4, r0
    LOG_WITH_LOCK(that->mutex_) {
   d9594:	f100 0324 	add.w	r3, r0, #36	; 0x24
   d9598:	6a40      	ldr	r0, [r0, #36]	; 0x24
   d959a:	9301      	str	r3, [sp, #4]
   d959c:	f7fe f912 	bl	d77c4 <os_mutex_recursive_lock>
        if (that->isActive()) {
   d95a0:	7b23      	ldrb	r3, [r4, #12]
   d95a2:	b12b      	cbz	r3, d95b0 <_ZN5spark10LogManager8logWriteEPKcjiS2_Pv+0x38>
    LOG_WITH_LOCK(that->mutex_) {
   d95a4:	a801      	add	r0, sp, #4
   d95a6:	f7ff ff9e 	bl	d94e6 <_ZNSt10lock_guardI14RecursiveMutexED1Ev>
}
   d95aa:	b003      	add	sp, #12
   d95ac:	e8bd 8ff0 	ldmia.w	sp!, {r4, r5, r6, r7, r8, r9, sl, fp, pc}
    outputActive_ = outputActive;
   d95b0:	2301      	movs	r3, #1
   d95b2:	7323      	strb	r3, [r4, #12]
   d95b4:	e9d4 5300 	ldrd	r5, r3, [r4]
    if (level >= filter_.level(category)) {
   d95b8:	b2f6      	uxtb	r6, r6
   d95ba:	eb05 0a83 	add.w	sl, r5, r3, lsl #2
        for (LogHandler *handler: that->activeHandlers_) {
   d95be:	4555      	cmp	r5, sl
   d95c0:	d00e      	beq.n	d95e0 <_ZN5spark10LogManager8logWriteEPKcjiS2_Pv+0x68>
   d95c2:	f855 7b04 	ldr.w	r7, [r5], #4
   d95c6:	4659      	mov	r1, fp
   d95c8:	1d38      	adds	r0, r7, #4
   d95ca:	f7ff fddb 	bl	d9184 <_ZNK5spark6detail9LogFilter5levelEPKc>
   d95ce:	4286      	cmp	r6, r0
   d95d0:	d3f5      	bcc.n	d95be <_ZN5spark10LogManager8logWriteEPKcjiS2_Pv+0x46>
        write(data, size);
   d95d2:	683b      	ldr	r3, [r7, #0]
   d95d4:	464a      	mov	r2, r9
   d95d6:	68db      	ldr	r3, [r3, #12]
   d95d8:	4641      	mov	r1, r8
   d95da:	4638      	mov	r0, r7
   d95dc:	4798      	blx	r3
   d95de:	e7ee      	b.n	d95be <_ZN5spark10LogManager8logWriteEPKcjiS2_Pv+0x46>
    outputActive_ = outputActive;
   d95e0:	2300      	movs	r3, #0
   d95e2:	7323      	strb	r3, [r4, #12]
   d95e4:	e7de      	b.n	d95a4 <_ZN5spark10LogManager8logWriteEPKcjiS2_Pv+0x2c>
   d95e6:	bf00      	nop
   d95e8:	e000ed00 	.word	0xe000ed00

000d95ec <_ZN5spark10LogManager10logEnabledEiPKcPv>:
int spark::LogManager::logEnabled(int level, const char *category, void *reserved) {
   d95ec:	e92d 41f3 	stmdb	sp!, {r0, r1, r4, r5, r6, r7, r8, lr}
   d95f0:	4b16      	ldr	r3, [pc, #88]	; (d964c <_ZN5spark10LogManager10logEnabledEiPKcPv+0x60>)
   d95f2:	685b      	ldr	r3, [r3, #4]
   d95f4:	f3c3 0308 	ubfx	r3, r3, #0, #9
   d95f8:	4605      	mov	r5, r0
   d95fa:	460f      	mov	r7, r1
    if (HAL_IsISR()) {
   d95fc:	bb1b      	cbnz	r3, d9646 <_ZN5spark10LogManager10logEnabledEiPKcPv+0x5a>
    LogManager *that = instance();
   d95fe:	f7ff fe3d 	bl	d927c <_ZN5spark10LogManager8instanceEv>
    LOG_WITH_LOCK(that->mutex_) {
   d9602:	f100 0324 	add.w	r3, r0, #36	; 0x24
    LogManager *that = instance();
   d9606:	4604      	mov	r4, r0
   d9608:	6a40      	ldr	r0, [r0, #36]	; 0x24
   d960a:	9301      	str	r3, [sp, #4]
   d960c:	f7fe f8da 	bl	d77c4 <os_mutex_recursive_lock>
   d9610:	e9d4 6300 	ldrd	r6, r3, [r4]
    int minLevel = LOG_LEVEL_NONE;
   d9614:	2446      	movs	r4, #70	; 0x46
   d9616:	eb06 0883 	add.w	r8, r6, r3, lsl #2
        for (LogHandler *handler: that->activeHandlers_) {
   d961a:	45b0      	cmp	r8, r6
   d961c:	d109      	bne.n	d9632 <_ZN5spark10LogManager10logEnabledEiPKcPv+0x46>
    LOG_WITH_LOCK(that->mutex_) {
   d961e:	a801      	add	r0, sp, #4
   d9620:	f7ff ff61 	bl	d94e6 <_ZNSt10lock_guardI14RecursiveMutexED1Ev>
    return (level >= minLevel);
   d9624:	42a5      	cmp	r5, r4
   d9626:	bfb4      	ite	lt
   d9628:	2000      	movlt	r0, #0
   d962a:	2001      	movge	r0, #1
}
   d962c:	b002      	add	sp, #8
   d962e:	e8bd 81f0 	ldmia.w	sp!, {r4, r5, r6, r7, r8, pc}
    return filter_.level(category);
   d9632:	f856 0b04 	ldr.w	r0, [r6], #4
   d9636:	4639      	mov	r1, r7
   d9638:	3004      	adds	r0, #4
   d963a:	f7ff fda3 	bl	d9184 <_ZNK5spark6detail9LogFilter5levelEPKc>
            if (level < minLevel) {
   d963e:	4284      	cmp	r4, r0
   d9640:	bfa8      	it	ge
   d9642:	4604      	movge	r4, r0
        for (LogHandler *handler: that->activeHandlers_) {
   d9644:	e7e9      	b.n	d961a <_ZN5spark10LogManager10logEnabledEiPKcPv+0x2e>
        return 0;
   d9646:	2000      	movs	r0, #0
   d9648:	e7f0      	b.n	d962c <_ZN5spark10LogManager10logEnabledEiPKcPv+0x40>
   d964a:	bf00      	nop
   d964c:	e000ed00 	.word	0xe000ed00

000d9650 <_ZN5spark6VectorIPNS_10LogHandlerENS_16DefaultAllocatorEE9removeOneERKS2_>:
inline bool spark::Vector<T, AllocatorT>::removeOne(const T &value) {
   d9650:	b570      	push	{r4, r5, r6, lr}
   d9652:	4604      	mov	r4, r0
    T* const p = find(data_, data_ + size_, value);
   d9654:	e9d0 0200 	ldrd	r0, r2, [r0]
inline bool spark::Vector<T, AllocatorT>::removeOne(const T &value) {
   d9658:	460b      	mov	r3, r1
    T* const p = find(data_, data_ + size_, value);
   d965a:	eb00 0282 	add.w	r2, r0, r2, lsl #2
        for (; p != end; ++p) {
   d965e:	4282      	cmp	r2, r0
   d9660:	d007      	beq.n	d9672 <_ZN5spark6VectorIPNS_10LogHandlerENS_16DefaultAllocatorEE9removeOneERKS2_+0x22>
   d9662:	4601      	mov	r1, r0
            if (*p == value) {
   d9664:	681d      	ldr	r5, [r3, #0]
   d9666:	f851 6b04 	ldr.w	r6, [r1], #4
   d966a:	42ae      	cmp	r6, r5
   d966c:	d003      	beq.n	d9676 <_ZN5spark6VectorIPNS_10LogHandlerENS_16DefaultAllocatorEE9removeOneERKS2_+0x26>
   d966e:	4608      	mov	r0, r1
   d9670:	e7f5      	b.n	d965e <_ZN5spark6VectorIPNS_10LogHandlerENS_16DefaultAllocatorEE9removeOneERKS2_+0xe>
        return false;
   d9672:	2000      	movs	r0, #0
}
   d9674:	bd70      	pop	{r4, r5, r6, pc}
        ::memmove(dest, p, (end - p) * sizeof(T));
   d9676:	1a52      	subs	r2, r2, r1
   d9678:	f002 fae6 	bl	dbc48 <memmove>
    --size_;
   d967c:	6863      	ldr	r3, [r4, #4]
   d967e:	3b01      	subs	r3, #1
   d9680:	6063      	str	r3, [r4, #4]
    return true;
   d9682:	2001      	movs	r0, #1
   d9684:	e7f6      	b.n	d9674 <_ZN5spark6VectorIPNS_10LogHandlerENS_16DefaultAllocatorEE9removeOneERKS2_+0x24>

000d9686 <_ZN5spark10LogManager13removeHandlerEPNS_10LogHandlerE>:
void spark::LogManager::removeHandler(LogHandler *handler) {
   d9686:	b51f      	push	{r0, r1, r2, r3, r4, lr}
    LOG_WITH_LOCK(mutex_) {
   d9688:	f100 0324 	add.w	r3, r0, #36	; 0x24
void spark::LogManager::removeHandler(LogHandler *handler) {
   d968c:	4604      	mov	r4, r0
   d968e:	6a40      	ldr	r0, [r0, #36]	; 0x24
   d9690:	9101      	str	r1, [sp, #4]
   d9692:	9303      	str	r3, [sp, #12]
   d9694:	f7fe f896 	bl	d77c4 <os_mutex_recursive_lock>
        if (activeHandlers_.removeOne(handler) && activeHandlers_.isEmpty()) {
   d9698:	a901      	add	r1, sp, #4
   d969a:	4620      	mov	r0, r4
   d969c:	f7ff ffd8 	bl	d9650 <_ZN5spark6VectorIPNS_10LogHandlerENS_16DefaultAllocatorEE9removeOneERKS2_>
   d96a0:	b118      	cbz	r0, d96aa <_ZN5spark10LogManager13removeHandlerEPNS_10LogHandlerE+0x24>
   d96a2:	6863      	ldr	r3, [r4, #4]
   d96a4:	b90b      	cbnz	r3, d96aa <_ZN5spark10LogManager13removeHandlerEPNS_10LogHandlerE+0x24>
            resetSystemCallbacks();
   d96a6:	f7ff fe15 	bl	d92d4 <_ZN5spark10LogManager20resetSystemCallbacksEv>
    LOG_WITH_LOCK(mutex_) {
   d96aa:	a803      	add	r0, sp, #12
   d96ac:	f7ff ff1b 	bl	d94e6 <_ZNSt10lock_guardI14RecursiveMutexED1Ev>
}
   d96b0:	b004      	add	sp, #16
   d96b2:	bd10      	pop	{r4, pc}

000d96b4 <_ZN5spark10LogManager22destroyFactoryHandlersEv>:
void spark::LogManager::destroyFactoryHandlers() {
   d96b4:	b570      	push	{r4, r5, r6, lr}
    return data_ + size_;
   d96b6:	e9d0 5604 	ldrd	r5, r6, [r0, #16]
   d96ba:	2318      	movs	r3, #24
   d96bc:	4604      	mov	r4, r0
   d96be:	fb03 5606 	mla	r6, r3, r6, r5
    for (const FactoryHandler &h: factoryHandlers_) {
   d96c2:	42ae      	cmp	r6, r5
   d96c4:	d015      	beq.n	d96f2 <_ZN5spark10LogManager22destroyFactoryHandlersEv+0x3e>
        activeHandlers_.removeOne(h.handler);
   d96c6:	f105 0110 	add.w	r1, r5, #16
   d96ca:	4620      	mov	r0, r4
   d96cc:	f7ff ffc0 	bl	d9650 <_ZN5spark6VectorIPNS_10LogHandlerENS_16DefaultAllocatorEE9removeOneERKS2_>
        if (activeHandlers_.isEmpty()) {
   d96d0:	6863      	ldr	r3, [r4, #4]
   d96d2:	b90b      	cbnz	r3, d96d8 <_ZN5spark10LogManager22destroyFactoryHandlersEv+0x24>
            resetSystemCallbacks();
   d96d4:	f7ff fdfe 	bl	d92d4 <_ZN5spark10LogManager20resetSystemCallbacksEv>
        handlerFactory_->destroyHandler(h.handler);
   d96d8:	69e0      	ldr	r0, [r4, #28]
   d96da:	6929      	ldr	r1, [r5, #16]
   d96dc:	6803      	ldr	r3, [r0, #0]
   d96de:	68db      	ldr	r3, [r3, #12]
   d96e0:	4798      	blx	r3
        if (h.stream) {
   d96e2:	6969      	ldr	r1, [r5, #20]
   d96e4:	b119      	cbz	r1, d96ee <_ZN5spark10LogManager22destroyFactoryHandlersEv+0x3a>
            streamFactory_->destroyStream(h.stream);
   d96e6:	6a20      	ldr	r0, [r4, #32]
   d96e8:	6803      	ldr	r3, [r0, #0]
   d96ea:	68db      	ldr	r3, [r3, #12]
   d96ec:	4798      	blx	r3
    for (const FactoryHandler &h: factoryHandlers_) {
   d96ee:	3518      	adds	r5, #24
   d96f0:	e7e7      	b.n	d96c2 <_ZN5spark10LogManager22destroyFactoryHandlersEv+0xe>
    destruct(data_, data_ + size_);
   d96f2:	e9d4 5304 	ldrd	r5, r3, [r4, #16]
   d96f6:	2618      	movs	r6, #24
   d96f8:	fb06 5603 	mla	r6, r6, r3, r5
        for (; p != end; ++p) {
   d96fc:	42ae      	cmp	r6, r5
   d96fe:	d004      	beq.n	d970a <_ZN5spark10LogManager22destroyFactoryHandlersEv+0x56>
struct spark::LogManager::FactoryHandler {
   d9700:	4628      	mov	r0, r5
   d9702:	f000 fe33 	bl	da36c <_ZN6StringD1Ev>
   d9706:	3518      	adds	r5, #24
   d9708:	e7f8      	b.n	d96fc <_ZN5spark10LogManager22destroyFactoryHandlersEv+0x48>
    size_ = 0;
   d970a:	2300      	movs	r3, #0
   d970c:	6163      	str	r3, [r4, #20]
}
   d970e:	bd70      	pop	{r4, r5, r6, pc}

000d9710 <_ZN5spark10LogManagerD1Ev>:
spark::LogManager::~LogManager() {
   d9710:	b573      	push	{r0, r1, r4, r5, r6, lr}
   d9712:	4604      	mov	r4, r0
    resetSystemCallbacks();
   d9714:	f7ff fdde 	bl	d92d4 <_ZN5spark10LogManager20resetSystemCallbacksEv>
    LOG_WITH_LOCK(mutex_) {
   d9718:	f104 0324 	add.w	r3, r4, #36	; 0x24
   d971c:	6a60      	ldr	r0, [r4, #36]	; 0x24
   d971e:	9301      	str	r3, [sp, #4]
   d9720:	f7fe f850 	bl	d77c4 <os_mutex_recursive_lock>
         destroyFactoryHandlers();
   d9724:	4620      	mov	r0, r4
   d9726:	f7ff ffc5 	bl	d96b4 <_ZN5spark10LogManager22destroyFactoryHandlersEv>
    LOG_WITH_LOCK(mutex_) {
   d972a:	a801      	add	r0, sp, #4
   d972c:	f7ff fedb 	bl	d94e6 <_ZNSt10lock_guardI14RecursiveMutexED1Ev>
        if (handle_) {
   d9730:	6a60      	ldr	r0, [r4, #36]	; 0x24
   d9732:	b108      	cbz	r0, d9738 <_ZN5spark10LogManagerD1Ev+0x28>
            os_mutex_recursive_destroy(handle_);
   d9734:	f7fe f83e 	bl	d77b4 <os_mutex_recursive_destroy>
    destruct(data_, data_ + size_);
   d9738:	e9d4 5304 	ldrd	r5, r3, [r4, #16]
   d973c:	2618      	movs	r6, #24
   d973e:	fb06 5603 	mla	r6, r6, r3, r5
        for (; p != end; ++p) {
   d9742:	42ae      	cmp	r6, r5
   d9744:	d004      	beq.n	d9750 <_ZN5spark10LogManagerD1Ev+0x40>
struct spark::LogManager::FactoryHandler {
   d9746:	4628      	mov	r0, r5
   d9748:	f000 fe10 	bl	da36c <_ZN6StringD1Ev>
   d974c:	3518      	adds	r5, #24
   d974e:	e7f8      	b.n	d9742 <_ZN5spark10LogManagerD1Ev+0x32>
    ::free(ptr);
   d9750:	6920      	ldr	r0, [r4, #16]
   d9752:	f7fe fb7b 	bl	d7e4c <free>
   d9756:	6820      	ldr	r0, [r4, #0]
   d9758:	f7fe fb78 	bl	d7e4c <free>
}
   d975c:	4620      	mov	r0, r4
   d975e:	b002      	add	sp, #8
   d9760:	bd70      	pop	{r4, r5, r6, pc}

000d9762 <_ZN5spark6VectorINS_6detail9LogFilter4NodeENS_16DefaultAllocatorEE4moveIS3_Li0EEEvPS3_S7_S7_>:
        if (dest > p && dest < end) {
   d9762:	4288      	cmp	r0, r1
    static void move(T* dest, T* p, T* end) {
   d9764:	b5f8      	push	{r3, r4, r5, r6, r7, lr}
   d9766:	4606      	mov	r6, r0
   d9768:	460c      	mov	r4, r1
   d976a:	4615      	mov	r5, r2
        if (dest > p && dest < end) {
   d976c:	d927      	bls.n	d97be <_ZN5spark6VectorINS_6detail9LogFilter4NodeENS_16DefaultAllocatorEE4moveIS3_Li0EEEvPS3_S7_S7_+0x5c>
   d976e:	4290      	cmp	r0, r2
   d9770:	d226      	bcs.n	d97c0 <_ZN5spark6VectorINS_6detail9LogFilter4NodeENS_16DefaultAllocatorEE4moveIS3_Li0EEEvPS3_S7_S7_+0x5e>
            --end;
   d9772:	f1a2 0514 	sub.w	r5, r2, #20
            dest += end - p - 1;
   d9776:	1a6c      	subs	r4, r5, r1
   d9778:	f1a1 0714 	sub.w	r7, r1, #20
   d977c:	4404      	add	r4, r0
        capacity_(0) {
   d977e:	2600      	movs	r6, #0
            for (; end != p; --end, --dest) {
   d9780:	42af      	cmp	r7, r5
   d9782:	d03d      	beq.n	d9800 <_ZN5spark6VectorINS_6detail9LogFilter4NodeENS_16DefaultAllocatorEE4moveIS3_Li0EEEvPS3_S7_S7_+0x9e>
                new(dest) T(std::move(*end));
   d9784:	b1a4      	cbz	r4, d97b0 <_ZN5spark6VectorINS_6detail9LogFilter4NodeENS_16DefaultAllocatorEE4moveIS3_Li0EEEvPS3_S7_S7_+0x4e>
struct spark::detail::LogFilter::Node {
   d9786:	682b      	ldr	r3, [r5, #0]
   d9788:	6023      	str	r3, [r4, #0]
   d978a:	88ab      	ldrh	r3, [r5, #4]
   d978c:	80a3      	strh	r3, [r4, #4]
   d978e:	f9b5 3006 	ldrsh.w	r3, [r5, #6]
   d9792:	80e3      	strh	r3, [r4, #6]
        capacity_(0) {
   d9794:	e9c4 6602 	strd	r6, r6, [r4, #8]
   d9798:	6126      	str	r6, [r4, #16]
      __a = _GLIBCXX_MOVE(__b);
   d979a:	68ab      	ldr	r3, [r5, #8]
   d979c:	60a3      	str	r3, [r4, #8]
      __b = _GLIBCXX_MOVE(__tmp);
   d979e:	60ae      	str	r6, [r5, #8]
      _Tp __tmp = _GLIBCXX_MOVE(__a);
   d97a0:	68e3      	ldr	r3, [r4, #12]
      __a = _GLIBCXX_MOVE(__b);
   d97a2:	68ea      	ldr	r2, [r5, #12]
   d97a4:	60e2      	str	r2, [r4, #12]
      __b = _GLIBCXX_MOVE(__tmp);
   d97a6:	60eb      	str	r3, [r5, #12]
      _Tp __tmp = _GLIBCXX_MOVE(__a);
   d97a8:	6923      	ldr	r3, [r4, #16]
      __a = _GLIBCXX_MOVE(__b);
   d97aa:	692a      	ldr	r2, [r5, #16]
   d97ac:	6122      	str	r2, [r4, #16]
      __b = _GLIBCXX_MOVE(__tmp);
   d97ae:	612b      	str	r3, [r5, #16]
   d97b0:	f105 0008 	add.w	r0, r5, #8
   d97b4:	f7ff fe2e 	bl	d9414 <_ZN5spark6VectorINS_6detail9LogFilter4NodeENS_16DefaultAllocatorEED1Ev>
            for (; end != p; --end, --dest) {
   d97b8:	3d14      	subs	r5, #20
   d97ba:	3c14      	subs	r4, #20
   d97bc:	e7e0      	b.n	d9780 <_ZN5spark6VectorINS_6detail9LogFilter4NodeENS_16DefaultAllocatorEE4moveIS3_Li0EEEvPS3_S7_S7_+0x1e>
        } else if (dest != p) {
   d97be:	d01f      	beq.n	d9800 <_ZN5spark6VectorINS_6detail9LogFilter4NodeENS_16DefaultAllocatorEE4moveIS3_Li0EEEvPS3_S7_S7_+0x9e>
        capacity_(0) {
   d97c0:	2700      	movs	r7, #0
            for (; p != end; ++p, ++dest) {
   d97c2:	42ac      	cmp	r4, r5
   d97c4:	d01c      	beq.n	d9800 <_ZN5spark6VectorINS_6detail9LogFilter4NodeENS_16DefaultAllocatorEE4moveIS3_Li0EEEvPS3_S7_S7_+0x9e>
                new(dest) T(std::move(*p));
   d97c6:	b1a6      	cbz	r6, d97f2 <_ZN5spark6VectorINS_6detail9LogFilter4NodeENS_16DefaultAllocatorEE4moveIS3_Li0EEEvPS3_S7_S7_+0x90>
   d97c8:	6823      	ldr	r3, [r4, #0]
   d97ca:	6033      	str	r3, [r6, #0]
   d97cc:	88a3      	ldrh	r3, [r4, #4]
   d97ce:	80b3      	strh	r3, [r6, #4]
   d97d0:	f9b4 3006 	ldrsh.w	r3, [r4, #6]
   d97d4:	80f3      	strh	r3, [r6, #6]
        capacity_(0) {
   d97d6:	e9c6 7702 	strd	r7, r7, [r6, #8]
   d97da:	6137      	str	r7, [r6, #16]
      __a = _GLIBCXX_MOVE(__b);
   d97dc:	68a3      	ldr	r3, [r4, #8]
   d97de:	60b3      	str	r3, [r6, #8]
      __b = _GLIBCXX_MOVE(__tmp);
   d97e0:	60a7      	str	r7, [r4, #8]
      _Tp __tmp = _GLIBCXX_MOVE(__a);
   d97e2:	68f3      	ldr	r3, [r6, #12]
      __a = _GLIBCXX_MOVE(__b);
   d97e4:	68e2      	ldr	r2, [r4, #12]
   d97e6:	60f2      	str	r2, [r6, #12]
      __b = _GLIBCXX_MOVE(__tmp);
   d97e8:	60e3      	str	r3, [r4, #12]
      _Tp __tmp = _GLIBCXX_MOVE(__a);
   d97ea:	6933      	ldr	r3, [r6, #16]
      __a = _GLIBCXX_MOVE(__b);
   d97ec:	6922      	ldr	r2, [r4, #16]
   d97ee:	6132      	str	r2, [r6, #16]
      __b = _GLIBCXX_MOVE(__tmp);
   d97f0:	6123      	str	r3, [r4, #16]
   d97f2:	f104 0008 	add.w	r0, r4, #8
   d97f6:	f7ff fe0d 	bl	d9414 <_ZN5spark6VectorINS_6detail9LogFilter4NodeENS_16DefaultAllocatorEED1Ev>
            for (; p != end; ++p, ++dest) {
   d97fa:	3414      	adds	r4, #20
   d97fc:	3614      	adds	r6, #20
   d97fe:	e7e0      	b.n	d97c2 <_ZN5spark6VectorINS_6detail9LogFilter4NodeENS_16DefaultAllocatorEE4moveIS3_Li0EEEvPS3_S7_S7_+0x60>
    }
   d9800:	bdf8      	pop	{r3, r4, r5, r6, r7, pc}

000d9802 <_ZN5spark6VectorIPNS_10LogHandlerENS_16DefaultAllocatorEE6insertEiS2_>:
inline bool spark::Vector<T, AllocatorT>::insert(int i, T value) {
   d9802:	b5f8      	push	{r3, r4, r5, r6, r7, lr}
    if (size_ + 1 > capacity_ && !realloc(size_ + 1)) {
   d9804:	e9d0 5301 	ldrd	r5, r3, [r0, #4]
   d9808:	429d      	cmp	r5, r3
inline bool spark::Vector<T, AllocatorT>::insert(int i, T value) {
   d980a:	4604      	mov	r4, r0
   d980c:	460e      	mov	r6, r1
   d980e:	4617      	mov	r7, r2
    if (size_ + 1 > capacity_ && !realloc(size_ + 1)) {
   d9810:	db0d      	blt.n	d982e <_ZN5spark6VectorIPNS_10LogHandlerENS_16DefaultAllocatorEE6insertEiS2_+0x2c>
   d9812:	3501      	adds	r5, #1
        if (n > 0) {
   d9814:	2d00      	cmp	r5, #0
   d9816:	6800      	ldr	r0, [r0, #0]
   d9818:	dd04      	ble.n	d9824 <_ZN5spark6VectorIPNS_10LogHandlerENS_16DefaultAllocatorEE6insertEiS2_+0x22>
    return ::realloc(ptr, size);
   d981a:	00a9      	lsls	r1, r5, #2
   d981c:	f7fe fb1e 	bl	d7e5c <realloc>
            if (!d) {
   d9820:	b918      	cbnz	r0, d982a <_ZN5spark6VectorIPNS_10LogHandlerENS_16DefaultAllocatorEE6insertEiS2_+0x28>
}
   d9822:	bdf8      	pop	{r3, r4, r5, r6, r7, pc}
    ::free(ptr);
   d9824:	f7fe fb12 	bl	d7e4c <free>
        T* d = nullptr;
   d9828:	2000      	movs	r0, #0
        data_ = d;
   d982a:	6020      	str	r0, [r4, #0]
        capacity_ = n;
   d982c:	60a5      	str	r5, [r4, #8]
    T* const p = data_ + i;
   d982e:	6825      	ldr	r5, [r4, #0]
    move(p + 1, p, data_ + size_);
   d9830:	6862      	ldr	r2, [r4, #4]
    T* const p = data_ + i;
   d9832:	eb05 0186 	add.w	r1, r5, r6, lsl #2
    move(p + 1, p, data_ + size_);
   d9836:	0092      	lsls	r2, r2, #2
        ::memmove(dest, p, (end - p) * sizeof(T));
   d9838:	eba2 0286 	sub.w	r2, r2, r6, lsl #2
   d983c:	1d08      	adds	r0, r1, #4
   d983e:	f002 fa03 	bl	dbc48 <memmove>
    new(p) T(std::move(value));
   d9842:	f845 7026 	str.w	r7, [r5, r6, lsl #2]
    ++size_;
   d9846:	6863      	ldr	r3, [r4, #4]
   d9848:	3301      	adds	r3, #1
   d984a:	6063      	str	r3, [r4, #4]
    return true;
   d984c:	2001      	movs	r0, #1
   d984e:	e7e8      	b.n	d9822 <_ZN5spark6VectorIPNS_10LogHandlerENS_16DefaultAllocatorEE6insertEiS2_+0x20>

000d9850 <_ZN5spark10LogManager10addHandlerEPNS_10LogHandlerE>:
bool spark::LogManager::addHandler(LogHandler *handler) {
   d9850:	b537      	push	{r0, r1, r2, r4, r5, lr}
    LOG_WITH_LOCK(mutex_) {
   d9852:	f100 0324 	add.w	r3, r0, #36	; 0x24
bool spark::LogManager::addHandler(LogHandler *handler) {
   d9856:	4604      	mov	r4, r0
    void lock() { os_mutex_recursive_lock(handle_); }
   d9858:	6a40      	ldr	r0, [r0, #36]	; 0x24
   d985a:	9301      	str	r3, [sp, #4]
   d985c:	460d      	mov	r5, r1
   d985e:	f7fd ffb1 	bl	d77c4 <os_mutex_recursive_lock>
    return find(data_, data_ + size_, value);
   d9862:	e9d4 3100 	ldrd	r3, r1, [r4]
   d9866:	eb03 0081 	add.w	r0, r3, r1, lsl #2
        for (; p != end; ++p) {
   d986a:	4283      	cmp	r3, r0
   d986c:	461a      	mov	r2, r3
   d986e:	d00b      	beq.n	d9888 <_ZN5spark10LogManager10addHandlerEPNS_10LogHandlerE+0x38>
            if (*p == value) {
   d9870:	6812      	ldr	r2, [r2, #0]
   d9872:	42aa      	cmp	r2, r5
   d9874:	f103 0304 	add.w	r3, r3, #4
   d9878:	d1f7      	bne.n	d986a <_ZN5spark10LogManager10addHandlerEPNS_10LogHandlerE+0x1a>
    LOG_WITH_LOCK(mutex_) {
   d987a:	a801      	add	r0, sp, #4
   d987c:	f7ff fe33 	bl	d94e6 <_ZNSt10lock_guardI14RecursiveMutexED1Ev>
            return false;
   d9880:	2500      	movs	r5, #0
}
   d9882:	4628      	mov	r0, r5
   d9884:	b003      	add	sp, #12
   d9886:	bd30      	pop	{r4, r5, pc}
    return insert(size_, std::move(value));
   d9888:	462a      	mov	r2, r5
   d988a:	4620      	mov	r0, r4
   d988c:	f7ff ffb9 	bl	d9802 <_ZN5spark6VectorIPNS_10LogHandlerENS_16DefaultAllocatorEE6insertEiS2_>
        if (activeHandlers_.contains(handler) || !activeHandlers_.append(handler)) {
   d9890:	4605      	mov	r5, r0
   d9892:	2800      	cmp	r0, #0
   d9894:	d0f1      	beq.n	d987a <_ZN5spark10LogManager10addHandlerEPNS_10LogHandlerE+0x2a>
        if (activeHandlers_.size() == 1) {
   d9896:	6863      	ldr	r3, [r4, #4]
   d9898:	2b01      	cmp	r3, #1
   d989a:	d101      	bne.n	d98a0 <_ZN5spark10LogManager10addHandlerEPNS_10LogHandlerE+0x50>
            setSystemCallbacks();
   d989c:	f7ff fd0e 	bl	d92bc <_ZN5spark10LogManager18setSystemCallbacksEv>
    LOG_WITH_LOCK(mutex_) {
   d98a0:	a801      	add	r0, sp, #4
   d98a2:	f7ff fe20 	bl	d94e6 <_ZNSt10lock_guardI14RecursiveMutexED1Ev>
   d98a6:	e7ec      	b.n	d9882 <_ZN5spark10LogManager10addHandlerEPNS_10LogHandlerE+0x32>

000d98a8 <_ZN5spark6VectorI6StringNS_16DefaultAllocatorEE4moveIS1_Li0EEEvPS1_S5_S5_>:
        if (dest > p && dest < end) {
   d98a8:	4288      	cmp	r0, r1
    static void move(T* dest, T* p, T* end) {
   d98aa:	b5f8      	push	{r3, r4, r5, r6, r7, lr}
   d98ac:	4604      	mov	r4, r0
   d98ae:	460d      	mov	r5, r1
   d98b0:	4616      	mov	r6, r2
        if (dest > p && dest < end) {
   d98b2:	d914      	bls.n	d98de <_ZN5spark6VectorI6StringNS_16DefaultAllocatorEE4moveIS1_Li0EEEvPS1_S5_S5_+0x36>
   d98b4:	4290      	cmp	r0, r2
   d98b6:	d213      	bcs.n	d98e0 <_ZN5spark6VectorI6StringNS_16DefaultAllocatorEE4moveIS1_Li0EEEvPS1_S5_S5_+0x38>
            --end;
   d98b8:	f1a2 0610 	sub.w	r6, r2, #16
            dest += end - p - 1;
   d98bc:	1a75      	subs	r5, r6, r1
   d98be:	f1a1 0710 	sub.w	r7, r1, #16
   d98c2:	442c      	add	r4, r5
            for (; end != p; --end, --dest) {
   d98c4:	42b7      	cmp	r7, r6
   d98c6:	d018      	beq.n	d98fa <_ZN5spark6VectorI6StringNS_16DefaultAllocatorEE4moveIS1_Li0EEEvPS1_S5_S5_+0x52>
                new(dest) T(std::move(*end));
   d98c8:	b11c      	cbz	r4, d98d2 <_ZN5spark6VectorI6StringNS_16DefaultAllocatorEE4moveIS1_Li0EEEvPS1_S5_S5_+0x2a>
   d98ca:	4631      	mov	r1, r6
   d98cc:	4620      	mov	r0, r4
   d98ce:	f000 fdc9 	bl	da464 <_ZN6StringC1EOS_>
                end->~T();
   d98d2:	4630      	mov	r0, r6
   d98d4:	f000 fd4a 	bl	da36c <_ZN6StringD1Ev>
            for (; end != p; --end, --dest) {
   d98d8:	3e10      	subs	r6, #16
   d98da:	3c10      	subs	r4, #16
   d98dc:	e7f2      	b.n	d98c4 <_ZN5spark6VectorI6StringNS_16DefaultAllocatorEE4moveIS1_Li0EEEvPS1_S5_S5_+0x1c>
        } else if (dest != p) {
   d98de:	d00c      	beq.n	d98fa <_ZN5spark6VectorI6StringNS_16DefaultAllocatorEE4moveIS1_Li0EEEvPS1_S5_S5_+0x52>
            for (; p != end; ++p, ++dest) {
   d98e0:	42b5      	cmp	r5, r6
   d98e2:	d00a      	beq.n	d98fa <_ZN5spark6VectorI6StringNS_16DefaultAllocatorEE4moveIS1_Li0EEEvPS1_S5_S5_+0x52>
                new(dest) T(std::move(*p));
   d98e4:	b11c      	cbz	r4, d98ee <_ZN5spark6VectorI6StringNS_16DefaultAllocatorEE4moveIS1_Li0EEEvPS1_S5_S5_+0x46>
   d98e6:	4629      	mov	r1, r5
   d98e8:	4620      	mov	r0, r4
   d98ea:	f000 fdbb 	bl	da464 <_ZN6StringC1EOS_>
                p->~T();
   d98ee:	4628      	mov	r0, r5
   d98f0:	f000 fd3c 	bl	da36c <_ZN6StringD1Ev>
            for (; p != end; ++p, ++dest) {
   d98f4:	3510      	adds	r5, #16
   d98f6:	3410      	adds	r4, #16
   d98f8:	e7f2      	b.n	d98e0 <_ZN5spark6VectorI6StringNS_16DefaultAllocatorEE4moveIS1_Li0EEEvPS1_S5_S5_+0x38>
    }
   d98fa:	bdf8      	pop	{r3, r4, r5, r6, r7, pc}

000d98fc <_ZN5spark6VectorI6StringNS_16DefaultAllocatorEE7reallocIS1_Li0EEEbi>:
    bool realloc(int n) {
   d98fc:	b570      	push	{r4, r5, r6, lr}
        if (n > 0) {
   d98fe:	1e0e      	subs	r6, r1, #0
    bool realloc(int n) {
   d9900:	4605      	mov	r5, r0
        if (n > 0) {
   d9902:	dd11      	ble.n	d9928 <_ZN5spark6VectorI6StringNS_16DefaultAllocatorEE7reallocIS1_Li0EEEbi+0x2c>
    return ::malloc(size);
   d9904:	0130      	lsls	r0, r6, #4
   d9906:	f7fe fa99 	bl	d7e3c <malloc>
            if (!d) {
   d990a:	4604      	mov	r4, r0
   d990c:	b158      	cbz	r0, d9926 <_ZN5spark6VectorI6StringNS_16DefaultAllocatorEE7reallocIS1_Li0EEEbi+0x2a>
            move(d, data_, data_ + size_);
   d990e:	e9d5 1200 	ldrd	r1, r2, [r5]
   d9912:	eb01 1202 	add.w	r2, r1, r2, lsl #4
   d9916:	f7ff ffc7 	bl	d98a8 <_ZN5spark6VectorI6StringNS_16DefaultAllocatorEE4moveIS1_Li0EEEvPS1_S5_S5_>
    ::free(ptr);
   d991a:	6828      	ldr	r0, [r5, #0]
   d991c:	f7fe fa96 	bl	d7e4c <free>
        data_ = d;
   d9920:	602c      	str	r4, [r5, #0]
        capacity_ = n;
   d9922:	60ae      	str	r6, [r5, #8]
        return true;
   d9924:	2001      	movs	r0, #1
    }
   d9926:	bd70      	pop	{r4, r5, r6, pc}
        T* d = nullptr;
   d9928:	2400      	movs	r4, #0
   d992a:	e7f6      	b.n	d991a <_ZN5spark6VectorI6StringNS_16DefaultAllocatorEE7reallocIS1_Li0EEEbi+0x1e>

000d992c <_ZN5spark6detail9LogFilterC1E8LogLevelNS_6VectorINS_17LogCategoryFilterENS_16DefaultAllocatorEEE>:
spark::detail::LogFilter::LogFilter(LogLevel level, LogCategoryFilters filters) :
   d992c:	e92d 4ff0 	stmdb	sp!, {r4, r5, r6, r7, r8, r9, sl, fp, lr}
   d9930:	4691      	mov	r9, r2
   d9932:	b097      	sub	sp, #92	; 0x5c
        capacity_(0) {
   d9934:	2300      	movs	r3, #0
   d9936:	9103      	str	r1, [sp, #12]
    if (!cats.reserve(filters.size())) {
   d9938:	f8d9 1004 	ldr.w	r1, [r9, #4]
   d993c:	930c      	str	r3, [sp, #48]	; 0x30
        level_(LOG_LEVEL_NONE) { // Fallback level that will be used in case of construction errors
   d993e:	2246      	movs	r2, #70	; 0x46
    if (n > capacity_ && !realloc(n)) {
   d9940:	4299      	cmp	r1, r3
        capacity_(0) {
   d9942:	e9c0 3300 	strd	r3, r3, [r0]
   d9946:	e9c0 3302 	strd	r3, r3, [r0, #8]
   d994a:	e9c0 3304 	strd	r3, r3, [r0, #16]
   d994e:	e9cd 330a 	strd	r3, r3, [sp, #40]	; 0x28
spark::detail::LogFilter::LogFilter(LogLevel level, LogCategoryFilters filters) :
   d9952:	4604      	mov	r4, r0
        level_(LOG_LEVEL_NONE) { // Fallback level that will be used in case of construction errors
   d9954:	7602      	strb	r2, [r0, #24]
    if (n > capacity_ && !realloc(n)) {
   d9956:	dc23      	bgt.n	d99a0 <_ZN5spark6detail9LogFilterC1E8LogLevelNS_6VectorINS_17LogCategoryFilterENS_16DefaultAllocatorEEE+0x74>
    return data_ + size_;
   d9958:	e9d9 5700 	ldrd	r5, r7, [r9]
   d995c:	2314      	movs	r3, #20
   d995e:	fb03 5707 	mla	r7, r3, r7, r5
    for (LogCategoryFilter &filter: filters) {
   d9962:	42af      	cmp	r7, r5
   d9964:	d03b      	beq.n	d99de <_ZN5spark6detail9LogFilterC1E8LogLevelNS_6VectorINS_17LogCategoryFilterENS_16DefaultAllocatorEEE+0xb2>
        cats.append(std::move(filter.cat_));
   d9966:	4629      	mov	r1, r5
   d9968:	a80d      	add	r0, sp, #52	; 0x34
   d996a:	f000 fd7b 	bl	da464 <_ZN6StringC1EOS_>
    return insert(size_, std::move(value));
   d996e:	a90d      	add	r1, sp, #52	; 0x34
   d9970:	a811      	add	r0, sp, #68	; 0x44
   d9972:	9e0b      	ldr	r6, [sp, #44]	; 0x2c
   d9974:	f000 fd76 	bl	da464 <_ZN6StringC1EOS_>
    if (size_ + 1 > capacity_ && !realloc(size_ + 1)) {
   d9978:	e9dd 130b 	ldrd	r1, r3, [sp, #44]	; 0x2c
   d997c:	4299      	cmp	r1, r3
   d997e:	da1b      	bge.n	d99b8 <_ZN5spark6detail9LogFilterC1E8LogLevelNS_6VectorINS_17LogCategoryFilterENS_16DefaultAllocatorEEE+0x8c>
    T* const p = data_ + i;
   d9980:	9b0a      	ldr	r3, [sp, #40]	; 0x28
    move(p + 1, p, data_ + size_);
   d9982:	9a0b      	ldr	r2, [sp, #44]	; 0x2c
    T* const p = data_ + i;
   d9984:	eb03 1606 	add.w	r6, r3, r6, lsl #4
    move(p + 1, p, data_ + size_);
   d9988:	eb03 1202 	add.w	r2, r3, r2, lsl #4
   d998c:	4631      	mov	r1, r6
   d998e:	f106 0010 	add.w	r0, r6, #16
   d9992:	f7ff ff89 	bl	d98a8 <_ZN5spark6VectorI6StringNS_16DefaultAllocatorEE4moveIS1_Li0EEEvPS1_S5_S5_>
    new(p) T(std::move(value));
   d9996:	b9ee      	cbnz	r6, d99d4 <_ZN5spark6detail9LogFilterC1E8LogLevelNS_6VectorINS_17LogCategoryFilterENS_16DefaultAllocatorEEE+0xa8>
    ++size_;
   d9998:	9b0b      	ldr	r3, [sp, #44]	; 0x2c
   d999a:	3301      	adds	r3, #1
   d999c:	930b      	str	r3, [sp, #44]	; 0x2c
    return true;
   d999e:	e011      	b.n	d99c4 <_ZN5spark6detail9LogFilterC1E8LogLevelNS_6VectorINS_17LogCategoryFilterENS_16DefaultAllocatorEEE+0x98>
    if (n > capacity_ && !realloc(n)) {
   d99a0:	a80a      	add	r0, sp, #40	; 0x28
   d99a2:	f7ff ffab 	bl	d98fc <_ZN5spark6VectorI6StringNS_16DefaultAllocatorEE7reallocIS1_Li0EEEbi>
   d99a6:	2800      	cmp	r0, #0
   d99a8:	d1d6      	bne.n	d9958 <_ZN5spark6detail9LogFilterC1E8LogLevelNS_6VectorINS_17LogCategoryFilterENS_16DefaultAllocatorEEE+0x2c>
    Vector<String> cats;
   d99aa:	a80a      	add	r0, sp, #40	; 0x28
   d99ac:	f7ff fd46 	bl	d943c <_ZN5spark6VectorI6StringNS_16DefaultAllocatorEED1Ev>
}
   d99b0:	4620      	mov	r0, r4
   d99b2:	b017      	add	sp, #92	; 0x5c
   d99b4:	e8bd 8ff0 	ldmia.w	sp!, {r4, r5, r6, r7, r8, r9, sl, fp, pc}
    if (size_ + 1 > capacity_ && !realloc(size_ + 1)) {
   d99b8:	3101      	adds	r1, #1
   d99ba:	a80a      	add	r0, sp, #40	; 0x28
   d99bc:	f7ff ff9e 	bl	d98fc <_ZN5spark6VectorI6StringNS_16DefaultAllocatorEE7reallocIS1_Li0EEEbi>
   d99c0:	2800      	cmp	r0, #0
   d99c2:	d1dd      	bne.n	d9980 <_ZN5spark6detail9LogFilterC1E8LogLevelNS_6VectorINS_17LogCategoryFilterENS_16DefaultAllocatorEEE+0x54>
    return insert(size_, std::move(value));
   d99c4:	a811      	add	r0, sp, #68	; 0x44
   d99c6:	f000 fcd1 	bl	da36c <_ZN6StringD1Ev>
        cats.append(std::move(filter.cat_));
   d99ca:	a80d      	add	r0, sp, #52	; 0x34
   d99cc:	f000 fcce 	bl	da36c <_ZN6StringD1Ev>
    for (LogCategoryFilter &filter: filters) {
   d99d0:	3514      	adds	r5, #20
   d99d2:	e7c6      	b.n	d9962 <_ZN5spark6detail9LogFilterC1E8LogLevelNS_6VectorINS_17LogCategoryFilterENS_16DefaultAllocatorEEE+0x36>
    new(p) T(std::move(value));
   d99d4:	a911      	add	r1, sp, #68	; 0x44
   d99d6:	4630      	mov	r0, r6
   d99d8:	f000 fd44 	bl	da464 <_ZN6StringC1EOS_>
   d99dc:	e7dc      	b.n	d9998 <_ZN5spark6detail9LogFilterC1E8LogLevelNS_6VectorINS_17LogCategoryFilterENS_16DefaultAllocatorEEE+0x6c>
        capacity_(0) {
   d99de:	2600      	movs	r6, #0
   d99e0:	e9cd 660d 	strd	r6, r6, [sp, #52]	; 0x34
   d99e4:	960f      	str	r6, [sp, #60]	; 0x3c
        size_t size = 0; // Name length
   d99e6:	4637      	mov	r7, r6
   d99e8:	f04f 0a14 	mov.w	sl, #20
    for (int i = 0; i < cats.size(); ++i) {
   d99ec:	e9dd 230a 	ldrd	r2, r3, [sp, #40]	; 0x28
   d99f0:	429e      	cmp	r6, r3
   d99f2:	f280 8097 	bge.w	d9b24 <_ZN5spark6detail9LogFilterC1E8LogLevelNS_6VectorINS_17LogCategoryFilterENS_16DefaultAllocatorEEE+0x1f8>
        const char *category = cats.at(i).c_str();
   d99f6:	0133      	lsls	r3, r6, #4
   d99f8:	58d3      	ldr	r3, [r2, r3]
   d99fa:	9308      	str	r3, [sp, #32]
        if (!category) {
   d99fc:	b90b      	cbnz	r3, d9a02 <_ZN5spark6detail9LogFilterC1E8LogLevelNS_6VectorINS_17LogCategoryFilterENS_16DefaultAllocatorEEE+0xd6>
    for (int i = 0; i < cats.size(); ++i) {
   d99fe:	3601      	adds	r6, #1
   d9a00:	e7f4      	b.n	d99ec <_ZN5spark6detail9LogFilterC1E8LogLevelNS_6VectorINS_17LogCategoryFilterENS_16DefaultAllocatorEEE+0xc0>
        size_t size = 0; // Name length
   d9a02:	fb0a f306 	mul.w	r3, sl, r6
   d9a06:	9709      	str	r7, [sp, #36]	; 0x24
   d9a08:	9302      	str	r3, [sp, #8]
        Vector<Node> *pNodes = &nodes; // Root nodes
   d9a0a:	ad0d      	add	r5, sp, #52	; 0x34
        while ((name = nextSubcategoryName(category, size))) {
   d9a0c:	a909      	add	r1, sp, #36	; 0x24
   d9a0e:	a808      	add	r0, sp, #32
   d9a10:	f7ff fafc 	bl	d900c <_ZN12_GLOBAL__N_119nextSubcategoryNameERPKcRj>
   d9a14:	4683      	mov	fp, r0
   d9a16:	2800      	cmp	r0, #0
   d9a18:	d0f1      	beq.n	d99fe <_ZN5spark6detail9LogFilterC1E8LogLevelNS_6VectorINS_17LogCategoryFilterENS_16DefaultAllocatorEEE+0xd2>
            const int index = nodeIndex(*pNodes, name, size, found);
   d9a1a:	4601      	mov	r1, r0
   d9a1c:	9a09      	ldr	r2, [sp, #36]	; 0x24
            bool found = false;
   d9a1e:	f88d 701f 	strb.w	r7, [sp, #31]
            const int index = nodeIndex(*pNodes, name, size, found);
   d9a22:	f10d 031f 	add.w	r3, sp, #31
   d9a26:	4628      	mov	r0, r5
   d9a28:	f7ff fb6e 	bl	d9108 <_ZN5spark6detail9LogFilter9nodeIndexERKNS_6VectorINS1_4NodeENS_16DefaultAllocatorEEEPKcjRb>
            if (!found && !pNodes->insert(index, Node(name, size))) { // Add node
   d9a2c:	f89d 801f 	ldrb.w	r8, [sp, #31]
            const int index = nodeIndex(*pNodes, name, size, found);
   d9a30:	9001      	str	r0, [sp, #4]
            if (!found && !pNodes->insert(index, Node(name, size))) { // Add node
   d9a32:	f1b8 0f00 	cmp.w	r8, #0
   d9a36:	d166      	bne.n	d9b06 <_ZN5spark6detail9LogFilterC1E8LogLevelNS_6VectorINS_17LogCategoryFilterENS_16DefaultAllocatorEEE+0x1da>
   d9a38:	f8bd 3024 	ldrh.w	r3, [sp, #36]	; 0x24
            level(-1) {
   d9a3c:	f8ad 3048 	strh.w	r3, [sp, #72]	; 0x48
   d9a40:	e9cd 8813 	strd	r8, r8, [sp, #76]	; 0x4c
   d9a44:	f64f 73ff 	movw	r3, #65535	; 0xffff
   d9a48:	f8cd b044 	str.w	fp, [sp, #68]	; 0x44
   d9a4c:	f8ad 304a 	strh.w	r3, [sp, #74]	; 0x4a
   d9a50:	f8cd 8054 	str.w	r8, [sp, #84]	; 0x54
    if (size_ + 1 > capacity_ && !realloc(size_ + 1)) {
   d9a54:	e9d5 3201 	ldrd	r3, r2, [r5, #4]
   d9a58:	4293      	cmp	r3, r2
   d9a5a:	db1a      	blt.n	d9a92 <_ZN5spark6detail9LogFilterC1E8LogLevelNS_6VectorINS_17LogCategoryFilterENS_16DefaultAllocatorEEE+0x166>
   d9a5c:	f103 0b01 	add.w	fp, r3, #1
        if (n > 0) {
   d9a60:	f1bb 0f00 	cmp.w	fp, #0
   d9a64:	dd4a      	ble.n	d9afc <_ZN5spark6detail9LogFilterC1E8LogLevelNS_6VectorINS_17LogCategoryFilterENS_16DefaultAllocatorEEE+0x1d0>
    return ::malloc(size);
   d9a66:	fb0a f00b 	mul.w	r0, sl, fp
   d9a6a:	f7fe f9e7 	bl	d7e3c <malloc>
            if (!d) {
   d9a6e:	9004      	str	r0, [sp, #16]
   d9a70:	2800      	cmp	r0, #0
   d9a72:	d045      	beq.n	d9b00 <_ZN5spark6detail9LogFilterC1E8LogLevelNS_6VectorINS_17LogCategoryFilterENS_16DefaultAllocatorEEE+0x1d4>
            move(d, data_, data_ + size_);
   d9a74:	e9d5 1200 	ldrd	r1, r2, [r5]
   d9a78:	fb0a 1202 	mla	r2, sl, r2, r1
   d9a7c:	f7ff fe71 	bl	d9762 <_ZN5spark6VectorINS_6detail9LogFilter4NodeENS_16DefaultAllocatorEE4moveIS3_Li0EEEvPS3_S7_S7_>
   d9a80:	9b04      	ldr	r3, [sp, #16]
    ::free(ptr);
   d9a82:	6828      	ldr	r0, [r5, #0]
   d9a84:	9304      	str	r3, [sp, #16]
   d9a86:	f7fe f9e1 	bl	d7e4c <free>
        data_ = d;
   d9a8a:	9b04      	ldr	r3, [sp, #16]
   d9a8c:	602b      	str	r3, [r5, #0]
        capacity_ = n;
   d9a8e:	f8c5 b008 	str.w	fp, [r5, #8]
    T* const p = data_ + i;
   d9a92:	9b01      	ldr	r3, [sp, #4]
   d9a94:	f8d5 b000 	ldr.w	fp, [r5]
    move(p + 1, p, data_ + size_);
   d9a98:	686a      	ldr	r2, [r5, #4]
    T* const p = data_ + i;
   d9a9a:	fb0a f303 	mul.w	r3, sl, r3
   d9a9e:	eb0b 0103 	add.w	r1, fp, r3
    move(p + 1, p, data_ + size_);
   d9aa2:	f101 0014 	add.w	r0, r1, #20
   d9aa6:	fb0a b202 	mla	r2, sl, r2, fp
   d9aaa:	9104      	str	r1, [sp, #16]
    T* const p = data_ + i;
   d9aac:	9305      	str	r3, [sp, #20]
    move(p + 1, p, data_ + size_);
   d9aae:	f7ff fe58 	bl	d9762 <_ZN5spark6VectorINS_6detail9LogFilter4NodeENS_16DefaultAllocatorEE4moveIS3_Li0EEEvPS3_S7_S7_>
    new(p) T(std::move(value));
   d9ab2:	9904      	ldr	r1, [sp, #16]
   d9ab4:	b1a9      	cbz	r1, d9ae2 <_ZN5spark6detail9LogFilterC1E8LogLevelNS_6VectorINS_17LogCategoryFilterENS_16DefaultAllocatorEEE+0x1b6>
struct spark::detail::LogFilter::Node {
   d9ab6:	9b05      	ldr	r3, [sp, #20]
   d9ab8:	9a11      	ldr	r2, [sp, #68]	; 0x44
   d9aba:	f84b 2003 	str.w	r2, [fp, r3]
   d9abe:	f8bd 3048 	ldrh.w	r3, [sp, #72]	; 0x48
   d9ac2:	808b      	strh	r3, [r1, #4]
   d9ac4:	f9bd 304a 	ldrsh.w	r3, [sp, #74]	; 0x4a
   d9ac8:	80cb      	strh	r3, [r1, #6]
        capacity_(0) {
   d9aca:	e9c1 7702 	strd	r7, r7, [r1, #8]
   d9ace:	610f      	str	r7, [r1, #16]
      __a = _GLIBCXX_MOVE(__b);
   d9ad0:	9b13      	ldr	r3, [sp, #76]	; 0x4c
   d9ad2:	608b      	str	r3, [r1, #8]
   d9ad4:	9b14      	ldr	r3, [sp, #80]	; 0x50
      __b = _GLIBCXX_MOVE(__tmp);
   d9ad6:	9713      	str	r7, [sp, #76]	; 0x4c
      __a = _GLIBCXX_MOVE(__b);
   d9ad8:	60cb      	str	r3, [r1, #12]
   d9ada:	9b15      	ldr	r3, [sp, #84]	; 0x54
      __b = _GLIBCXX_MOVE(__tmp);
   d9adc:	9714      	str	r7, [sp, #80]	; 0x50
      __a = _GLIBCXX_MOVE(__b);
   d9ade:	610b      	str	r3, [r1, #16]
      __b = _GLIBCXX_MOVE(__tmp);
   d9ae0:	9715      	str	r7, [sp, #84]	; 0x54
    ++size_;
   d9ae2:	686b      	ldr	r3, [r5, #4]
   d9ae4:	3301      	adds	r3, #1
   d9ae6:	606b      	str	r3, [r5, #4]
   d9ae8:	a813      	add	r0, sp, #76	; 0x4c
   d9aea:	f7ff fc93 	bl	d9414 <_ZN5spark6VectorINS_6detail9LogFilter4NodeENS_16DefaultAllocatorEED1Ev>
            if (!found && !pNodes->insert(index, Node(name, size))) { // Add node
   d9aee:	f1b8 0f00 	cmp.w	r8, #0
   d9af2:	d008      	beq.n	d9b06 <_ZN5spark6detail9LogFilterC1E8LogLevelNS_6VectorINS_17LogCategoryFilterENS_16DefaultAllocatorEEE+0x1da>
    Vector<Node> nodes;
   d9af4:	a80d      	add	r0, sp, #52	; 0x34
   d9af6:	f7ff fc8d 	bl	d9414 <_ZN5spark6VectorINS_6detail9LogFilter4NodeENS_16DefaultAllocatorEED1Ev>
   d9afa:	e756      	b.n	d99aa <_ZN5spark6detail9LogFilterC1E8LogLevelNS_6VectorINS_17LogCategoryFilterENS_16DefaultAllocatorEEE+0x7e>
        T* d = nullptr;
   d9afc:	4643      	mov	r3, r8
   d9afe:	e7c0      	b.n	d9a82 <_ZN5spark6detail9LogFilterC1E8LogLevelNS_6VectorINS_17LogCategoryFilterENS_16DefaultAllocatorEEE+0x156>
            if (!found && !pNodes->insert(index, Node(name, size))) { // Add node
   d9b00:	f04f 0801 	mov.w	r8, #1
   d9b04:	e7f0      	b.n	d9ae8 <_ZN5spark6detail9LogFilterC1E8LogLevelNS_6VectorINS_17LogCategoryFilterENS_16DefaultAllocatorEEE+0x1bc>
    return data_[i];
   d9b06:	9b01      	ldr	r3, [sp, #4]
   d9b08:	682d      	ldr	r5, [r5, #0]
   d9b0a:	fb0a 5503 	mla	r5, sl, r3, r5
            if (!*category) { // Check if it's last subcategory
   d9b0e:	9b08      	ldr	r3, [sp, #32]
   d9b10:	781b      	ldrb	r3, [r3, #0]
   d9b12:	b92b      	cbnz	r3, d9b20 <_ZN5spark6detail9LogFilterC1E8LogLevelNS_6VectorINS_17LogCategoryFilterENS_16DefaultAllocatorEEE+0x1f4>
                node.level = filters.at(i).level_;
   d9b14:	f8d9 3000 	ldr.w	r3, [r9]
   d9b18:	9a02      	ldr	r2, [sp, #8]
   d9b1a:	4413      	add	r3, r2
   d9b1c:	7c1b      	ldrb	r3, [r3, #16]
   d9b1e:	80eb      	strh	r3, [r5, #6]
            pNodes = &node.nodes;
   d9b20:	3508      	adds	r5, #8
        while ((name = nextSubcategoryName(category, size))) {
   d9b22:	e773      	b.n	d9a0c <_ZN5spark6detail9LogFilterC1E8LogLevelNS_6VectorINS_17LogCategoryFilterENS_16DefaultAllocatorEEE+0xe0>
      _Tp __tmp = _GLIBCXX_MOVE(__a);
   d9b24:	6821      	ldr	r1, [r4, #0]
      __a = _GLIBCXX_MOVE(__b);
   d9b26:	6022      	str	r2, [r4, #0]
      _Tp __tmp = _GLIBCXX_MOVE(__a);
   d9b28:	6862      	ldr	r2, [r4, #4]
      __a = _GLIBCXX_MOVE(__b);
   d9b2a:	6063      	str	r3, [r4, #4]
      _Tp __tmp = _GLIBCXX_MOVE(__a);
   d9b2c:	68a3      	ldr	r3, [r4, #8]
      __b = _GLIBCXX_MOVE(__tmp);
   d9b2e:	920b      	str	r2, [sp, #44]	; 0x2c
      __a = _GLIBCXX_MOVE(__b);
   d9b30:	9a0c      	ldr	r2, [sp, #48]	; 0x30
      __b = _GLIBCXX_MOVE(__tmp);
   d9b32:	930c      	str	r3, [sp, #48]	; 0x30
      _Tp __tmp = _GLIBCXX_MOVE(__a);
   d9b34:	68e3      	ldr	r3, [r4, #12]
      __a = _GLIBCXX_MOVE(__b);
   d9b36:	60a2      	str	r2, [r4, #8]
   d9b38:	9a0d      	ldr	r2, [sp, #52]	; 0x34
      __b = _GLIBCXX_MOVE(__tmp);
   d9b3a:	930d      	str	r3, [sp, #52]	; 0x34
      _Tp __tmp = _GLIBCXX_MOVE(__a);
   d9b3c:	6923      	ldr	r3, [r4, #16]
      __a = _GLIBCXX_MOVE(__b);
   d9b3e:	60e2      	str	r2, [r4, #12]
   d9b40:	9a0e      	ldr	r2, [sp, #56]	; 0x38
      __b = _GLIBCXX_MOVE(__tmp);
   d9b42:	930e      	str	r3, [sp, #56]	; 0x38
      _Tp __tmp = _GLIBCXX_MOVE(__a);
   d9b44:	6963      	ldr	r3, [r4, #20]
      __a = _GLIBCXX_MOVE(__b);
   d9b46:	6122      	str	r2, [r4, #16]
   d9b48:	9a0f      	ldr	r2, [sp, #60]	; 0x3c
      __b = _GLIBCXX_MOVE(__tmp);
   d9b4a:	930f      	str	r3, [sp, #60]	; 0x3c
    level_ = level;
   d9b4c:	9b03      	ldr	r3, [sp, #12]
   d9b4e:	910a      	str	r1, [sp, #40]	; 0x28
      __a = _GLIBCXX_MOVE(__b);
   d9b50:	6162      	str	r2, [r4, #20]
   d9b52:	7623      	strb	r3, [r4, #24]
   d9b54:	e7ce      	b.n	d9af4 <_ZN5spark6detail9LogFilterC1E8LogLevelNS_6VectorINS_17LogCategoryFilterENS_16DefaultAllocatorEEE+0x1c8>
	...

000d9b58 <_ZN5spark10LogHandlerC1E8LogLevelNS_6VectorINS_17LogCategoryFilterENS_16DefaultAllocatorEEE>:
inline spark::LogHandler::LogHandler(LogLevel level, LogCategoryFilters filters) :
   d9b58:	b57f      	push	{r0, r1, r2, r3, r4, r5, r6, lr}
        filter_(level, filters) {
   d9b5a:	4605      	mov	r5, r0
   d9b5c:	4b09      	ldr	r3, [pc, #36]	; (d9b84 <_ZN5spark10LogHandlerC1E8LogLevelNS_6VectorINS_17LogCategoryFilterENS_16DefaultAllocatorEEE+0x2c>)
   d9b5e:	f845 3b04 	str.w	r3, [r5], #4
inline spark::LogHandler::LogHandler(LogLevel level, LogCategoryFilters filters) :
   d9b62:	4604      	mov	r4, r0
   d9b64:	460e      	mov	r6, r1
        filter_(level, filters) {
   d9b66:	a801      	add	r0, sp, #4
   d9b68:	4611      	mov	r1, r2
   d9b6a:	f7fb fd39 	bl	d55e0 <_ZN5spark6VectorINS_17LogCategoryFilterENS_16DefaultAllocatorEEC1ERKS3_>
   d9b6e:	aa01      	add	r2, sp, #4
   d9b70:	4631      	mov	r1, r6
   d9b72:	4628      	mov	r0, r5
   d9b74:	f7ff feda 	bl	d992c <_ZN5spark6detail9LogFilterC1E8LogLevelNS_6VectorINS_17LogCategoryFilterENS_16DefaultAllocatorEEE>
   d9b78:	a801      	add	r0, sp, #4
   d9b7a:	f7fb fa63 	bl	d5044 <_ZN5spark6VectorINS_17LogCategoryFilterENS_16DefaultAllocatorEED1Ev>
}
   d9b7e:	4620      	mov	r0, r4
   d9b80:	b004      	add	sp, #16
   d9b82:	bd70      	pop	{r4, r5, r6, pc}
   d9b84:	000de13c 	.word	0x000de13c

000d9b88 <_ZN5spark24DefaultLogHandlerFactory13createHandlerEPKc8LogLevelNS_6VectorINS_17LogCategoryFilterENS_16DefaultAllocatorEEEP5PrintRKNS_9JSONValueE>:
            Print *stream, const JSONValue &params) {
   d9b88:	b5f0      	push	{r4, r5, r6, r7, lr}
   d9b8a:	460f      	mov	r7, r1
   d9b8c:	b087      	sub	sp, #28
    if (strcmp(type, "JSONStreamLogHandler") == 0) {
   d9b8e:	4926      	ldr	r1, [pc, #152]	; (d9c28 <_ZN5spark24DefaultLogHandlerFactory13createHandlerEPKc8LogLevelNS_6VectorINS_17LogCategoryFilterENS_16DefaultAllocatorEEEP5PrintRKNS_9JSONValueE+0xa0>)
            Print *stream, const JSONValue &params) {
   d9b90:	9c0c      	ldr	r4, [sp, #48]	; 0x30
    if (strcmp(type, "JSONStreamLogHandler") == 0) {
   d9b92:	4638      	mov	r0, r7
            Print *stream, const JSONValue &params) {
   d9b94:	4616      	mov	r6, r2
   d9b96:	461d      	mov	r5, r3
    if (strcmp(type, "JSONStreamLogHandler") == 0) {
   d9b98:	f002 f8b3 	bl	dbd02 <strcmp>
   d9b9c:	bb00      	cbnz	r0, d9be0 <_ZN5spark24DefaultLogHandlerFactory13createHandlerEPKc8LogLevelNS_6VectorINS_17LogCategoryFilterENS_16DefaultAllocatorEEEP5PrintRKNS_9JSONValueE+0x58>
        if (!stream) {
   d9b9e:	b1e4      	cbz	r4, d9bda <_ZN5spark24DefaultLogHandlerFactory13createHandlerEPKc8LogLevelNS_6VectorINS_17LogCategoryFilterENS_16DefaultAllocatorEEEP5PrintRKNS_9JSONValueE+0x52>
        return new(std::nothrow) JSONStreamLogHandler(*stream, level, std::move(filters));
   d9ba0:	4629      	mov	r1, r5
   d9ba2:	4668      	mov	r0, sp
   d9ba4:	f7ff fc90 	bl	d94c8 <_ZN5spark6VectorINS_17LogCategoryFilterENS_16DefaultAllocatorEEC1EOS3_>
   d9ba8:	4920      	ldr	r1, [pc, #128]	; (d9c2c <_ZN5spark24DefaultLogHandlerFactory13createHandlerEPKc8LogLevelNS_6VectorINS_17LogCategoryFilterENS_16DefaultAllocatorEEEP5PrintRKNS_9JSONValueE+0xa4>)
   d9baa:	2024      	movs	r0, #36	; 0x24
   d9bac:	f001 fa97 	bl	db0de <_ZnwjRKSt9nothrow_t>
   d9bb0:	4605      	mov	r5, r0
   d9bb2:	b170      	cbz	r0, d9bd2 <_ZN5spark24DefaultLogHandlerFactory13createHandlerEPKc8LogLevelNS_6VectorINS_17LogCategoryFilterENS_16DefaultAllocatorEEEP5PrintRKNS_9JSONValueE+0x4a>
        stream_(&stream) {
   d9bb4:	4669      	mov	r1, sp
   d9bb6:	a803      	add	r0, sp, #12
   d9bb8:	f7fb fd12 	bl	d55e0 <_ZN5spark6VectorINS_17LogCategoryFilterENS_16DefaultAllocatorEEC1ERKS3_>
   d9bbc:	aa03      	add	r2, sp, #12
   d9bbe:	4631      	mov	r1, r6
   d9bc0:	4628      	mov	r0, r5
   d9bc2:	f7ff ffc9 	bl	d9b58 <_ZN5spark10LogHandlerC1E8LogLevelNS_6VectorINS_17LogCategoryFilterENS_16DefaultAllocatorEEE>
   d9bc6:	a803      	add	r0, sp, #12
   d9bc8:	f7fb fa3c 	bl	d5044 <_ZN5spark6VectorINS_17LogCategoryFilterENS_16DefaultAllocatorEED1Ev>
    using StreamLogHandler::StreamLogHandler;
   d9bcc:	4b18      	ldr	r3, [pc, #96]	; (d9c30 <_ZN5spark24DefaultLogHandlerFactory13createHandlerEPKc8LogLevelNS_6VectorINS_17LogCategoryFilterENS_16DefaultAllocatorEEEP5PrintRKNS_9JSONValueE+0xa8>)
        stream_(&stream) {
   d9bce:	622c      	str	r4, [r5, #32]
    using StreamLogHandler::StreamLogHandler;
   d9bd0:	602b      	str	r3, [r5, #0]
        return new(std::nothrow) StreamLogHandler(*stream, level, std::move(filters));
   d9bd2:	4668      	mov	r0, sp
   d9bd4:	f7fb fa36 	bl	d5044 <_ZN5spark6VectorINS_17LogCategoryFilterENS_16DefaultAllocatorEED1Ev>
   d9bd8:	462c      	mov	r4, r5
}
   d9bda:	4620      	mov	r0, r4
   d9bdc:	b007      	add	sp, #28
   d9bde:	bdf0      	pop	{r4, r5, r6, r7, pc}
    } else if (strcmp(type, "StreamLogHandler") == 0) {
   d9be0:	4914      	ldr	r1, [pc, #80]	; (d9c34 <_ZN5spark24DefaultLogHandlerFactory13createHandlerEPKc8LogLevelNS_6VectorINS_17LogCategoryFilterENS_16DefaultAllocatorEEEP5PrintRKNS_9JSONValueE+0xac>)
   d9be2:	4638      	mov	r0, r7
   d9be4:	f002 f88d 	bl	dbd02 <strcmp>
   d9be8:	b9e0      	cbnz	r0, d9c24 <_ZN5spark24DefaultLogHandlerFactory13createHandlerEPKc8LogLevelNS_6VectorINS_17LogCategoryFilterENS_16DefaultAllocatorEEEP5PrintRKNS_9JSONValueE+0x9c>
        if (!stream) {
   d9bea:	2c00      	cmp	r4, #0
   d9bec:	d0f5      	beq.n	d9bda <_ZN5spark24DefaultLogHandlerFactory13createHandlerEPKc8LogLevelNS_6VectorINS_17LogCategoryFilterENS_16DefaultAllocatorEEEP5PrintRKNS_9JSONValueE+0x52>
        return new(std::nothrow) StreamLogHandler(*stream, level, std::move(filters));
   d9bee:	4629      	mov	r1, r5
   d9bf0:	4668      	mov	r0, sp
   d9bf2:	f7ff fc69 	bl	d94c8 <_ZN5spark6VectorINS_17LogCategoryFilterENS_16DefaultAllocatorEEC1EOS3_>
   d9bf6:	490d      	ldr	r1, [pc, #52]	; (d9c2c <_ZN5spark24DefaultLogHandlerFactory13createHandlerEPKc8LogLevelNS_6VectorINS_17LogCategoryFilterENS_16DefaultAllocatorEEEP5PrintRKNS_9JSONValueE+0xa4>)
   d9bf8:	2024      	movs	r0, #36	; 0x24
   d9bfa:	f001 fa70 	bl	db0de <_ZnwjRKSt9nothrow_t>
   d9bfe:	4605      	mov	r5, r0
   d9c00:	2800      	cmp	r0, #0
   d9c02:	d0e6      	beq.n	d9bd2 <_ZN5spark24DefaultLogHandlerFactory13createHandlerEPKc8LogLevelNS_6VectorINS_17LogCategoryFilterENS_16DefaultAllocatorEEEP5PrintRKNS_9JSONValueE+0x4a>
        stream_(&stream) {
   d9c04:	4669      	mov	r1, sp
   d9c06:	a803      	add	r0, sp, #12
   d9c08:	f7fb fcea 	bl	d55e0 <_ZN5spark6VectorINS_17LogCategoryFilterENS_16DefaultAllocatorEEC1ERKS3_>
   d9c0c:	aa03      	add	r2, sp, #12
   d9c0e:	4631      	mov	r1, r6
   d9c10:	4628      	mov	r0, r5
   d9c12:	f7ff ffa1 	bl	d9b58 <_ZN5spark10LogHandlerC1E8LogLevelNS_6VectorINS_17LogCategoryFilterENS_16DefaultAllocatorEEE>
   d9c16:	a803      	add	r0, sp, #12
   d9c18:	f7fb fa14 	bl	d5044 <_ZN5spark6VectorINS_17LogCategoryFilterENS_16DefaultAllocatorEED1Ev>
   d9c1c:	4b06      	ldr	r3, [pc, #24]	; (d9c38 <_ZN5spark24DefaultLogHandlerFactory13createHandlerEPKc8LogLevelNS_6VectorINS_17LogCategoryFilterENS_16DefaultAllocatorEEEP5PrintRKNS_9JSONValueE+0xb0>)
   d9c1e:	602b      	str	r3, [r5, #0]
   d9c20:	622c      	str	r4, [r5, #32]
}
   d9c22:	e7d6      	b.n	d9bd2 <_ZN5spark24DefaultLogHandlerFactory13createHandlerEPKc8LogLevelNS_6VectorINS_17LogCategoryFilterENS_16DefaultAllocatorEEEP5PrintRKNS_9JSONValueE+0x4a>
            return nullptr; // Output stream is not specified
   d9c24:	2400      	movs	r4, #0
   d9c26:	e7d8      	b.n	d9bda <_ZN5spark24DefaultLogHandlerFactory13createHandlerEPKc8LogLevelNS_6VectorINS_17LogCategoryFilterENS_16DefaultAllocatorEEEP5PrintRKNS_9JSONValueE+0x52>
   d9c28:	000de80e 	.word	0x000de80e
   d9c2c:	000de9d4 	.word	0x000de9d4
   d9c30:	000de8a0 	.word	0x000de8a0
   d9c34:	000de812 	.word	0x000de812
   d9c38:	000de888 	.word	0x000de888

000d9c3c <_GLOBAL__sub_I__ZN5spark3LogE>:
        name_(name) {
   d9c3c:	4b01      	ldr	r3, [pc, #4]	; (d9c44 <_GLOBAL__sub_I__ZN5spark3LogE+0x8>)
   d9c3e:	4a02      	ldr	r2, [pc, #8]	; (d9c48 <_GLOBAL__sub_I__ZN5spark3LogE+0xc>)
   d9c40:	601a      	str	r2, [r3, #0]
#if Wiring_LogConfig

// spark::
void spark::logProcessControlRequest(ctrl_request* req) {
    JSONRequestHandler::process(req);
}
   d9c42:	4770      	bx	lr
   d9c44:	2003e5e0 	.word	0x2003e5e0
   d9c48:	000de823 	.word	0x000de823

000d9c4c <_ZN5spark16StreamLogHandler10logMessageEPKc8LogLevelS2_RK13LogAttributes>:
void spark::StreamLogHandler::logMessage(const char *msg, LogLevel level, const char *category, const LogAttributes &attr) {
   d9c4c:	e92d 47f0 	stmdb	sp!, {r4, r5, r6, r7, r8, r9, sl, lr}
   d9c50:	9d08      	ldr	r5, [sp, #32]
    if (stream_ == &Serial && Network.listening()) {
   d9c52:	f8d0 9020 	ldr.w	r9, [r0, #32]
void spark::StreamLogHandler::logMessage(const char *msg, LogLevel level, const char *category, const LogAttributes &attr) {
   d9c56:	4604      	mov	r4, r0
   d9c58:	460e      	mov	r6, r1
   d9c5a:	4617      	mov	r7, r2
   d9c5c:	4698      	mov	r8, r3
    if (stream_ == &Serial && Network.listening()) {
   d9c5e:	f001 f851 	bl	dad04 <_Z16_fetch_usbserialv>
   d9c62:	4581      	cmp	r9, r0
   d9c64:	d04c      	beq.n	d9d00 <_ZN5spark16StreamLogHandler10logMessageEPKc8LogLevelS2_RK13LogAttributes+0xb4>
    if (attr.has_time) {
   d9c66:	792b      	ldrb	r3, [r5, #4]
   d9c68:	0719      	lsls	r1, r3, #28
   d9c6a:	d504      	bpl.n	d9c76 <_ZN5spark16StreamLogHandler10logMessageEPKc8LogLevelS2_RK13LogAttributes+0x2a>
        printf("%010u ", (unsigned)attr.time);
   d9c6c:	696a      	ldr	r2, [r5, #20]
   d9c6e:	4954      	ldr	r1, [pc, #336]	; (d9dc0 <_ZN5spark16StreamLogHandler10logMessageEPKc8LogLevelS2_RK13LogAttributes+0x174>)
   d9c70:	4620      	mov	r0, r4
   d9c72:	f7ff fa3a 	bl	d90ea <_ZN5spark16StreamLogHandler6printfEPKcz>
    if (category) {
   d9c76:	f1b8 0f00 	cmp.w	r8, #0
   d9c7a:	d00d      	beq.n	d9c98 <_ZN5spark16StreamLogHandler10logMessageEPKc8LogLevelS2_RK13LogAttributes+0x4c>
        write('[');
   d9c7c:	215b      	movs	r1, #91	; 0x5b
   d9c7e:	4620      	mov	r0, r4
   d9c80:	f7ff fa27 	bl	d90d2 <_ZN5spark16StreamLogHandler5writeEc>
        write(category);
   d9c84:	4641      	mov	r1, r8
   d9c86:	4620      	mov	r0, r4
   d9c88:	f7ff fa14 	bl	d90b4 <_ZN5spark16StreamLogHandler5writeEPKc>
        write("] ", 2);
   d9c8c:	6823      	ldr	r3, [r4, #0]
   d9c8e:	494d      	ldr	r1, [pc, #308]	; (d9dc4 <_ZN5spark16StreamLogHandler10logMessageEPKc8LogLevelS2_RK13LogAttributes+0x178>)
   d9c90:	68db      	ldr	r3, [r3, #12]
   d9c92:	2202      	movs	r2, #2
   d9c94:	4620      	mov	r0, r4
   d9c96:	4798      	blx	r3
    if (attr.has_file) {
   d9c98:	792b      	ldrb	r3, [r5, #4]
   d9c9a:	07da      	lsls	r2, r3, #31
   d9c9c:	d523      	bpl.n	d9ce6 <_ZN5spark16StreamLogHandler10logMessageEPKc8LogLevelS2_RK13LogAttributes+0x9a>
        s = extractFileName(attr.file); // Strip directory path
   d9c9e:	f8d5 8008 	ldr.w	r8, [r5, #8]
    const char *s1 = strrchr(s, '/');
   d9ca2:	212f      	movs	r1, #47	; 0x2f
   d9ca4:	4640      	mov	r0, r8
   d9ca6:	f002 f889 	bl	dbdbc <strrchr>
    if (s1) {
   d9caa:	b108      	cbz	r0, d9cb0 <_ZN5spark16StreamLogHandler10logMessageEPKc8LogLevelS2_RK13LogAttributes+0x64>
        return s1 + 1;
   d9cac:	f100 0801 	add.w	r8, r0, #1
        write(s); // File name
   d9cb0:	4641      	mov	r1, r8
   d9cb2:	4620      	mov	r0, r4
   d9cb4:	f7ff f9fe 	bl	d90b4 <_ZN5spark16StreamLogHandler5writeEPKc>
        if (attr.has_line) {
   d9cb8:	792b      	ldrb	r3, [r5, #4]
   d9cba:	079b      	lsls	r3, r3, #30
   d9cbc:	d508      	bpl.n	d9cd0 <_ZN5spark16StreamLogHandler10logMessageEPKc8LogLevelS2_RK13LogAttributes+0x84>
            write(':');
   d9cbe:	213a      	movs	r1, #58	; 0x3a
   d9cc0:	4620      	mov	r0, r4
   d9cc2:	f7ff fa06 	bl	d90d2 <_ZN5spark16StreamLogHandler5writeEc>
            printf("%d", (int)attr.line); // Line number
   d9cc6:	68ea      	ldr	r2, [r5, #12]
   d9cc8:	493f      	ldr	r1, [pc, #252]	; (d9dc8 <_ZN5spark16StreamLogHandler10logMessageEPKc8LogLevelS2_RK13LogAttributes+0x17c>)
   d9cca:	4620      	mov	r0, r4
   d9ccc:	f7ff fa0d 	bl	d90ea <_ZN5spark16StreamLogHandler6printfEPKcz>
        if (attr.has_function) {
   d9cd0:	792a      	ldrb	r2, [r5, #4]
   d9cd2:	6823      	ldr	r3, [r4, #0]
   d9cd4:	f012 0f04 	tst.w	r2, #4
   d9cd8:	68db      	ldr	r3, [r3, #12]
            write(", ", 2);
   d9cda:	bf14      	ite	ne
   d9cdc:	493b      	ldrne	r1, [pc, #236]	; (d9dcc <_ZN5spark16StreamLogHandler10logMessageEPKc8LogLevelS2_RK13LogAttributes+0x180>)
            write(": ", 2);
   d9cde:	493c      	ldreq	r1, [pc, #240]	; (d9dd0 <_ZN5spark16StreamLogHandler10logMessageEPKc8LogLevelS2_RK13LogAttributes+0x184>)
            write(", ", 2);
   d9ce0:	2202      	movs	r2, #2
            write(": ", 2);
   d9ce2:	4620      	mov	r0, r4
   d9ce4:	4798      	blx	r3
    if (attr.has_function) {
   d9ce6:	792b      	ldrb	r3, [r5, #4]
   d9ce8:	0758      	lsls	r0, r3, #29
   d9cea:	d51d      	bpl.n	d9d28 <_ZN5spark16StreamLogHandler10logMessageEPKc8LogLevelS2_RK13LogAttributes+0xdc>
        s = extractFuncName(attr.function, &n); // Strip argument and return types
   d9cec:	6929      	ldr	r1, [r5, #16]
const char* extractFuncName(const char *s, size_t *size) {
   d9cee:	460b      	mov	r3, r1
   d9cf0:	461a      	mov	r2, r3
    for (; *s; ++s) {
   d9cf2:	f813 0b01 	ldrb.w	r0, [r3], #1
   d9cf6:	b160      	cbz	r0, d9d12 <_ZN5spark16StreamLogHandler10logMessageEPKc8LogLevelS2_RK13LogAttributes+0xc6>
        if (*s == ' ') {
   d9cf8:	2820      	cmp	r0, #32
   d9cfa:	d108      	bne.n	d9d0e <_ZN5spark16StreamLogHandler10logMessageEPKc8LogLevelS2_RK13LogAttributes+0xc2>
            s1 = s + 1; // Skip return type
   d9cfc:	4619      	mov	r1, r3
   d9cfe:	e7f7      	b.n	d9cf0 <_ZN5spark16StreamLogHandler10logMessageEPKc8LogLevelS2_RK13LogAttributes+0xa4>
    if (stream_ == &Serial && Network.listening()) {
   d9d00:	4834      	ldr	r0, [pc, #208]	; (d9dd4 <_ZN5spark16StreamLogHandler10logMessageEPKc8LogLevelS2_RK13LogAttributes+0x188>)
   d9d02:	f000 f966 	bl	d9fd2 <_ZN5spark12NetworkClass9listeningEv>
   d9d06:	2800      	cmp	r0, #0
   d9d08:	d0ad      	beq.n	d9c66 <_ZN5spark16StreamLogHandler10logMessageEPKc8LogLevelS2_RK13LogAttributes+0x1a>
}
   d9d0a:	e8bd 87f0 	ldmia.w	sp!, {r4, r5, r6, r7, r8, r9, sl, pc}
        } else if (*s == '(') {
   d9d0e:	2828      	cmp	r0, #40	; 0x28
   d9d10:	d1ee      	bne.n	d9cf0 <_ZN5spark16StreamLogHandler10logMessageEPKc8LogLevelS2_RK13LogAttributes+0xa4>
        write(s, n);
   d9d12:	6823      	ldr	r3, [r4, #0]
   d9d14:	1a52      	subs	r2, r2, r1
   d9d16:	68db      	ldr	r3, [r3, #12]
   d9d18:	4620      	mov	r0, r4
   d9d1a:	4798      	blx	r3
        write("(): ", 4);
   d9d1c:	6823      	ldr	r3, [r4, #0]
   d9d1e:	492e      	ldr	r1, [pc, #184]	; (d9dd8 <_ZN5spark16StreamLogHandler10logMessageEPKc8LogLevelS2_RK13LogAttributes+0x18c>)
   d9d20:	68db      	ldr	r3, [r3, #12]
   d9d22:	2204      	movs	r2, #4
   d9d24:	4620      	mov	r0, r4
   d9d26:	4798      	blx	r3
    return log_level_name(level, nullptr);
   d9d28:	2100      	movs	r1, #0
   d9d2a:	4638      	mov	r0, r7
   d9d2c:	f7fd ff22 	bl	d7b74 <log_level_name>
   d9d30:	4601      	mov	r1, r0
    write(s);
   d9d32:	4620      	mov	r0, r4
   d9d34:	f7ff f9be 	bl	d90b4 <_ZN5spark16StreamLogHandler5writeEPKc>
    write(": ", 2);
   d9d38:	6823      	ldr	r3, [r4, #0]
   d9d3a:	4925      	ldr	r1, [pc, #148]	; (d9dd0 <_ZN5spark16StreamLogHandler10logMessageEPKc8LogLevelS2_RK13LogAttributes+0x184>)
   d9d3c:	68db      	ldr	r3, [r3, #12]
   d9d3e:	2202      	movs	r2, #2
   d9d40:	4620      	mov	r0, r4
   d9d42:	4798      	blx	r3
    if (msg) {
   d9d44:	b11e      	cbz	r6, d9d4e <_ZN5spark16StreamLogHandler10logMessageEPKc8LogLevelS2_RK13LogAttributes+0x102>
        write(msg);
   d9d46:	4631      	mov	r1, r6
   d9d48:	4620      	mov	r0, r4
   d9d4a:	f7ff f9b3 	bl	d90b4 <_ZN5spark16StreamLogHandler5writeEPKc>
    if (attr.has_code || attr.has_details) {
   d9d4e:	792b      	ldrb	r3, [r5, #4]
   d9d50:	f013 0f30 	tst.w	r3, #48	; 0x30
   d9d54:	d02c      	beq.n	d9db0 <_ZN5spark16StreamLogHandler10logMessageEPKc8LogLevelS2_RK13LogAttributes+0x164>
        write(" [", 2);
   d9d56:	6823      	ldr	r3, [r4, #0]
   d9d58:	4920      	ldr	r1, [pc, #128]	; (d9ddc <_ZN5spark16StreamLogHandler10logMessageEPKc8LogLevelS2_RK13LogAttributes+0x190>)
   d9d5a:	68db      	ldr	r3, [r3, #12]
   d9d5c:	2202      	movs	r2, #2
   d9d5e:	4620      	mov	r0, r4
   d9d60:	4798      	blx	r3
        if (attr.has_code) {
   d9d62:	792b      	ldrb	r3, [r5, #4]
   d9d64:	06d9      	lsls	r1, r3, #27
   d9d66:	d50a      	bpl.n	d9d7e <_ZN5spark16StreamLogHandler10logMessageEPKc8LogLevelS2_RK13LogAttributes+0x132>
            write("code = ", 7);
   d9d68:	6823      	ldr	r3, [r4, #0]
   d9d6a:	491d      	ldr	r1, [pc, #116]	; (d9de0 <_ZN5spark16StreamLogHandler10logMessageEPKc8LogLevelS2_RK13LogAttributes+0x194>)
   d9d6c:	68db      	ldr	r3, [r3, #12]
   d9d6e:	2207      	movs	r2, #7
   d9d70:	4620      	mov	r0, r4
   d9d72:	4798      	blx	r3
            printf("%" PRIiPTR, (intptr_t)attr.code);
   d9d74:	69aa      	ldr	r2, [r5, #24]
   d9d76:	491b      	ldr	r1, [pc, #108]	; (d9de4 <_ZN5spark16StreamLogHandler10logMessageEPKc8LogLevelS2_RK13LogAttributes+0x198>)
   d9d78:	4620      	mov	r0, r4
   d9d7a:	f7ff f9b6 	bl	d90ea <_ZN5spark16StreamLogHandler6printfEPKcz>
        if (attr.has_details) {
   d9d7e:	792b      	ldrb	r3, [r5, #4]
   d9d80:	069a      	lsls	r2, r3, #26
   d9d82:	d511      	bpl.n	d9da8 <_ZN5spark16StreamLogHandler10logMessageEPKc8LogLevelS2_RK13LogAttributes+0x15c>
            if (attr.has_code) {
   d9d84:	06db      	lsls	r3, r3, #27
   d9d86:	d505      	bpl.n	d9d94 <_ZN5spark16StreamLogHandler10logMessageEPKc8LogLevelS2_RK13LogAttributes+0x148>
                write(", ", 2);
   d9d88:	6823      	ldr	r3, [r4, #0]
   d9d8a:	4910      	ldr	r1, [pc, #64]	; (d9dcc <_ZN5spark16StreamLogHandler10logMessageEPKc8LogLevelS2_RK13LogAttributes+0x180>)
   d9d8c:	68db      	ldr	r3, [r3, #12]
   d9d8e:	2202      	movs	r2, #2
   d9d90:	4620      	mov	r0, r4
   d9d92:	4798      	blx	r3
            write("details = ", 10);
   d9d94:	6823      	ldr	r3, [r4, #0]
   d9d96:	4914      	ldr	r1, [pc, #80]	; (d9de8 <_ZN5spark16StreamLogHandler10logMessageEPKc8LogLevelS2_RK13LogAttributes+0x19c>)
   d9d98:	68db      	ldr	r3, [r3, #12]
   d9d9a:	4620      	mov	r0, r4
   d9d9c:	220a      	movs	r2, #10
   d9d9e:	4798      	blx	r3
            write(attr.details);
   d9da0:	69e9      	ldr	r1, [r5, #28]
   d9da2:	4620      	mov	r0, r4
   d9da4:	f7ff f986 	bl	d90b4 <_ZN5spark16StreamLogHandler5writeEPKc>
        write(']');
   d9da8:	215d      	movs	r1, #93	; 0x5d
   d9daa:	4620      	mov	r0, r4
   d9dac:	f7ff f991 	bl	d90d2 <_ZN5spark16StreamLogHandler5writeEc>
    write("\r\n", 2);
   d9db0:	6823      	ldr	r3, [r4, #0]
   d9db2:	490e      	ldr	r1, [pc, #56]	; (d9dec <_ZN5spark16StreamLogHandler10logMessageEPKc8LogLevelS2_RK13LogAttributes+0x1a0>)
   d9db4:	68db      	ldr	r3, [r3, #12]
   d9db6:	4620      	mov	r0, r4
   d9db8:	2202      	movs	r2, #2
}
   d9dba:	e8bd 47f0 	ldmia.w	sp!, {r4, r5, r6, r7, r8, r9, sl, lr}
    write("\r\n", 2);
   d9dbe:	4718      	bx	r3
   d9dc0:	000de827 	.word	0x000de827
   d9dc4:	000de82e 	.word	0x000de82e
   d9dc8:	000de290 	.word	0x000de290
   d9dcc:	000de831 	.word	0x000de831
   d9dd0:	000de836 	.word	0x000de836
   d9dd4:	2003e60c 	.word	0x2003e60c
   d9dd8:	000de834 	.word	0x000de834
   d9ddc:	000de839 	.word	0x000de839
   d9de0:	000de83c 	.word	0x000de83c
   d9de4:	000ddc99 	.word	0x000ddc99
   d9de8:	000de844 	.word	0x000de844
   d9dec:	000de84f 	.word	0x000de84f

000d9df0 <_ZN5spark20JSONStreamLogHandler10logMessageEPKc8LogLevelS2_RK13LogAttributes>:
void spark::JSONStreamLogHandler::logMessage(const char *msg, LogLevel level, const char *category, const LogAttributes &attr) {
   d9df0:	e92d 43f0 	stmdb	sp!, {r4, r5, r6, r7, r8, r9, lr}
   d9df4:	b085      	sub	sp, #20
    if (this->stream() == &Serial && Network.listening()) {
   d9df6:	f8d0 9020 	ldr.w	r9, [r0, #32]
void spark::JSONStreamLogHandler::logMessage(const char *msg, LogLevel level, const char *category, const LogAttributes &attr) {
   d9dfa:	9c0c      	ldr	r4, [sp, #48]	; 0x30
   d9dfc:	4605      	mov	r5, r0
   d9dfe:	460f      	mov	r7, r1
   d9e00:	4690      	mov	r8, r2
   d9e02:	461e      	mov	r6, r3
    if (this->stream() == &Serial && Network.listening()) {
   d9e04:	f000 ff7e 	bl	dad04 <_Z16_fetch_usbserialv>
   d9e08:	4581      	cmp	r9, r0
   d9e0a:	d105      	bne.n	d9e18 <_ZN5spark20JSONStreamLogHandler10logMessageEPKc8LogLevelS2_RK13LogAttributes+0x28>
   d9e0c:	4849      	ldr	r0, [pc, #292]	; (d9f34 <_ZN5spark20JSONStreamLogHandler10logMessageEPKc8LogLevelS2_RK13LogAttributes+0x144>)
   d9e0e:	f000 f8e0 	bl	d9fd2 <_ZN5spark12NetworkClass9listeningEv>
   d9e12:	2800      	cmp	r0, #0
   d9e14:	f040 808a 	bne.w	d9f2c <_ZN5spark20JSONStreamLogHandler10logMessageEPKc8LogLevelS2_RK13LogAttributes+0x13c>
    JSONStreamWriter json(*this->stream());
   d9e18:	6a2b      	ldr	r3, [r5, #32]
        strm_(stream) {
   d9e1a:	4a47      	ldr	r2, [pc, #284]	; (d9f38 <_ZN5spark20JSONStreamLogHandler10logMessageEPKc8LogLevelS2_RK13LogAttributes+0x148>)
   d9e1c:	9201      	str	r2, [sp, #4]
        state_(BEGIN) {
   d9e1e:	f04f 0900 	mov.w	r9, #0
    json.beginObject();
   d9e22:	a801      	add	r0, sp, #4
        strm_(stream) {
   d9e24:	9303      	str	r3, [sp, #12]
        state_(BEGIN) {
   d9e26:	f88d 9008 	strb.w	r9, [sp, #8]
   d9e2a:	f7ff f838 	bl	d8e9e <_ZN5spark10JSONWriter11beginObjectEv>
   d9e2e:	4649      	mov	r1, r9
   d9e30:	4640      	mov	r0, r8
   d9e32:	f7fd fe9f 	bl	d7b74 <log_level_name>
    json.name("l", 1).value(s);
   d9e36:	4941      	ldr	r1, [pc, #260]	; (d9f3c <_ZN5spark20JSONStreamLogHandler10logMessageEPKc8LogLevelS2_RK13LogAttributes+0x14c>)
   d9e38:	4680      	mov	r8, r0
   d9e3a:	2201      	movs	r2, #1
   d9e3c:	a801      	add	r0, sp, #4
   d9e3e:	f7ff f8b7 	bl	d8fb0 <_ZN5spark10JSONWriter4nameEPKcj>
   d9e42:	4641      	mov	r1, r8
   d9e44:	f7ff f928 	bl	d9098 <_ZN5spark10JSONWriter5valueEPKc>
    if (msg) {
   d9e48:	b13f      	cbz	r7, d9e5a <_ZN5spark20JSONStreamLogHandler10logMessageEPKc8LogLevelS2_RK13LogAttributes+0x6a>
        json.name("m", 1).value(msg);
   d9e4a:	493d      	ldr	r1, [pc, #244]	; (d9f40 <_ZN5spark20JSONStreamLogHandler10logMessageEPKc8LogLevelS2_RK13LogAttributes+0x150>)
   d9e4c:	2201      	movs	r2, #1
   d9e4e:	a801      	add	r0, sp, #4
   d9e50:	f7ff f8ae 	bl	d8fb0 <_ZN5spark10JSONWriter4nameEPKcj>
   d9e54:	4639      	mov	r1, r7
   d9e56:	f7ff f91f 	bl	d9098 <_ZN5spark10JSONWriter5valueEPKc>
    if (category) {
   d9e5a:	b13e      	cbz	r6, d9e6c <_ZN5spark20JSONStreamLogHandler10logMessageEPKc8LogLevelS2_RK13LogAttributes+0x7c>
        json.name("c", 1).value(category);
   d9e5c:	4939      	ldr	r1, [pc, #228]	; (d9f44 <_ZN5spark20JSONStreamLogHandler10logMessageEPKc8LogLevelS2_RK13LogAttributes+0x154>)
   d9e5e:	2201      	movs	r2, #1
   d9e60:	a801      	add	r0, sp, #4
   d9e62:	f7ff f8a5 	bl	d8fb0 <_ZN5spark10JSONWriter4nameEPKcj>
   d9e66:	4631      	mov	r1, r6
   d9e68:	f7ff f916 	bl	d9098 <_ZN5spark10JSONWriter5valueEPKc>
    if (attr.has_file) {
   d9e6c:	7923      	ldrb	r3, [r4, #4]
   d9e6e:	07df      	lsls	r7, r3, #31
   d9e70:	d50e      	bpl.n	d9e90 <_ZN5spark20JSONStreamLogHandler10logMessageEPKc8LogLevelS2_RK13LogAttributes+0xa0>
        s = extractFileName(attr.file); // Strip directory path
   d9e72:	68a6      	ldr	r6, [r4, #8]
    const char *s1 = strrchr(s, '/');
   d9e74:	212f      	movs	r1, #47	; 0x2f
   d9e76:	4630      	mov	r0, r6
   d9e78:	f001 ffa0 	bl	dbdbc <strrchr>
    if (s1) {
   d9e7c:	b100      	cbz	r0, d9e80 <_ZN5spark20JSONStreamLogHandler10logMessageEPKc8LogLevelS2_RK13LogAttributes+0x90>
        return s1 + 1;
   d9e7e:	1c46      	adds	r6, r0, #1
        json.name("f", 1).value(s);
   d9e80:	4931      	ldr	r1, [pc, #196]	; (d9f48 <_ZN5spark20JSONStreamLogHandler10logMessageEPKc8LogLevelS2_RK13LogAttributes+0x158>)
   d9e82:	2201      	movs	r2, #1
   d9e84:	a801      	add	r0, sp, #4
   d9e86:	f7ff f893 	bl	d8fb0 <_ZN5spark10JSONWriter4nameEPKcj>
   d9e8a:	4631      	mov	r1, r6
   d9e8c:	f7ff f904 	bl	d9098 <_ZN5spark10JSONWriter5valueEPKc>
    if (attr.has_line) {
   d9e90:	7923      	ldrb	r3, [r4, #4]
   d9e92:	079e      	lsls	r6, r3, #30
   d9e94:	d507      	bpl.n	d9ea6 <_ZN5spark20JSONStreamLogHandler10logMessageEPKc8LogLevelS2_RK13LogAttributes+0xb6>
        json.name("ln", 2).value(attr.line);
   d9e96:	492d      	ldr	r1, [pc, #180]	; (d9f4c <_ZN5spark20JSONStreamLogHandler10logMessageEPKc8LogLevelS2_RK13LogAttributes+0x15c>)
   d9e98:	2202      	movs	r2, #2
   d9e9a:	a801      	add	r0, sp, #4
   d9e9c:	f7ff f888 	bl	d8fb0 <_ZN5spark10JSONWriter4nameEPKcj>
   d9ea0:	68e1      	ldr	r1, [r4, #12]
   d9ea2:	f7ff f809 	bl	d8eb8 <_ZN5spark10JSONWriter5valueEi>
    if (attr.has_function) {
   d9ea6:	7923      	ldrb	r3, [r4, #4]
   d9ea8:	0758      	lsls	r0, r3, #29
   d9eaa:	d514      	bpl.n	d9ed6 <_ZN5spark20JSONStreamLogHandler10logMessageEPKc8LogLevelS2_RK13LogAttributes+0xe6>
        s = extractFuncName(attr.function, &n); // Strip argument and return types
   d9eac:	6926      	ldr	r6, [r4, #16]
const char* extractFuncName(const char *s, size_t *size) {
   d9eae:	4633      	mov	r3, r6
   d9eb0:	461f      	mov	r7, r3
    for (; *s; ++s) {
   d9eb2:	f813 2b01 	ldrb.w	r2, [r3], #1
   d9eb6:	b12a      	cbz	r2, d9ec4 <_ZN5spark20JSONStreamLogHandler10logMessageEPKc8LogLevelS2_RK13LogAttributes+0xd4>
        if (*s == ' ') {
   d9eb8:	2a20      	cmp	r2, #32
   d9eba:	d101      	bne.n	d9ec0 <_ZN5spark20JSONStreamLogHandler10logMessageEPKc8LogLevelS2_RK13LogAttributes+0xd0>
            s1 = s + 1; // Skip return type
   d9ebc:	461e      	mov	r6, r3
   d9ebe:	e7f7      	b.n	d9eb0 <_ZN5spark20JSONStreamLogHandler10logMessageEPKc8LogLevelS2_RK13LogAttributes+0xc0>
        } else if (*s == '(') {
   d9ec0:	2a28      	cmp	r2, #40	; 0x28
   d9ec2:	d1f5      	bne.n	d9eb0 <_ZN5spark20JSONStreamLogHandler10logMessageEPKc8LogLevelS2_RK13LogAttributes+0xc0>
        json.name("fn", 2).value(s, n);
   d9ec4:	4922      	ldr	r1, [pc, #136]	; (d9f50 <_ZN5spark20JSONStreamLogHandler10logMessageEPKc8LogLevelS2_RK13LogAttributes+0x160>)
   d9ec6:	2202      	movs	r2, #2
   d9ec8:	a801      	add	r0, sp, #4
   d9eca:	f7ff f871 	bl	d8fb0 <_ZN5spark10JSONWriter4nameEPKcj>
   d9ece:	1bba      	subs	r2, r7, r6
   d9ed0:	4631      	mov	r1, r6
   d9ed2:	f7ff f87d 	bl	d8fd0 <_ZN5spark10JSONWriter5valueEPKcj>
    if (attr.has_time) {
   d9ed6:	7923      	ldrb	r3, [r4, #4]
   d9ed8:	0719      	lsls	r1, r3, #28
   d9eda:	d507      	bpl.n	d9eec <_ZN5spark20JSONStreamLogHandler10logMessageEPKc8LogLevelS2_RK13LogAttributes+0xfc>
        json.name("t", 1).value((unsigned)attr.time);
   d9edc:	491d      	ldr	r1, [pc, #116]	; (d9f54 <_ZN5spark20JSONStreamLogHandler10logMessageEPKc8LogLevelS2_RK13LogAttributes+0x164>)
   d9ede:	2201      	movs	r2, #1
   d9ee0:	a801      	add	r0, sp, #4
   d9ee2:	f7ff f865 	bl	d8fb0 <_ZN5spark10JSONWriter4nameEPKcj>
   d9ee6:	6961      	ldr	r1, [r4, #20]
   d9ee8:	f7fe fff8 	bl	d8edc <_ZN5spark10JSONWriter5valueEj>
    if (attr.has_code) {
   d9eec:	7923      	ldrb	r3, [r4, #4]
   d9eee:	06da      	lsls	r2, r3, #27
   d9ef0:	d508      	bpl.n	d9f04 <_ZN5spark20JSONStreamLogHandler10logMessageEPKc8LogLevelS2_RK13LogAttributes+0x114>
        json.name("code", 4).value((int)attr.code);
   d9ef2:	2204      	movs	r2, #4
   d9ef4:	4918      	ldr	r1, [pc, #96]	; (d9f58 <_ZN5spark20JSONStreamLogHandler10logMessageEPKc8LogLevelS2_RK13LogAttributes+0x168>)
   d9ef6:	eb0d 0002 	add.w	r0, sp, r2
   d9efa:	f7ff f859 	bl	d8fb0 <_ZN5spark10JSONWriter4nameEPKcj>
   d9efe:	69a1      	ldr	r1, [r4, #24]
   d9f00:	f7fe ffda 	bl	d8eb8 <_ZN5spark10JSONWriter5valueEi>
    if (attr.has_details) {
   d9f04:	7923      	ldrb	r3, [r4, #4]
   d9f06:	069b      	lsls	r3, r3, #26
   d9f08:	d507      	bpl.n	d9f1a <_ZN5spark20JSONStreamLogHandler10logMessageEPKc8LogLevelS2_RK13LogAttributes+0x12a>
        json.name("detail", 6).value(attr.details);
   d9f0a:	4914      	ldr	r1, [pc, #80]	; (d9f5c <_ZN5spark20JSONStreamLogHandler10logMessageEPKc8LogLevelS2_RK13LogAttributes+0x16c>)
   d9f0c:	2206      	movs	r2, #6
   d9f0e:	a801      	add	r0, sp, #4
   d9f10:	f7ff f84e 	bl	d8fb0 <_ZN5spark10JSONWriter4nameEPKcj>
   d9f14:	69e1      	ldr	r1, [r4, #28]
   d9f16:	f7ff f8bf 	bl	d9098 <_ZN5spark10JSONWriter5valueEPKc>
    json.endObject();
   d9f1a:	a801      	add	r0, sp, #4
   d9f1c:	f7fe ffa9 	bl	d8e72 <_ZN5spark10JSONWriter9endObjectEv>
    this->stream()->write((const uint8_t*)"\r\n", 2);
   d9f20:	6a28      	ldr	r0, [r5, #32]
   d9f22:	490f      	ldr	r1, [pc, #60]	; (d9f60 <_ZN5spark20JSONStreamLogHandler10logMessageEPKc8LogLevelS2_RK13LogAttributes+0x170>)
   d9f24:	6803      	ldr	r3, [r0, #0]
   d9f26:	2202      	movs	r2, #2
   d9f28:	68db      	ldr	r3, [r3, #12]
   d9f2a:	4798      	blx	r3
}
   d9f2c:	b005      	add	sp, #20
   d9f2e:	e8bd 83f0 	ldmia.w	sp!, {r4, r5, r6, r7, r8, r9, pc}
   d9f32:	bf00      	nop
   d9f34:	2003e60c 	.word	0x2003e60c
   d9f38:	000de870 	.word	0x000de870
   d9f3c:	000de804 	.word	0x000de804
   d9f40:	000de852 	.word	0x000de852
   d9f44:	000de4d3 	.word	0x000de4d3
   d9f48:	000de1f7 	.word	0x000de1f7
   d9f4c:	000de854 	.word	0x000de854
   d9f50:	000de857 	.word	0x000de857
   d9f54:	000ddf31 	.word	0x000ddf31
   d9f58:	000de85a 	.word	0x000de85a
   d9f5c:	000de85f 	.word	0x000de85f
   d9f60:	000de84f 	.word	0x000de84f

000d9f64 <_ZN5spark12NetworkClass7connectEj>:
        return Network;
    }
}

void NetworkClass::connect(unsigned flags) {
    network_connect(*this, flags, 0, nullptr);
   d9f64:	2300      	movs	r3, #0
   d9f66:	6840      	ldr	r0, [r0, #4]
   d9f68:	461a      	mov	r2, r3
   d9f6a:	f7fd bf07 	b.w	d7d7c <network_connect>

000d9f6e <_ZN5spark12NetworkClass10disconnectEv>:
}

void NetworkClass::disconnect() {
    network_disconnect(*this, NETWORK_DISCONNECT_REASON_USER, nullptr);
   d9f6e:	6840      	ldr	r0, [r0, #4]
   d9f70:	2200      	movs	r2, #0
   d9f72:	2102      	movs	r1, #2
   d9f74:	f7fd bf12 	b.w	d7d9c <network_disconnect>

000d9f78 <_ZN5spark12NetworkClass10connectingEv>:
}

bool NetworkClass::connecting() {
    return network_connecting(*this, 0, nullptr);
   d9f78:	2200      	movs	r2, #0
   d9f7a:	6840      	ldr	r0, [r0, #4]
   d9f7c:	4611      	mov	r1, r2
   d9f7e:	f7fd bf05 	b.w	d7d8c <network_connecting>

000d9f82 <_ZN5spark12NetworkClass5readyEv>:
}

bool NetworkClass::ready() {
    return network_ready(*this, 0, nullptr);
   d9f82:	2200      	movs	r2, #0
   d9f84:	6840      	ldr	r0, [r0, #4]
   d9f86:	4611      	mov	r1, r2
   d9f88:	f7fd bf10 	b.w	d7dac <network_ready>

000d9f8c <_ZN5spark12NetworkClass2onEv>:
}

void NetworkClass::on() {
    network_on(*this, 0, 0, nullptr);
   d9f8c:	2300      	movs	r3, #0
   d9f8e:	6840      	ldr	r0, [r0, #4]
   d9f90:	461a      	mov	r2, r3
   d9f92:	4619      	mov	r1, r3
   d9f94:	f7fd bf12 	b.w	d7dbc <network_on>

000d9f98 <_ZN5spark12NetworkClass3offEv>:
}

void NetworkClass::off() {
    network_off(*this, 0, 0, nullptr);
   d9f98:	2300      	movs	r3, #0
   d9f9a:	6840      	ldr	r0, [r0, #4]
   d9f9c:	461a      	mov	r2, r3
   d9f9e:	4619      	mov	r1, r3
   d9fa0:	f7fd bf14 	b.w	d7dcc <network_off>

000d9fa4 <_ZN5spark12NetworkClass4isOnEv>:
}

bool NetworkClass::isOn() {
    return network_is_on(*this, nullptr);
   d9fa4:	6840      	ldr	r0, [r0, #4]
   d9fa6:	2100      	movs	r1, #0
   d9fa8:	f7fd bf38 	b.w	d7e1c <network_is_on>

000d9fac <_ZN5spark12NetworkClass5isOffEv>:
}

bool NetworkClass::isOff() {
    return network_is_off(*this, nullptr);
   d9fac:	6840      	ldr	r0, [r0, #4]
   d9fae:	2100      	movs	r1, #0
   d9fb0:	f7fd bf3c 	b.w	d7e2c <network_is_off>

000d9fb4 <_ZN5spark12NetworkClass6listenEb>:
}

void NetworkClass::listen(bool begin) {
    network_listen(*this, begin ? 0 : 1, nullptr);
   d9fb4:	6840      	ldr	r0, [r0, #4]
   d9fb6:	2200      	movs	r2, #0
   d9fb8:	f081 0101 	eor.w	r1, r1, #1
   d9fbc:	f7fd bf0e 	b.w	d7ddc <network_listen>

000d9fc0 <_ZN5spark12NetworkClass16setListenTimeoutEt>:
}

void NetworkClass::setListenTimeout(uint16_t timeout) {
    network_set_listen_timeout(*this, timeout, nullptr);
   d9fc0:	6840      	ldr	r0, [r0, #4]
   d9fc2:	2200      	movs	r2, #0
   d9fc4:	f7fd bf1a 	b.w	d7dfc <network_set_listen_timeout>

000d9fc8 <_ZN5spark12NetworkClass16getListenTimeoutEv>:
}

uint16_t NetworkClass::getListenTimeout() {
    return network_get_listen_timeout(*this, 0, nullptr);
   d9fc8:	2200      	movs	r2, #0
   d9fca:	6840      	ldr	r0, [r0, #4]
   d9fcc:	4611      	mov	r1, r2
   d9fce:	f7fd bf1d 	b.w	d7e0c <network_get_listen_timeout>

000d9fd2 <_ZN5spark12NetworkClass9listeningEv>:
}

bool NetworkClass::listening() {
    return network_listening(*this, 0, nullptr);
   d9fd2:	2200      	movs	r2, #0
   d9fd4:	6840      	ldr	r0, [r0, #4]
   d9fd6:	4611      	mov	r1, r2
   d9fd8:	f7fd bf08 	b.w	d7dec <network_listening>

000d9fdc <_ZN5spark12NetworkClass7resolveEPKc>:
}

IPAddress NetworkClass::resolve(const char* name) {
   d9fdc:	e92d 43f0 	stmdb	sp!, {r4, r5, r6, r7, r8, r9, lr}
    IPAddress addr;
#if HAL_USE_INET_HAL_POSIX
    struct addrinfo *ai = nullptr;
   d9fe0:	2400      	movs	r4, #0
IPAddress NetworkClass::resolve(const char* name) {
   d9fe2:	b095      	sub	sp, #84	; 0x54
   d9fe4:	4616      	mov	r6, r2
   d9fe6:	460d      	mov	r5, r1
   d9fe8:	4607      	mov	r7, r0
    IPAddress addr;
   d9fea:	f7fe fde3 	bl	d8bb4 <_ZN9IPAddressC1Ev>
    struct addrinfo hints = {};
   d9fee:	4621      	mov	r1, r4
   d9ff0:	2218      	movs	r2, #24
   d9ff2:	a80e      	add	r0, sp, #56	; 0x38
    struct addrinfo *ai = nullptr;
   d9ff4:	9400      	str	r4, [sp, #0]
    struct addrinfo hints = {};
   d9ff6:	f001 fe41 	bl	dbc7c <memset>
    hints.ai_flags = AI_ADDRCONFIG;
   d9ffa:	2340      	movs	r3, #64	; 0x40
    hints.ai_family = AF_UNSPEC;
   d9ffc:	e9cd 340c 	strd	r3, r4, [sp, #48]	; 0x30
    const int r = getaddrinfo(name, nullptr, &hints, &ai);
   da000:	4621      	mov	r1, r4
   da002:	466b      	mov	r3, sp
   da004:	aa0c      	add	r2, sp, #48	; 0x30
   da006:	4630      	mov	r0, r6
   da008:	f7fd fcf4 	bl	d79f4 <netdb_getaddrinfo>
    if (!r) {
   da00c:	4604      	mov	r4, r0
   da00e:	2800      	cmp	r0, #0
   da010:	d146      	bne.n	da0a0 <_ZN5spark12NetworkClass7resolveEPKc+0xc4>
        bool ok = false;
        // This is not really needed if AI_ADDRCONFIG is properly supported
        bool ipv4 = network_ready(*this, NETWORK_READY_TYPE_IPV4, nullptr);
   da012:	4602      	mov	r2, r0
   da014:	2101      	movs	r1, #1
   da016:	6868      	ldr	r0, [r5, #4]
   da018:	f7fd fec8 	bl	d7dac <network_ready>
        bool ipv6 = network_ready(*this, NETWORK_READY_TYPE_IPV6, nullptr);
   da01c:	2102      	movs	r1, #2
        bool ipv4 = network_ready(*this, NETWORK_READY_TYPE_IPV4, nullptr);
   da01e:	4680      	mov	r8, r0
        bool ipv6 = network_ready(*this, NETWORK_READY_TYPE_IPV6, nullptr);
   da020:	4622      	mov	r2, r4
   da022:	6868      	ldr	r0, [r5, #4]
   da024:	f7fd fec2 	bl	d7dac <network_ready>
        for (auto cur = ai; cur != nullptr && !ok; cur = cur->ai_next) {
   da028:	9e00      	ldr	r6, [sp, #0]
        bool ipv6 = network_ready(*this, NETWORK_READY_TYPE_IPV6, nullptr);
   da02a:	4681      	mov	r9, r0
        bool ok = false;
   da02c:	4621      	mov	r1, r4
        for (auto cur = ai; cur != nullptr && !ok; cur = cur->ai_next) {
   da02e:	2e00      	cmp	r6, #0
   da030:	d036      	beq.n	da0a0 <_ZN5spark12NetworkClass7resolveEPKc+0xc4>
   da032:	2900      	cmp	r1, #0
   da034:	d134      	bne.n	da0a0 <_ZN5spark12NetworkClass7resolveEPKc+0xc4>
            // NOTE: using only the first entry that matches the current state of IPv4/IPv6 connectivity
            switch (cur->ai_family) {
   da036:	6873      	ldr	r3, [r6, #4]
   da038:	2b02      	cmp	r3, #2
   da03a:	d003      	beq.n	da044 <_ZN5spark12NetworkClass7resolveEPKc+0x68>
   da03c:	2b0a      	cmp	r3, #10
   da03e:	d00b      	beq.n	da058 <_ZN5spark12NetworkClass7resolveEPKc+0x7c>
        for (auto cur = ai; cur != nullptr && !ok; cur = cur->ai_next) {
   da040:	69f6      	ldr	r6, [r6, #28]
   da042:	e7f4      	b.n	da02e <_ZN5spark12NetworkClass7resolveEPKc+0x52>
                case AF_INET: {
                    if (!ipv4) {
   da044:	f1b8 0f00 	cmp.w	r8, #0
   da048:	d004      	beq.n	da054 <_ZN5spark12NetworkClass7resolveEPKc+0x78>
                        continue;
                    }
                    // NOTE: HAL_IPAddress is little-endian
                    auto in = (struct sockaddr_in*)cur->ai_addr;
                    addr = (const uint8_t*)(&in->sin_addr.s_addr);
   da04a:	6971      	ldr	r1, [r6, #20]
   da04c:	4638      	mov	r0, r7
   da04e:	3104      	adds	r1, #4
   da050:	f7fe fddd 	bl	d8c0e <_ZN9IPAddressaSEPKh>
                    ok = true;
                    break;
   da054:	4641      	mov	r1, r8
   da056:	e7f3      	b.n	da040 <_ZN5spark12NetworkClass7resolveEPKc+0x64>
                }
                case AF_INET6: {
                    if (!ipv6) {
   da058:	f1b9 0f00 	cmp.w	r9, #0
   da05c:	d101      	bne.n	da062 <_ZN5spark12NetworkClass7resolveEPKc+0x86>
                    auto in6 = (struct sockaddr_in6*)cur->ai_addr;
                    HAL_IPAddress a = {};
                    a.v = 6;
                    memcpy(a.ipv6, in6->sin6_addr.s6_addr, sizeof(a.ipv6));
                    addr = IPAddress(a);
                    ok = true;
   da05e:	4649      	mov	r1, r9
   da060:	e7ee      	b.n	da040 <_ZN5spark12NetworkClass7resolveEPKc+0x64>
                    auto in6 = (struct sockaddr_in6*)cur->ai_addr;
   da062:	6974      	ldr	r4, [r6, #20]
                    HAL_IPAddress a = {};
   da064:	2210      	movs	r2, #16
   da066:	a801      	add	r0, sp, #4
   da068:	f001 fe08 	bl	dbc7c <memset>
                    a.v = 6;
   da06c:	2306      	movs	r3, #6
   da06e:	f88d 3014 	strb.w	r3, [sp, #20]
                    memcpy(a.ipv6, in6->sin6_addr.s6_addr, sizeof(a.ipv6));
   da072:	ad01      	add	r5, sp, #4
   da074:	f104 0308 	add.w	r3, r4, #8
   da078:	3418      	adds	r4, #24
   da07a:	6818      	ldr	r0, [r3, #0]
   da07c:	6859      	ldr	r1, [r3, #4]
   da07e:	462a      	mov	r2, r5
   da080:	c203      	stmia	r2!, {r0, r1}
   da082:	3308      	adds	r3, #8
   da084:	42a3      	cmp	r3, r4
   da086:	4615      	mov	r5, r2
   da088:	d1f7      	bne.n	da07a <_ZN5spark12NetworkClass7resolveEPKc+0x9e>
                    addr = IPAddress(a);
   da08a:	a901      	add	r1, sp, #4
   da08c:	a806      	add	r0, sp, #24
class IPAddress : public Printable {
   da08e:	ad07      	add	r5, sp, #28
   da090:	f7fe fd9e 	bl	d8bd0 <_ZN9IPAddressC1ERK16_HAL_IPAddress_t>
   da094:	cd0f      	ldmia	r5!, {r0, r1, r2, r3}
   da096:	1d3c      	adds	r4, r7, #4
   da098:	c40f      	stmia	r4!, {r0, r1, r2, r3}
   da09a:	682b      	ldr	r3, [r5, #0]
   da09c:	7023      	strb	r3, [r4, #0]
   da09e:	e7de      	b.n	da05e <_ZN5spark12NetworkClass7resolveEPKc+0x82>
                    break;
                }
            }
        }
    }
    freeaddrinfo(ai);
   da0a0:	9800      	ldr	r0, [sp, #0]
   da0a2:	f7fd fc9f 	bl	d79e4 <netdb_freeaddrinfo>
    return Cellular.resolve(name);
#endif // Wiring_Cellular

#endif // HAL_USE_INET_HAL_POSIX
    return addr;
}
   da0a6:	4638      	mov	r0, r7
   da0a8:	b015      	add	sp, #84	; 0x54
   da0aa:	e8bd 83f0 	ldmia.w	sp!, {r4, r5, r6, r7, r8, r9, pc}
	...

000da0b0 <_GLOBAL__sub_I__ZN5spark7NetworkE>:
   da0b0:	4b02      	ldr	r3, [pc, #8]	; (da0bc <_GLOBAL__sub_I__ZN5spark7NetworkE+0xc>)
   da0b2:	4a03      	ldr	r2, [pc, #12]	; (da0c0 <_GLOBAL__sub_I__ZN5spark7NetworkE+0x10>)
   da0b4:	601a      	str	r2, [r3, #0]
   da0b6:	2200      	movs	r2, #0
   da0b8:	605a      	str	r2, [r3, #4]

} // spark
   da0ba:	4770      	bx	lr
   da0bc:	2003e60c 	.word	0x2003e60c
   da0c0:	000de8e8 	.word	0x000de8e8

000da0c4 <_ZN4PMIC4lockEv.constprop.0>:
    pmicWireInstance()->write(address);
    pmicWireInstance()->write(DATA);
    pmicWireInstance()->endTransmission(true);
}

bool PMIC::lock() {
   da0c4:	b508      	push	{r3, lr}
            return &Wire1;
   da0c6:	f000 ffdb 	bl	db080 <_Z20__fetch_global_Wire1v>
    return pmicWireInstance()->lock();
}
   da0ca:	e8bd 4008 	ldmia.w	sp!, {r3, lr}
    return pmicWireInstance()->lock();
   da0ce:	f7fe bd25 	b.w	d8b1c <_ZN7TwoWire4lockEv>

000da0d2 <_ZN4PMICC1Eb>:
PMIC::PMIC(bool _lock) :
   da0d2:	b510      	push	{r4, lr}
   da0d4:	4604      	mov	r4, r0
    lock_(_lock)
   da0d6:	7001      	strb	r1, [r0, #0]
    if (lock_) {
   da0d8:	b109      	cbz	r1, da0de <_ZN4PMICC1Eb+0xc>
        lock();
   da0da:	f7ff fff3 	bl	da0c4 <_ZN4PMIC4lockEv.constprop.0>
}
   da0de:	4620      	mov	r0, r4
   da0e0:	bd10      	pop	{r4, pc}

000da0e2 <_ZN4PMIC6unlockEv>:

bool PMIC::unlock() {
   da0e2:	b508      	push	{r3, lr}
            return &Wire1;
   da0e4:	f000 ffcc 	bl	db080 <_Z20__fetch_global_Wire1v>
    return pmicWireInstance()->unlock();
}
   da0e8:	e8bd 4008 	ldmia.w	sp!, {r3, lr}
    return pmicWireInstance()->unlock();
   da0ec:	f7fe bd1f 	b.w	d8b2e <_ZN7TwoWire6unlockEv>

000da0f0 <_ZN4PMICD1Ev>:
PMIC::~PMIC()
   da0f0:	b510      	push	{r4, lr}
    if (lock_) {
   da0f2:	7803      	ldrb	r3, [r0, #0]
PMIC::~PMIC()
   da0f4:	4604      	mov	r4, r0
    if (lock_) {
   da0f6:	b10b      	cbz	r3, da0fc <_ZN4PMICD1Ev+0xc>
        unlock();
   da0f8:	f7ff fff3 	bl	da0e2 <_ZN4PMIC6unlockEv>
}
   da0fc:	4620      	mov	r0, r4
   da0fe:	bd10      	pop	{r4, pc}

000da100 <_ZNSt10lock_guardI4PMICED1Ev>:
      ~lock_guard()
   da100:	b510      	push	{r4, lr}
   da102:	4604      	mov	r4, r0
      { _M_device.unlock(); }
   da104:	6800      	ldr	r0, [r0, #0]
   da106:	f7ff ffec 	bl	da0e2 <_ZN4PMIC6unlockEv>
   da10a:	4620      	mov	r0, r4
   da10c:	bd10      	pop	{r4, pc}

000da10e <_ZN4PMIC12readRegisterEh>:
byte PMIC::readRegister(byte startAddress) {
   da10e:	b530      	push	{r4, r5, lr}
   da110:	b087      	sub	sp, #28
   da112:	460d      	mov	r5, r1
      explicit lock_guard(mutex_type& __m) : _M_device(__m)
   da114:	9001      	str	r0, [sp, #4]
      { _M_device.lock(); }
   da116:	f7ff ffd5 	bl	da0c4 <_ZN4PMIC4lockEv.constprop.0>
        timeout_{HAL_I2C_DEFAULT_TIMEOUT_MS} {
   da11a:	236b      	movs	r3, #107	; 0x6b
   da11c:	f88d 3008 	strb.w	r3, [sp, #8]
   da120:	2300      	movs	r3, #0
   da122:	2401      	movs	r4, #1
   da124:	9303      	str	r3, [sp, #12]
    timeout_ = ms;
   da126:	230a      	movs	r3, #10
   da128:	9305      	str	r3, [sp, #20]
        timeout_{HAL_I2C_DEFAULT_TIMEOUT_MS} {
   da12a:	f88d 4010 	strb.w	r4, [sp, #16]
            return &Wire1;
   da12e:	f000 ffa7 	bl	db080 <_Z20__fetch_global_Wire1v>
    pmicWireInstance()->beginTransmission(config);
   da132:	a902      	add	r1, sp, #8
   da134:	f7fe fcd6 	bl	d8ae4 <_ZN7TwoWire17beginTransmissionERK16WireTransmission>
            return &Wire1;
   da138:	f000 ffa2 	bl	db080 <_Z20__fetch_global_Wire1v>
    pmicWireInstance()->write(startAddress);
   da13c:	6803      	ldr	r3, [r0, #0]
   da13e:	4629      	mov	r1, r5
   da140:	689b      	ldr	r3, [r3, #8]
   da142:	4798      	blx	r3
            return &Wire1;
   da144:	f000 ff9c 	bl	db080 <_Z20__fetch_global_Wire1v>
    pmicWireInstance()->endTransmission(true);
   da148:	4621      	mov	r1, r4
   da14a:	f7fe fce3 	bl	d8b14 <_ZN7TwoWire15endTransmissionEh>
    size_ = size;
   da14e:	9403      	str	r4, [sp, #12]
            return &Wire1;
   da150:	f000 ff96 	bl	db080 <_Z20__fetch_global_Wire1v>
    pmicWireInstance()->requestFrom(config);
   da154:	a902      	add	r1, sp, #8
   da156:	f7fe fc95 	bl	d8a84 <_ZN7TwoWire11requestFromERK16WireTransmission>
            return &Wire1;
   da15a:	f000 ff91 	bl	db080 <_Z20__fetch_global_Wire1v>
    DATA = pmicWireInstance()->read();
   da15e:	6803      	ldr	r3, [r0, #0]
   da160:	695b      	ldr	r3, [r3, #20]
   da162:	4798      	blx	r3
   da164:	4604      	mov	r4, r0
    std::lock_guard<PMIC> l(*this);
   da166:	a801      	add	r0, sp, #4
   da168:	f7ff ffca 	bl	da100 <_ZNSt10lock_guardI4PMICED1Ev>
}
   da16c:	b2e0      	uxtb	r0, r4
   da16e:	b007      	add	sp, #28
   da170:	bd30      	pop	{r4, r5, pc}

000da172 <_ZN4PMIC13writeRegisterEhh>:
void PMIC::writeRegister(byte address, byte DATA) {
   da172:	b570      	push	{r4, r5, r6, lr}
   da174:	b086      	sub	sp, #24
   da176:	4614      	mov	r4, r2
   da178:	460d      	mov	r5, r1
      explicit lock_guard(mutex_type& __m) : _M_device(__m)
   da17a:	9001      	str	r0, [sp, #4]
      { _M_device.lock(); }
   da17c:	f7ff ffa2 	bl	da0c4 <_ZN4PMIC4lockEv.constprop.0>
        timeout_{HAL_I2C_DEFAULT_TIMEOUT_MS} {
   da180:	236b      	movs	r3, #107	; 0x6b
   da182:	f88d 3008 	strb.w	r3, [sp, #8]
   da186:	2300      	movs	r3, #0
   da188:	9303      	str	r3, [sp, #12]
   da18a:	2601      	movs	r6, #1
    timeout_ = ms;
   da18c:	230a      	movs	r3, #10
   da18e:	9305      	str	r3, [sp, #20]
        timeout_{HAL_I2C_DEFAULT_TIMEOUT_MS} {
   da190:	f88d 6010 	strb.w	r6, [sp, #16]
            return &Wire1;
   da194:	f000 ff74 	bl	db080 <_Z20__fetch_global_Wire1v>
    pmicWireInstance()->beginTransmission(config);
   da198:	a902      	add	r1, sp, #8
   da19a:	f7fe fca3 	bl	d8ae4 <_ZN7TwoWire17beginTransmissionERK16WireTransmission>
            return &Wire1;
   da19e:	f000 ff6f 	bl	db080 <_Z20__fetch_global_Wire1v>
    pmicWireInstance()->write(address);
   da1a2:	6803      	ldr	r3, [r0, #0]
   da1a4:	4629      	mov	r1, r5
   da1a6:	689b      	ldr	r3, [r3, #8]
   da1a8:	4798      	blx	r3
            return &Wire1;
   da1aa:	f000 ff69 	bl	db080 <_Z20__fetch_global_Wire1v>
    pmicWireInstance()->write(DATA);
   da1ae:	6803      	ldr	r3, [r0, #0]
   da1b0:	4621      	mov	r1, r4
   da1b2:	689b      	ldr	r3, [r3, #8]
   da1b4:	4798      	blx	r3
            return &Wire1;
   da1b6:	f000 ff63 	bl	db080 <_Z20__fetch_global_Wire1v>
    pmicWireInstance()->endTransmission(true);
   da1ba:	4631      	mov	r1, r6
   da1bc:	f7fe fcaa 	bl	d8b14 <_ZN7TwoWire15endTransmissionEh>
    std::lock_guard<PMIC> l(*this);
   da1c0:	a801      	add	r0, sp, #4
   da1c2:	f7ff ff9d 	bl	da100 <_ZNSt10lock_guardI4PMICED1Ev>
}
   da1c6:	b006      	add	sp, #24
   da1c8:	bd70      	pop	{r4, r5, r6, pc}

000da1ca <_ZN4PMIC14enableChargingEv>:
bool PMIC::enableCharging() {
   da1ca:	b513      	push	{r0, r1, r4, lr}
   da1cc:	4604      	mov	r4, r0
      explicit lock_guard(mutex_type& __m) : _M_device(__m)
   da1ce:	9001      	str	r0, [sp, #4]
      { _M_device.lock(); }
   da1d0:	f7ff ff78 	bl	da0c4 <_ZN4PMIC4lockEv.constprop.0>
    byte DATA = readRegister(POWERON_CONFIG_REGISTER);
   da1d4:	2101      	movs	r1, #1
   da1d6:	4620      	mov	r0, r4
   da1d8:	f7ff ff99 	bl	da10e <_ZN4PMIC12readRegisterEh>
    DATA = DATA & 0b11001111;
   da1dc:	f000 00cf 	and.w	r0, r0, #207	; 0xcf
    writeRegister(POWERON_CONFIG_REGISTER, DATA);
   da1e0:	f040 0210 	orr.w	r2, r0, #16
   da1e4:	2101      	movs	r1, #1
   da1e6:	4620      	mov	r0, r4
   da1e8:	f7ff ffc3 	bl	da172 <_ZN4PMIC13writeRegisterEhh>
    std::lock_guard<PMIC> l(*this);
   da1ec:	a801      	add	r0, sp, #4
   da1ee:	f7ff ff87 	bl	da100 <_ZNSt10lock_guardI4PMICED1Ev>
}
   da1f2:	2001      	movs	r0, #1
   da1f4:	b002      	add	sp, #8
   da1f6:	bd10      	pop	{r4, pc}

000da1f8 <_ZN4PMIC15disableChargingEv>:
bool PMIC::disableCharging() {
   da1f8:	b513      	push	{r0, r1, r4, lr}
   da1fa:	4604      	mov	r4, r0
      explicit lock_guard(mutex_type& __m) : _M_device(__m)
   da1fc:	9001      	str	r0, [sp, #4]
      { _M_device.lock(); }
   da1fe:	f7ff ff61 	bl	da0c4 <_ZN4PMIC4lockEv.constprop.0>
    byte DATA = readRegister(POWERON_CONFIG_REGISTER);
   da202:	2101      	movs	r1, #1
   da204:	4620      	mov	r0, r4
   da206:	f7ff ff82 	bl	da10e <_ZN4PMIC12readRegisterEh>
    writeRegister(POWERON_CONFIG_REGISTER, (DATA & 0b11001111));
   da20a:	2101      	movs	r1, #1
   da20c:	f000 02cf 	and.w	r2, r0, #207	; 0xcf
   da210:	4620      	mov	r0, r4
   da212:	f7ff ffae 	bl	da172 <_ZN4PMIC13writeRegisterEhh>
    std::lock_guard<PMIC> l(*this);
   da216:	a801      	add	r0, sp, #4
   da218:	f7ff ff72 	bl	da100 <_ZNSt10lock_guardI4PMICED1Ev>
}
   da21c:	2001      	movs	r0, #1
   da21e:	b002      	add	sp, #8
   da220:	bd10      	pop	{r4, pc}

000da222 <_ZN5Print5writeEPKhj>:

// Public Methods //////////////////////////////////////////////////////////////

/* default implementation: may be overridden */
size_t Print::write(const uint8_t *buffer, size_t size)
{
   da222:	b5f8      	push	{r3, r4, r5, r6, r7, lr}
   da224:	4606      	mov	r6, r0
   da226:	460d      	mov	r5, r1
  size_t n = 0;
   da228:	188f      	adds	r7, r1, r2
   da22a:	2400      	movs	r4, #0
  while (size--) {
   da22c:	42bd      	cmp	r5, r7
   da22e:	d00c      	beq.n	da24a <_ZN5Print5writeEPKhj+0x28>
     int chunk = write(*buffer++);
   da230:	6833      	ldr	r3, [r6, #0]
   da232:	f815 1b01 	ldrb.w	r1, [r5], #1
   da236:	689b      	ldr	r3, [r3, #8]
   da238:	4630      	mov	r0, r6
   da23a:	4798      	blx	r3
     if (chunk>=0)
   da23c:	1e03      	subs	r3, r0, #0
   da23e:	db01      	blt.n	da244 <_ZN5Print5writeEPKhj+0x22>
         n += chunk;
   da240:	441c      	add	r4, r3
  while (size--) {
   da242:	e7f3      	b.n	da22c <_ZN5Print5writeEPKhj+0xa>
     int chunk = write(*buffer++);
   da244:	2c00      	cmp	r4, #0
   da246:	bf08      	it	eq
   da248:	461c      	moveq	r4, r3
             n = chunk;
         break;
     }
  }
  return n;
}
   da24a:	4620      	mov	r0, r4
   da24c:	bdf8      	pop	{r3, r4, r5, r6, r7, pc}

000da24e <_ZN5Print5writeEPKc>:
    size_t write(const char *str) {
   da24e:	b513      	push	{r0, r1, r4, lr}
   da250:	4604      	mov	r4, r0
    }
   da252:	4608      	mov	r0, r1
      if (str == NULL) return 0;
   da254:	b159      	cbz	r1, da26e <_ZN5Print5writeEPKc+0x20>
      return write((const uint8_t *)str, strlen(str));
   da256:	9101      	str	r1, [sp, #4]
   da258:	f001 fd83 	bl	dbd62 <strlen>
   da25c:	6823      	ldr	r3, [r4, #0]
   da25e:	9901      	ldr	r1, [sp, #4]
   da260:	68db      	ldr	r3, [r3, #12]
   da262:	4602      	mov	r2, r0
   da264:	4620      	mov	r0, r4
    }
   da266:	b002      	add	sp, #8
   da268:	e8bd 4010 	ldmia.w	sp!, {r4, lr}
      return write((const uint8_t *)str, strlen(str));
   da26c:	4718      	bx	r3
    }
   da26e:	b002      	add	sp, #8
   da270:	bd10      	pop	{r4, pc}

000da272 <_ZN5Print5printEc>:
  return write(str);
}

size_t Print::print(char c)
{
  return write(c);
   da272:	6803      	ldr	r3, [r0, #0]
   da274:	689b      	ldr	r3, [r3, #8]
   da276:	4718      	bx	r3

000da278 <_ZN5Print7printlnEv>:
{
  return print(reinterpret_cast<const char*>(str));
}

size_t Print::println(void)
{
   da278:	b538      	push	{r3, r4, r5, lr}
  size_t n = print('\r');
   da27a:	210d      	movs	r1, #13
{
   da27c:	4605      	mov	r5, r0
  size_t n = print('\r');
   da27e:	f7ff fff8 	bl	da272 <_ZN5Print5printEc>
  n += print('\n');
   da282:	210a      	movs	r1, #10
  size_t n = print('\r');
   da284:	4604      	mov	r4, r0
  n += print('\n');
   da286:	4628      	mov	r0, r5
   da288:	f7ff fff3 	bl	da272 <_ZN5Print5printEc>
  return n;
}
   da28c:	4420      	add	r0, r4
   da28e:	bd38      	pop	{r3, r4, r5, pc}

000da290 <_ZN5Print11printNumberEmh>:
  return println(reinterpret_cast<const char*>(str));
}

// Private Methods /////////////////////////////////////////////////////////////

size_t Print::printNumber(unsigned long n, uint8_t base) {
   da290:	b530      	push	{r4, r5, lr}
   da292:	b08b      	sub	sp, #44	; 0x2c
  char buf[8 * sizeof(n) + 1]; // Assumes 8-bit chars plus zero byte.
  char *str = &buf[sizeof(buf) - 1];

  *str = '\0';
   da294:	2300      	movs	r3, #0
   da296:	f88d 3024 	strb.w	r3, [sp, #36]	; 0x24

  // prevent crash if called with base == 1
  if (base < 2) base = 10;
   da29a:	2a01      	cmp	r2, #1
   da29c:	bf98      	it	ls
   da29e:	220a      	movls	r2, #10
   da2a0:	ac09      	add	r4, sp, #36	; 0x24

  do {
   decltype(n) m = n;
   n /= base;
   da2a2:	460d      	mov	r5, r1
   da2a4:	fbb1 f1f2 	udiv	r1, r1, r2
   char c = m - base * n;
   da2a8:	fb01 5312 	mls	r3, r1, r2, r5
   da2ac:	f003 03ff 	and.w	r3, r3, #255	; 0xff
   *--str = c < 10 ? c + '0' : c + 'A' - 10;
   da2b0:	2b09      	cmp	r3, #9
   da2b2:	bf94      	ite	ls
   da2b4:	3330      	addls	r3, #48	; 0x30
   da2b6:	3337      	addhi	r3, #55	; 0x37
   da2b8:	b2db      	uxtb	r3, r3
  } while(n);
   da2ba:	42aa      	cmp	r2, r5
   *--str = c < 10 ? c + '0' : c + 'A' - 10;
   da2bc:	f804 3d01 	strb.w	r3, [r4, #-1]!
  } while(n);
   da2c0:	d9ef      	bls.n	da2a2 <_ZN5Print11printNumberEmh+0x12>

  return write(str);
   da2c2:	4621      	mov	r1, r4
   da2c4:	f7ff ffc3 	bl	da24e <_ZN5Print5writeEPKc>
}
   da2c8:	b00b      	add	sp, #44	; 0x2c
   da2ca:	bd30      	pop	{r4, r5, pc}

000da2cc <_ZN5Print7vprintfEbPKcSt9__va_list>:

  return n;
}

size_t Print::vprintf(bool newline, const char* format, va_list args)
{
   da2cc:	e92d 41f0 	stmdb	sp!, {r4, r5, r6, r7, r8, lr}
   da2d0:	b086      	sub	sp, #24
   da2d2:	af00      	add	r7, sp, #0
   da2d4:	4605      	mov	r5, r0
   da2d6:	460e      	mov	r6, r1
    const int bufsize = 20;
    char test[bufsize];
    va_list args2;
    va_copy(args2, args);
    size_t n = vsnprintf(test, bufsize, format, args);
   da2d8:	1d38      	adds	r0, r7, #4
   da2da:	2114      	movs	r1, #20
{
   da2dc:	4614      	mov	r4, r2
    va_copy(args2, args);
   da2de:	603b      	str	r3, [r7, #0]
    size_t n = vsnprintf(test, bufsize, format, args);
   da2e0:	f7fd fdd4 	bl	d7e8c <vsnprintf>

    if (n<bufsize)
   da2e4:	2813      	cmp	r0, #19
   da2e6:	d80e      	bhi.n	da306 <_ZN5Print7vprintfEbPKcSt9__va_list+0x3a>
  return write(str);
   da2e8:	1d39      	adds	r1, r7, #4
   da2ea:	4628      	mov	r0, r5
   da2ec:	f7ff ffaf 	bl	da24e <_ZN5Print5writeEPKc>
   da2f0:	4604      	mov	r4, r0
    {
        char bigger[n+1];
        n = vsnprintf(bigger, n+1, format, args2);
        n = print(bigger);
    }
    if (newline)
   da2f2:	b11e      	cbz	r6, da2fc <_ZN5Print7vprintfEbPKcSt9__va_list+0x30>
        n += println();
   da2f4:	4628      	mov	r0, r5
   da2f6:	f7ff ffbf 	bl	da278 <_ZN5Print7printlnEv>
   da2fa:	4404      	add	r4, r0

    va_end(args2);
    return n;
}
   da2fc:	4620      	mov	r0, r4
   da2fe:	3718      	adds	r7, #24
   da300:	46bd      	mov	sp, r7
   da302:	e8bd 81f0 	ldmia.w	sp!, {r4, r5, r6, r7, r8, pc}
        char bigger[n+1];
   da306:	f100 0308 	add.w	r3, r0, #8
   da30a:	f023 0307 	bic.w	r3, r3, #7
        n = print(bigger);
   da30e:	46e8      	mov	r8, sp
        char bigger[n+1];
   da310:	ebad 0d03 	sub.w	sp, sp, r3
        n = vsnprintf(bigger, n+1, format, args2);
   da314:	4622      	mov	r2, r4
   da316:	1c41      	adds	r1, r0, #1
   da318:	683b      	ldr	r3, [r7, #0]
   da31a:	4668      	mov	r0, sp
   da31c:	f7fd fdb6 	bl	d7e8c <vsnprintf>
  return write(str);
   da320:	4669      	mov	r1, sp
   da322:	4628      	mov	r0, r5
   da324:	f7ff ff93 	bl	da24e <_ZN5Print5writeEPKc>
   da328:	4604      	mov	r4, r0
   da32a:	46c5      	mov	sp, r8
   da32c:	e7e1      	b.n	da2f2 <_ZN5Print7vprintfEbPKcSt9__va_list+0x26>

000da32e <_ZN8RGBClassD1Ev>:
#include "rgbled.h"

typedef void (raw_rgb_change_handler_t)(uint8_t, uint8_t, uint8_t);
typedef std::function<raw_rgb_change_handler_t> wiring_rgb_change_handler_t;

class RGBClass {
   da32e:	b510      	push	{r4, lr}
   da330:	4604      	mov	r4, r0
   da332:	f7f9 ffe7 	bl	d4304 <_ZNSt14_Function_baseD1Ev>
   da336:	4620      	mov	r0, r4
   da338:	bd10      	pop	{r4, pc}
	...

000da33c <_GLOBAL__sub_I_RGB>:
    _Function_base() : _M_manager(nullptr) { }
   da33c:	4803      	ldr	r0, [pc, #12]	; (da34c <_GLOBAL__sub_I_RGB+0x10>)
#include "spark_wiring_rgb.h"
#include "spark_wiring_interrupts.h"

#include "core_hal.h"

RGBClass RGB;
   da33e:	4a04      	ldr	r2, [pc, #16]	; (da350 <_GLOBAL__sub_I_RGB+0x14>)
   da340:	4904      	ldr	r1, [pc, #16]	; (da354 <_GLOBAL__sub_I_RGB+0x18>)
   da342:	2300      	movs	r3, #0
   da344:	6083      	str	r3, [r0, #8]
   da346:	f000 bec3 	b.w	db0d0 <__aeabi_atexit>
   da34a:	bf00      	nop
   da34c:	2003e614 	.word	0x2003e614
   da350:	2003e3c0 	.word	0x2003e3c0
   da354:	000da32f 	.word	0x000da32f

000da358 <_ZN8SPIClassC1E19hal_spi_interface_t>:
    }
    return particle::SPISettings(info->clock, info->bit_order, info->data_mode);
}
} // namespace

SPIClass::SPIClass(hal_spi_interface_t spi)
   da358:	b510      	push	{r4, lr}
   da35a:	4604      	mov	r4, r0
   da35c:	4608      	mov	r0, r1
{
    _spi = spi;
   da35e:	7021      	strb	r1, [r4, #0]
    hal_spi_init(_spi);
   da360:	f7fd fb50 	bl	d7a04 <hal_spi_init>
    _dividerReference = SPI_CLK_SYSTEM; // 0 indicates the system clock
   da364:	2300      	movs	r3, #0
   da366:	6063      	str	r3, [r4, #4]
}
   da368:	4620      	mov	r0, r4
   da36a:	bd10      	pop	{r4, pc}

000da36c <_ZN6StringD1Ev>:
	init();
	char buf[33];
	dtoa(value, decimalPlaces, buf);
        *this = buf;
}
String::~String()
   da36c:	b510      	push	{r4, lr}
   da36e:	4604      	mov	r4, r0
{
	free(buffer);
   da370:	6800      	ldr	r0, [r0, #0]
   da372:	f7fd fd6b 	bl	d7e4c <free>
}
   da376:	4620      	mov	r0, r4
   da378:	bd10      	pop	{r4, pc}

000da37a <_ZN6String10invalidateEv>:
	len = 0;
	flags = 0;
}

void String::invalidate(void)
{
   da37a:	b510      	push	{r4, lr}
   da37c:	4604      	mov	r4, r0
	if (buffer) free(buffer);
   da37e:	6800      	ldr	r0, [r0, #0]
   da380:	b108      	cbz	r0, da386 <_ZN6String10invalidateEv+0xc>
   da382:	f7fd fd63 	bl	d7e4c <free>
	buffer = NULL;
   da386:	2300      	movs	r3, #0
	capacity = len = 0;
   da388:	e9c4 3301 	strd	r3, r3, [r4, #4]
	buffer = NULL;
   da38c:	6023      	str	r3, [r4, #0]
}
   da38e:	bd10      	pop	{r4, pc}

000da390 <_ZN6String12changeBufferEj>:
	}
	return 0;
}

unsigned char String::changeBuffer(unsigned int maxStrLen)
{
   da390:	b538      	push	{r3, r4, r5, lr}
   da392:	4604      	mov	r4, r0
   da394:	460d      	mov	r5, r1
	char *newbuffer = (char *)realloc(buffer, maxStrLen + 1);
   da396:	6800      	ldr	r0, [r0, #0]
   da398:	3101      	adds	r1, #1
   da39a:	f7fd fd5f 	bl	d7e5c <realloc>
	if (newbuffer) {
   da39e:	b110      	cbz	r0, da3a6 <_ZN6String12changeBufferEj+0x16>
		buffer = newbuffer;
		capacity = maxStrLen;
   da3a0:	e9c4 0500 	strd	r0, r5, [r4]
		return 1;
   da3a4:	2001      	movs	r0, #1
	}
	return 0;
}
   da3a6:	bd38      	pop	{r3, r4, r5, pc}

000da3a8 <_ZN6String7reserveEj>:
{
   da3a8:	b510      	push	{r4, lr}
	if (buffer && capacity >= size) return 1;
   da3aa:	6803      	ldr	r3, [r0, #0]
{
   da3ac:	4604      	mov	r4, r0
	if (buffer && capacity >= size) return 1;
   da3ae:	b123      	cbz	r3, da3ba <_ZN6String7reserveEj+0x12>
   da3b0:	6843      	ldr	r3, [r0, #4]
   da3b2:	428b      	cmp	r3, r1
   da3b4:	d301      	bcc.n	da3ba <_ZN6String7reserveEj+0x12>
   da3b6:	2001      	movs	r0, #1
}
   da3b8:	bd10      	pop	{r4, pc}
	if (changeBuffer(size)) {
   da3ba:	4620      	mov	r0, r4
   da3bc:	f7ff ffe8 	bl	da390 <_ZN6String12changeBufferEj>
   da3c0:	2800      	cmp	r0, #0
   da3c2:	d0f9      	beq.n	da3b8 <_ZN6String7reserveEj+0x10>
		if (len == 0) buffer[0] = 0;
   da3c4:	68a3      	ldr	r3, [r4, #8]
   da3c6:	2b00      	cmp	r3, #0
   da3c8:	d1f5      	bne.n	da3b6 <_ZN6String7reserveEj+0xe>
   da3ca:	6822      	ldr	r2, [r4, #0]
   da3cc:	7013      	strb	r3, [r2, #0]
   da3ce:	e7f2      	b.n	da3b6 <_ZN6String7reserveEj+0xe>

000da3d0 <_ZN6String4copyEPKcj>:
/*********************************************/
/*  Copy and Move                            */
/*********************************************/

String & String::copy(const char *cstr, unsigned int length)
{
   da3d0:	b537      	push	{r0, r1, r2, r4, r5, lr}
   da3d2:	460d      	mov	r5, r1
	if (!reserve(length)) {
   da3d4:	4611      	mov	r1, r2
   da3d6:	9201      	str	r2, [sp, #4]
{
   da3d8:	4604      	mov	r4, r0
	if (!reserve(length)) {
   da3da:	f7ff ffe5 	bl	da3a8 <_ZN6String7reserveEj>
   da3de:	9a01      	ldr	r2, [sp, #4]
   da3e0:	b928      	cbnz	r0, da3ee <_ZN6String4copyEPKcj+0x1e>
		invalidate();
   da3e2:	4620      	mov	r0, r4
   da3e4:	f7ff ffc9 	bl	da37a <_ZN6String10invalidateEv>
	}
	len = length;
	memcpy(buffer, cstr, length);
	buffer[len] = 0;
	return *this;
}
   da3e8:	4620      	mov	r0, r4
   da3ea:	b003      	add	sp, #12
   da3ec:	bd30      	pop	{r4, r5, pc}
	len = length;
   da3ee:	60a2      	str	r2, [r4, #8]
	memcpy(buffer, cstr, length);
   da3f0:	4629      	mov	r1, r5
   da3f2:	6820      	ldr	r0, [r4, #0]
   da3f4:	f001 fc1a 	bl	dbc2c <memcpy>
	buffer[len] = 0;
   da3f8:	6822      	ldr	r2, [r4, #0]
   da3fa:	68a3      	ldr	r3, [r4, #8]
   da3fc:	2100      	movs	r1, #0
   da3fe:	54d1      	strb	r1, [r2, r3]
	return *this;
   da400:	e7f2      	b.n	da3e8 <_ZN6String4copyEPKcj+0x18>

000da402 <_ZN6StringC1EPKc>:
	buffer = NULL;
   da402:	2300      	movs	r3, #0
String::String(const char *cstr)
   da404:	b513      	push	{r0, r1, r4, lr}
	capacity = 0;
   da406:	e9c0 3300 	strd	r3, r3, [r0]
String::String(const char *cstr)
   da40a:	4604      	mov	r4, r0
	len = 0;
   da40c:	6083      	str	r3, [r0, #8]
	flags = 0;
   da40e:	7303      	strb	r3, [r0, #12]
	if (cstr) copy(cstr, strlen(cstr));
   da410:	b141      	cbz	r1, da424 <_ZN6StringC1EPKc+0x22>
   da412:	4608      	mov	r0, r1
   da414:	9101      	str	r1, [sp, #4]
   da416:	f001 fca4 	bl	dbd62 <strlen>
   da41a:	9901      	ldr	r1, [sp, #4]
   da41c:	4602      	mov	r2, r0
   da41e:	4620      	mov	r0, r4
   da420:	f7ff ffd6 	bl	da3d0 <_ZN6String4copyEPKcj>
}
   da424:	4620      	mov	r0, r4
   da426:	b002      	add	sp, #8
   da428:	bd10      	pop	{r4, pc}

000da42a <_ZN6String4moveERS_>:
    return copy(reinterpret_cast<const char*>(pstr), length);
}

#ifdef __GXX_EXPERIMENTAL_CXX0X__
void String::move(String &rhs)
{
   da42a:	b538      	push	{r3, r4, r5, lr}
   da42c:	4605      	mov	r5, r0
	if (buffer) {
   da42e:	6800      	ldr	r0, [r0, #0]
{
   da430:	460c      	mov	r4, r1
	if (buffer) {
   da432:	b168      	cbz	r0, da450 <_ZN6String4moveERS_+0x26>
		if (capacity >= rhs.len) {
   da434:	686a      	ldr	r2, [r5, #4]
   da436:	688b      	ldr	r3, [r1, #8]
   da438:	429a      	cmp	r2, r3
   da43a:	d307      	bcc.n	da44c <_ZN6String4moveERS_+0x22>
			strcpy(buffer, rhs.buffer);
   da43c:	6809      	ldr	r1, [r1, #0]
   da43e:	f001 fc6a 	bl	dbd16 <strcpy>
			len = rhs.len;
   da442:	68a3      	ldr	r3, [r4, #8]
   da444:	60ab      	str	r3, [r5, #8]
			rhs.len = 0;
   da446:	2300      	movs	r3, #0
	buffer = rhs.buffer;
	capacity = rhs.capacity;
	len = rhs.len;
	rhs.buffer = NULL;
	rhs.capacity = 0;
	rhs.len = 0;
   da448:	60a3      	str	r3, [r4, #8]
}
   da44a:	bd38      	pop	{r3, r4, r5, pc}
			free(buffer);
   da44c:	f7fd fcfe 	bl	d7e4c <free>
	buffer = rhs.buffer;
   da450:	6823      	ldr	r3, [r4, #0]
   da452:	602b      	str	r3, [r5, #0]
	capacity = rhs.capacity;
   da454:	6863      	ldr	r3, [r4, #4]
   da456:	606b      	str	r3, [r5, #4]
	len = rhs.len;
   da458:	68a3      	ldr	r3, [r4, #8]
   da45a:	60ab      	str	r3, [r5, #8]
	rhs.buffer = NULL;
   da45c:	2300      	movs	r3, #0
	rhs.capacity = 0;
   da45e:	e9c4 3300 	strd	r3, r3, [r4]
   da462:	e7f1      	b.n	da448 <_ZN6String4moveERS_+0x1e>

000da464 <_ZN6StringC1EOS_>:
String::String(String &&rval)
   da464:	b510      	push	{r4, lr}
	buffer = NULL;
   da466:	2300      	movs	r3, #0
	capacity = 0;
   da468:	e9c0 3300 	strd	r3, r3, [r0]
String::String(String &&rval)
   da46c:	4604      	mov	r4, r0
	len = 0;
   da46e:	6083      	str	r3, [r0, #8]
	flags = 0;
   da470:	7303      	strb	r3, [r0, #12]
	move(rval);
   da472:	f7ff ffda 	bl	da42a <_ZN6String4moveERS_>
}
   da476:	4620      	mov	r0, r4
   da478:	bd10      	pop	{r4, pc}

000da47a <_ZN6StringaSERKS_>:
#endif

String & String::operator = (const String &rhs)
{
	if (this == &rhs) return *this;
   da47a:	4288      	cmp	r0, r1
{
   da47c:	b510      	push	{r4, lr}
   da47e:	4604      	mov	r4, r0
	if (this == &rhs) return *this;
   da480:	d005      	beq.n	da48e <_ZN6StringaSERKS_+0x14>

	if (rhs.buffer) copy(rhs.buffer, rhs.len);
   da482:	680b      	ldr	r3, [r1, #0]
   da484:	b12b      	cbz	r3, da492 <_ZN6StringaSERKS_+0x18>
   da486:	688a      	ldr	r2, [r1, #8]
   da488:	4619      	mov	r1, r3
   da48a:	f7ff ffa1 	bl	da3d0 <_ZN6String4copyEPKcj>
	else invalidate();

	return *this;
}
   da48e:	4620      	mov	r0, r4
   da490:	bd10      	pop	{r4, pc}
	else invalidate();
   da492:	f7ff ff72 	bl	da37a <_ZN6String10invalidateEv>
   da496:	e7fa      	b.n	da48e <_ZN6StringaSERKS_+0x14>

000da498 <_ZN6StringC1ERKS_>:
String::String(const String &value)
   da498:	b510      	push	{r4, lr}
	buffer = NULL;
   da49a:	2300      	movs	r3, #0
String::String(const String &value)
   da49c:	4604      	mov	r4, r0
	capacity = 0;
   da49e:	e9c0 3300 	strd	r3, r3, [r0]
	len = 0;
   da4a2:	6083      	str	r3, [r0, #8]
	flags = 0;
   da4a4:	7303      	strb	r3, [r0, #12]
	*this = value;
   da4a6:	f7ff ffe8 	bl	da47a <_ZN6StringaSERKS_>
}
   da4aa:	4620      	mov	r0, r4
   da4ac:	bd10      	pop	{r4, pc}

000da4ae <_ZNK6String6equalsEPKc>:
{
	return (len == s2.len && compareTo(s2) == 0);
}

unsigned char String::equals(const char *cstr) const
{
   da4ae:	b508      	push	{r3, lr}
	if (len == 0) return (cstr == NULL || *cstr == 0);
   da4b0:	6882      	ldr	r2, [r0, #8]
   da4b2:	b93a      	cbnz	r2, da4c4 <_ZNK6String6equalsEPKc+0x16>
   da4b4:	b121      	cbz	r1, da4c0 <_ZNK6String6equalsEPKc+0x12>
   da4b6:	7808      	ldrb	r0, [r1, #0]
	if (cstr == NULL) return buffer[0] == 0;
	return strcmp(buffer, cstr) == 0;
   da4b8:	fab0 f080 	clz	r0, r0
   da4bc:	0940      	lsrs	r0, r0, #5
   da4be:	e000      	b.n	da4c2 <_ZNK6String6equalsEPKc+0x14>
	if (len == 0) return (cstr == NULL || *cstr == 0);
   da4c0:	2001      	movs	r0, #1
}
   da4c2:	bd08      	pop	{r3, pc}
	if (cstr == NULL) return buffer[0] == 0;
   da4c4:	6800      	ldr	r0, [r0, #0]
   da4c6:	b909      	cbnz	r1, da4cc <_ZNK6String6equalsEPKc+0x1e>
   da4c8:	7800      	ldrb	r0, [r0, #0]
   da4ca:	e7f5      	b.n	da4b8 <_ZNK6String6equalsEPKc+0xa>
	return strcmp(buffer, cstr) == 0;
   da4cc:	f001 fc19 	bl	dbd02 <strcmp>
   da4d0:	e7f2      	b.n	da4b8 <_ZNK6String6equalsEPKc+0xa>

000da4d2 <_ZNK6String8getBytesEPhjj>:
	if (index >= len || !buffer) return 0;
	return buffer[index];
}

void String::getBytes(unsigned char *buf, unsigned int bufsize, unsigned int index) const
{
   da4d2:	b558      	push	{r3, r4, r6, lr}
   da4d4:	460e      	mov	r6, r1
	if (!bufsize || !buf) return;
   da4d6:	b12a      	cbz	r2, da4e4 <_ZNK6String8getBytesEPhjj+0x12>
   da4d8:	b121      	cbz	r1, da4e4 <_ZNK6String8getBytesEPhjj+0x12>
	if (index >= len) {
   da4da:	6884      	ldr	r4, [r0, #8]
   da4dc:	42a3      	cmp	r3, r4
   da4de:	d302      	bcc.n	da4e6 <_ZNK6String8getBytesEPhjj+0x14>
		buf[0] = 0;
   da4e0:	2300      	movs	r3, #0
   da4e2:	700b      	strb	r3, [r1, #0]
	}
	unsigned int n = bufsize - 1;
	if (n > len - index) n = len - index;
	strncpy((char *)buf, buffer + index, n);
	buf[n] = 0;
}
   da4e4:	bd58      	pop	{r3, r4, r6, pc}
	if (n > len - index) n = len - index;
   da4e6:	1ae4      	subs	r4, r4, r3
	unsigned int n = bufsize - 1;
   da4e8:	3a01      	subs	r2, #1
	strncpy((char *)buf, buffer + index, n);
   da4ea:	6801      	ldr	r1, [r0, #0]
   da4ec:	4294      	cmp	r4, r2
   da4ee:	bf28      	it	cs
   da4f0:	4614      	movcs	r4, r2
   da4f2:	4419      	add	r1, r3
   da4f4:	4622      	mov	r2, r4
   da4f6:	4630      	mov	r0, r6
   da4f8:	f001 fc4d 	bl	dbd96 <strncpy>
	buf[n] = 0;
   da4fc:	2300      	movs	r3, #0
   da4fe:	5533      	strb	r3, [r6, r4]
   da500:	e7f0      	b.n	da4e4 <_ZNK6String8getBytesEPhjj+0x12>
	...

000da504 <_ZN6String6formatEPKcz>:
    StringPrintableHelper help(*this);
    printable.printTo(help);
}

String String::format(const char* fmt, ...)
{
   da504:	b40e      	push	{r1, r2, r3}
   da506:	b570      	push	{r4, r5, r6, lr}
   da508:	b087      	sub	sp, #28
   da50a:	ad0b      	add	r5, sp, #44	; 0x2c
   da50c:	4604      	mov	r4, r0
   da50e:	f855 2b04 	ldr.w	r2, [r5], #4
    va_list marker;
    va_start(marker, fmt);
    const int bufsize = 5;
    char test[bufsize];
    size_t n = vsnprintf(test, bufsize, fmt, marker);
   da512:	9201      	str	r2, [sp, #4]
   da514:	462b      	mov	r3, r5
   da516:	2105      	movs	r1, #5
   da518:	a804      	add	r0, sp, #16
    va_start(marker, fmt);
   da51a:	9503      	str	r5, [sp, #12]
    size_t n = vsnprintf(test, bufsize, fmt, marker);
   da51c:	f7fd fcb6 	bl	d7e8c <vsnprintf>
    va_end(marker);

    String result;
   da520:	490b      	ldr	r1, [pc, #44]	; (da550 <_ZN6String6formatEPKcz+0x4c>)
    size_t n = vsnprintf(test, bufsize, fmt, marker);
   da522:	4606      	mov	r6, r0
    String result;
   da524:	4620      	mov	r0, r4
   da526:	f7ff ff6c 	bl	da402 <_ZN6StringC1EPKc>
    result.reserve(n);  // internally adds +1 for null terminator
   da52a:	4631      	mov	r1, r6
   da52c:	4620      	mov	r0, r4
   da52e:	f7ff ff3b 	bl	da3a8 <_ZN6String7reserveEj>
    if (result.buffer) {
   da532:	6820      	ldr	r0, [r4, #0]
   da534:	b130      	cbz	r0, da544 <_ZN6String6formatEPKcz+0x40>
        va_start(marker, fmt);
        n = vsnprintf(result.buffer, n+1, fmt, marker);
   da536:	9a01      	ldr	r2, [sp, #4]
        va_start(marker, fmt);
   da538:	9503      	str	r5, [sp, #12]
        n = vsnprintf(result.buffer, n+1, fmt, marker);
   da53a:	462b      	mov	r3, r5
   da53c:	1c71      	adds	r1, r6, #1
   da53e:	f7fd fca5 	bl	d7e8c <vsnprintf>
        va_end(marker);
        result.len = n;
   da542:	60a0      	str	r0, [r4, #8]
    }
    return result;
}
   da544:	4620      	mov	r0, r4
   da546:	b007      	add	sp, #28
   da548:	e8bd 4070 	ldmia.w	sp!, {r4, r5, r6, lr}
   da54c:	b003      	add	sp, #12
   da54e:	4770      	bx	lr
   da550:	000de851 	.word	0x000de851

000da554 <_ZN17SystemSleepResult22freeWakeupSourceMemoryEv.isra.0>:
    operator SleepResult() {
        return toSleepResult();
    }

private:
    void freeWakeupSourceMemory() {
   da554:	b510      	push	{r4, lr}
   da556:	4604      	mov	r4, r0
        if (wakeupSource_) {
   da558:	6800      	ldr	r0, [r0, #0]
   da55a:	b118      	cbz	r0, da564 <_ZN17SystemSleepResult22freeWakeupSourceMemoryEv.isra.0+0x10>
            free(wakeupSource_);
   da55c:	f7fd fc76 	bl	d7e4c <free>
            wakeupSource_ = nullptr;
   da560:	2300      	movs	r3, #0
   da562:	6023      	str	r3, [r4, #0]
        }
    }
   da564:	bd10      	pop	{r4, pc}

000da566 <_ZN17SystemSleepResultaSEOS_>:
    SystemSleepResult& operator=(SystemSleepResult&& result) {
   da566:	b538      	push	{r3, r4, r5, lr}
        error_ = result.error_;
   da568:	f9b1 3004 	ldrsh.w	r3, [r1, #4]
   da56c:	8083      	strh	r3, [r0, #4]
        compatResult_ = result.compatResult_;
   da56e:	460b      	mov	r3, r1
    SystemSleepResult& operator=(SystemSleepResult&& result) {
   da570:	460d      	mov	r5, r1
        compatResult_ = result.compatResult_;
   da572:	f853 2f06 	ldr.w	r2, [r3, #6]!
   da576:	f8c0 2006 	str.w	r2, [r0, #6]
   da57a:	889b      	ldrh	r3, [r3, #4]
   da57c:	8143      	strh	r3, [r0, #10]
    SystemSleepResult& operator=(SystemSleepResult&& result) {
   da57e:	4604      	mov	r4, r0
        freeWakeupSourceMemory();
   da580:	f7ff ffe8 	bl	da554 <_ZN17SystemSleepResult22freeWakeupSourceMemoryEv.isra.0>
        if (result.wakeupSource_) {
   da584:	682b      	ldr	r3, [r5, #0]
   da586:	b113      	cbz	r3, da58e <_ZN17SystemSleepResultaSEOS_+0x28>
            wakeupSource_ = result.wakeupSource_;
   da588:	6023      	str	r3, [r4, #0]
            result.wakeupSource_ = nullptr;
   da58a:	2300      	movs	r3, #0
   da58c:	602b      	str	r3, [r5, #0]
    }
   da58e:	4620      	mov	r0, r4
   da590:	bd38      	pop	{r3, r4, r5, pc}
	...

000da594 <_ZN17SystemSleepResult16copyWakeupSourceEP24hal_wakeup_source_base_t>:

    int copyWakeupSource(hal_wakeup_source_base_t* source) {
   da594:	b538      	push	{r3, r4, r5, lr}
   da596:	460c      	mov	r4, r1
   da598:	4605      	mov	r5, r0
        freeWakeupSourceMemory();
   da59a:	f7ff ffdb 	bl	da554 <_ZN17SystemSleepResult22freeWakeupSourceMemoryEv.isra.0>
        if (source) {
   da59e:	b144      	cbz	r4, da5b2 <_ZN17SystemSleepResult16copyWakeupSourceEP24hal_wakeup_source_base_t+0x1e>
            wakeupSource_ = (hal_wakeup_source_base_t*)malloc(source->size);
   da5a0:	8820      	ldrh	r0, [r4, #0]
   da5a2:	f7fd fc4b 	bl	d7e3c <malloc>
   da5a6:	6028      	str	r0, [r5, #0]
            if (wakeupSource_) {
   da5a8:	b128      	cbz	r0, da5b6 <_ZN17SystemSleepResult16copyWakeupSourceEP24hal_wakeup_source_base_t+0x22>
                memcpy(wakeupSource_, source, source->size);
   da5aa:	8822      	ldrh	r2, [r4, #0]
   da5ac:	4621      	mov	r1, r4
   da5ae:	f001 fb3d 	bl	dbc2c <memcpy>
            } else {
                return SYSTEM_ERROR_NO_MEMORY;
            }
        }
        return SYSTEM_ERROR_NONE;
   da5b2:	2000      	movs	r0, #0
    }
   da5b4:	bd38      	pop	{r3, r4, r5, pc}
                return SYSTEM_ERROR_NO_MEMORY;
   da5b6:	4801      	ldr	r0, [pc, #4]	; (da5bc <_ZN17SystemSleepResult16copyWakeupSourceEP24hal_wakeup_source_base_t+0x28>)
   da5b8:	e7fc      	b.n	da5b4 <_ZN17SystemSleepResult16copyWakeupSourceEP24hal_wakeup_source_base_t+0x20>
   da5ba:	bf00      	nop
   da5bc:	fffffefc 	.word	0xfffffefc

000da5c0 <_ZN11SystemClass5resetEmN8particle5FlagsI19SystemResetFlagTypemEE>:
{
    reset(0, flags);
}

void SystemClass::reset(uint32_t data, SystemResetFlags flags)
{
   da5c0:	b507      	push	{r0, r1, r2, lr}
   da5c2:	460b      	mov	r3, r1
    system_reset(SYSTEM_RESET_MODE_NORMAL, RESET_REASON_USER, data, flags.value(), nullptr);
   da5c4:	2100      	movs	r1, #0
{
   da5c6:	4602      	mov	r2, r0
    system_reset(SYSTEM_RESET_MODE_NORMAL, RESET_REASON_USER, data, flags.value(), nullptr);
   da5c8:	9100      	str	r1, [sp, #0]
   da5ca:	2001      	movs	r0, #1
   da5cc:	218c      	movs	r1, #140	; 0x8c
   da5ce:	f7fd fb5b 	bl	d7c88 <system_reset>
}
   da5d2:	b003      	add	sp, #12
   da5d4:	f85d fb04 	ldr.w	pc, [sp], #4

000da5d8 <_ZN11SystemClass5resetEN8particle5FlagsI19SystemResetFlagTypemEE>:
{
   da5d8:	4601      	mov	r1, r0
    reset(0, flags);
   da5da:	2000      	movs	r0, #0
   da5dc:	f7ff bff0 	b.w	da5c0 <_ZN11SystemClass5resetEmN8particle5FlagsI19SystemResetFlagTypemEE>

000da5e0 <_ZN11SystemClass5resetEv>:
    reset(SystemResetFlags());
   da5e0:	2000      	movs	r0, #0
   da5e2:	f7ff bff9 	b.w	da5d8 <_ZN11SystemClass5resetEN8particle5FlagsI19SystemResetFlagTypemEE>
	...

000da5e8 <_ZN11SystemClass5sleepERKN8particle24SystemSleepConfigurationE>:
void SystemClass::enterSafeMode(SystemResetFlags flags)
{
    system_reset(SYSTEM_RESET_MODE_SAFE, 0, 0, flags.value(), nullptr);
}

SystemSleepResult SystemClass::sleep(const particle::SystemSleepConfiguration& config) {
   da5e8:	b5f0      	push	{r4, r5, r6, r7, lr}
   da5ea:	4d2d      	ldr	r5, [pc, #180]	; (da6a0 <_ZN11SystemClass5sleepERKN8particle24SystemSleepConfigurationE+0xb8>)
    }

    // It doesn't guarantee the combination of sleep mode and
    // wakeup sources that the platform supports.
    bool valid() const {
        if (!valid_) {
   da5ec:	7d0b      	ldrb	r3, [r1, #20]
   da5ee:	4604      	mov	r4, r0
   da5f0:	b08b      	sub	sp, #44	; 0x2c
   da5f2:	4608      	mov	r0, r1
   da5f4:	1daf      	adds	r7, r5, #6
   da5f6:	2b00      	cmp	r3, #0
   da5f8:	d038      	beq.n	da66c <_ZN11SystemClass5sleepERKN8particle24SystemSleepConfigurationE+0x84>
        return static_cast<SystemSleepMode>(config_->mode);
   da5fa:	680b      	ldr	r3, [r1, #0]
            return valid_;
        }
        if (sleepMode() == SystemSleepMode::NONE) {
   da5fc:	791b      	ldrb	r3, [r3, #4]
   da5fe:	2b00      	cmp	r3, #0
   da600:	d034      	beq.n	da66c <_ZN11SystemClass5sleepERKN8particle24SystemSleepConfigurationE+0x84>
              error_(SYSTEM_ERROR_NONE) {
   da602:	2200      	movs	r2, #0
    SleepResult() {}
   da604:	4b27      	ldr	r3, [pc, #156]	; (da6a4 <_ZN11SystemClass5sleepERKN8particle24SystemSleepConfigurationE+0xbc>)
   da606:	9304      	str	r3, [sp, #16]
    if (!config.valid()) {
        LOG(ERROR, "System sleep configuration is invalid.");
        System.systemSleepResult_ = SystemSleepResult(SYSTEM_ERROR_INVALID_ARGUMENT);
    } else {
        SystemSleepResult result;
        int ret = system_sleep_ext(config.halConfig(), result.halWakeupSource(), nullptr);
   da608:	a902      	add	r1, sp, #8
   da60a:	3004      	adds	r0, #4
              error_(SYSTEM_ERROR_NONE) {
   da60c:	9202      	str	r2, [sp, #8]
   da60e:	f8ad 200c 	strh.w	r2, [sp, #12]
    SleepResult() {}
   da612:	f88d 200e 	strb.w	r2, [sp, #14]
   da616:	f7fd fb2d 	bl	d7c74 <system_sleep_ext>
        compatResult_ = result.compatResult_;
   da61a:	f8dd 300e 	ldr.w	r3, [sp, #14]
   da61e:	f8c5 3006 	str.w	r3, [r5, #6]
        result.setError(static_cast<system_error_t>(ret));
   da622:	b200      	sxth	r0, r0
   da624:	f8bd 3012 	ldrh.w	r3, [sp, #18]
        error_ = error;
   da628:	f8ad 000c 	strh.w	r0, [sp, #12]
        error_ = result.error_;
   da62c:	80a8      	strh	r0, [r5, #4]
        copyWakeupSource(result.wakeupSource_);
   da62e:	9902      	ldr	r1, [sp, #8]
        compatResult_ = result.compatResult_;
   da630:	80bb      	strh	r3, [r7, #4]
        copyWakeupSource(result.wakeupSource_);
   da632:	4628      	mov	r0, r5
   da634:	f7ff ffae 	bl	da594 <_ZN17SystemSleepResult16copyWakeupSourceEP24hal_wakeup_source_base_t>
        freeWakeupSourceMemory();
   da638:	a802      	add	r0, sp, #8
   da63a:	f7ff ff8b 	bl	da554 <_ZN17SystemSleepResult22freeWakeupSourceMemoryEv.isra.0>
              error_(SYSTEM_ERROR_NONE) {
   da63e:	2300      	movs	r3, #0
   da640:	6023      	str	r3, [r4, #0]
   da642:	80a3      	strh	r3, [r4, #4]
    SleepResult() {}
   da644:	71a3      	strb	r3, [r4, #6]
   da646:	8123      	strh	r3, [r4, #8]
   da648:	f64f 73ff 	movw	r3, #65535	; 0xffff
   da64c:	8163      	strh	r3, [r4, #10]
        error_ = result.error_;
   da64e:	f9b5 3004 	ldrsh.w	r3, [r5, #4]
   da652:	80a3      	strh	r3, [r4, #4]
        compatResult_ = result.compatResult_;
   da654:	683b      	ldr	r3, [r7, #0]
   da656:	f8c4 3006 	str.w	r3, [r4, #6]
   da65a:	88bb      	ldrh	r3, [r7, #4]
        copyWakeupSource(result.wakeupSource_);
   da65c:	6829      	ldr	r1, [r5, #0]
        compatResult_ = result.compatResult_;
   da65e:	8163      	strh	r3, [r4, #10]
        copyWakeupSource(result.wakeupSource_);
   da660:	4620      	mov	r0, r4
   da662:	f7ff ff97 	bl	da594 <_ZN17SystemSleepResult16copyWakeupSourceEP24hal_wakeup_source_base_t>
        System.systemSleepResult_ = result;
    }
    return System.systemSleepResult_;
}
   da666:	4620      	mov	r0, r4
   da668:	b00b      	add	sp, #44	; 0x2c
   da66a:	bdf0      	pop	{r4, r5, r6, r7, pc}
        LOG(ERROR, "System sleep configuration is invalid.");
   da66c:	2600      	movs	r6, #0
   da66e:	2320      	movs	r3, #32
   da670:	e9cd 3602 	strd	r3, r6, [sp, #8]
   da674:	4b0c      	ldr	r3, [pc, #48]	; (da6a8 <_ZN11SystemClass5sleepERKN8particle24SystemSleepConfigurationE+0xc0>)
   da676:	9300      	str	r3, [sp, #0]
   da678:	490c      	ldr	r1, [pc, #48]	; (da6ac <_ZN11SystemClass5sleepERKN8particle24SystemSleepConfigurationE+0xc4>)
   da67a:	4633      	mov	r3, r6
   da67c:	aa02      	add	r2, sp, #8
   da67e:	2032      	movs	r0, #50	; 0x32
   da680:	f7fd fa68 	bl	d7b54 <log_message>
    SleepResult() {}
   da684:	4b07      	ldr	r3, [pc, #28]	; (da6a4 <_ZN11SystemClass5sleepERKN8particle24SystemSleepConfigurationE+0xbc>)
   da686:	9304      	str	r3, [sp, #16]
        System.systemSleepResult_ = SystemSleepResult(SYSTEM_ERROR_INVALID_ARGUMENT);
   da688:	a902      	add	r1, sp, #8
        error_ = error;
   da68a:	f64f 63f2 	movw	r3, #65266	; 0xfef2
   da68e:	4804      	ldr	r0, [pc, #16]	; (da6a0 <_ZN11SystemClass5sleepERKN8particle24SystemSleepConfigurationE+0xb8>)
              error_(SYSTEM_ERROR_NONE) {
   da690:	9602      	str	r6, [sp, #8]
    SleepResult() {}
   da692:	f88d 600e 	strb.w	r6, [sp, #14]
        error_ = error;
   da696:	f8ad 300c 	strh.w	r3, [sp, #12]
   da69a:	f7ff ff64 	bl	da566 <_ZN17SystemSleepResultaSEOS_>
   da69e:	e7cb      	b.n	da638 <_ZN11SystemClass5sleepERKN8particle24SystemSleepConfigurationE+0x50>
   da6a0:	2003e624 	.word	0x2003e624
   da6a4:	ffff0000 	.word	0xffff0000
   da6a8:	000de923 	.word	0x000de923
   da6ac:	000de91c 	.word	0x000de91c

000da6b0 <_GLOBAL__sub_I_System>:
    return wokenUpByRtc();
}

system_error_t SleepResult::error() const {
    return err_;
   da6b0:	b510      	push	{r4, lr}
} // namespace particle

// particle::Flag<TagT, ValueT>
template<typename TagT, typename ValueT>
inline particle::Flag<TagT, ValueT>::Flag(ValueT val) :
        val_(val) {
   da6b2:	4b09      	ldr	r3, [pc, #36]	; (da6d8 <_GLOBAL__sub_I_System+0x28>)
              error_(SYSTEM_ERROR_NONE) {
   da6b4:	4c09      	ldr	r4, [pc, #36]	; (da6dc <_GLOBAL__sub_I_System+0x2c>)
   da6b6:	2202      	movs	r2, #2
   da6b8:	2000      	movs	r0, #0
   da6ba:	601a      	str	r2, [r3, #0]
    SleepResult() {}
   da6bc:	4b08      	ldr	r3, [pc, #32]	; (da6e0 <_GLOBAL__sub_I_System+0x30>)
              error_(SYSTEM_ERROR_NONE) {
   da6be:	6020      	str	r0, [r4, #0]
   da6c0:	80a0      	strh	r0, [r4, #4]
    SleepResult() {}
   da6c2:	71a0      	strb	r0, [r4, #6]
   da6c4:	60a3      	str	r3, [r4, #8]

class SystemClass {
public:

    SystemClass(System_Mode_TypeDef mode = DEFAULT) {
        set_system_mode(mode);
   da6c6:	f7fd fa77 	bl	d7bb8 <set_system_mode>
SystemClass System;
   da6ca:	4620      	mov	r0, r4
   da6cc:	4a05      	ldr	r2, [pc, #20]	; (da6e4 <_GLOBAL__sub_I_System+0x34>)
   da6ce:	4906      	ldr	r1, [pc, #24]	; (da6e8 <_GLOBAL__sub_I_System+0x38>)
   da6d0:	e8bd 4010 	ldmia.w	sp!, {r4, lr}
SystemClass System;
   da6d4:	f000 bcfc 	b.w	db0d0 <__aeabi_atexit>
   da6d8:	2003e630 	.word	0x2003e630
   da6dc:	2003e624 	.word	0x2003e624
   da6e0:	ffff0000 	.word	0xffff0000
   da6e4:	2003e3c0 	.word	0x2003e3c0
   da6e8:	000d424b 	.word	0x000d424b

000da6ec <_ZL22Refresh_UnixTime_Cachex>:
	return calendar_time;
}

/* Refresh Unix/RTC time cache */
static void Refresh_UnixTime_Cache(time_t unix_time)
{
   da6ec:	e92d 41f0 	stmdb	sp!, {r4, r5, r6, r7, r8, lr}
    unix_time += time_zone_cache;
   da6f0:	4a15      	ldr	r2, [pc, #84]	; (da748 <_ZL22Refresh_UnixTime_Cachex+0x5c>)
    unix_time += dst_current_cache;
    if(unix_time != unix_time_cache)
   da6f2:	f8df 8060 	ldr.w	r8, [pc, #96]	; da754 <_ZL22Refresh_UnixTime_Cachex+0x68>
    unix_time += time_zone_cache;
   da6f6:	e9d2 3200 	ldrd	r3, r2, [r2]
   da6fa:	18c0      	adds	r0, r0, r3
   da6fc:	eb42 0101 	adc.w	r1, r2, r1
    unix_time += dst_current_cache;
   da700:	4a12      	ldr	r2, [pc, #72]	; (da74c <_ZL22Refresh_UnixTime_Cachex+0x60>)
   da702:	e9d2 3200 	ldrd	r3, r2, [r2]
   da706:	18c6      	adds	r6, r0, r3
   da708:	eb41 0702 	adc.w	r7, r1, r2
    if(unix_time != unix_time_cache)
   da70c:	e9d8 2300 	ldrd	r2, r3, [r8]
   da710:	42bb      	cmp	r3, r7
   da712:	bf08      	it	eq
   da714:	42b2      	cmpeq	r2, r6
{
   da716:	b08c      	sub	sp, #48	; 0x30
    if(unix_time != unix_time_cache)
   da718:	d013      	beq.n	da742 <_ZL22Refresh_UnixTime_Cachex+0x56>
	localtime_r(&unix_time, &calendar_time);
   da71a:	a903      	add	r1, sp, #12
   da71c:	4668      	mov	r0, sp
   da71e:	e9cd 6700 	strd	r6, r7, [sp]
   da722:	f7fd fbdb 	bl	d7edc <localtime_r>
	calendar_time.tm_year += 1900;
   da726:	9b08      	ldr	r3, [sp, #32]
    {
            calendar_time_cache = Convert_UnixTime_To_CalendarTime(unix_time);
   da728:	4d09      	ldr	r5, [pc, #36]	; (da750 <_ZL22Refresh_UnixTime_Cachex+0x64>)
	calendar_time.tm_year += 1900;
   da72a:	f203 736c 	addw	r3, r3, #1900	; 0x76c
            calendar_time_cache = Convert_UnixTime_To_CalendarTime(unix_time);
   da72e:	ac03      	add	r4, sp, #12
	calendar_time.tm_year += 1900;
   da730:	9308      	str	r3, [sp, #32]
            calendar_time_cache = Convert_UnixTime_To_CalendarTime(unix_time);
   da732:	cc0f      	ldmia	r4!, {r0, r1, r2, r3}
   da734:	c50f      	stmia	r5!, {r0, r1, r2, r3}
   da736:	cc0f      	ldmia	r4!, {r0, r1, r2, r3}
   da738:	c50f      	stmia	r5!, {r0, r1, r2, r3}
            unix_time_cache = unix_time;
   da73a:	e9c8 6700 	strd	r6, r7, [r8]
            calendar_time_cache = Convert_UnixTime_To_CalendarTime(unix_time);
   da73e:	6823      	ldr	r3, [r4, #0]
   da740:	602b      	str	r3, [r5, #0]
    }
}
   da742:	b00c      	add	sp, #48	; 0x30
   da744:	e8bd 81f0 	ldmia.w	sp!, {r4, r5, r6, r7, r8, pc}
   da748:	2003e668 	.word	0x2003e668
   da74c:	2003e660 	.word	0x2003e660
   da750:	2003e63c 	.word	0x2003e63c
   da754:	2003e670 	.word	0x2003e670

000da758 <_ZN10CloudClass12syncTimeDoneEv.isra.0>:
    bool syncTimeDone(void)
   da758:	b508      	push	{r3, lr}
        return !spark_sync_time_pending(nullptr) || disconnected();
   da75a:	2000      	movs	r0, #0
   da75c:	f7fd fae6 	bl	d7d2c <spark_sync_time_pending>
   da760:	b128      	cbz	r0, da76e <_ZN10CloudClass12syncTimeDoneEv.isra.0+0x16>
    static bool connected(void) { return spark_cloud_flag_connected(); }
   da762:	f7fd fabb 	bl	d7cdc <spark_cloud_flag_connected>
        return !spark_sync_time_pending(nullptr) || disconnected();
   da766:	f080 0001 	eor.w	r0, r0, #1
   da76a:	b2c0      	uxtb	r0, r0
    }
   da76c:	bd08      	pop	{r3, pc}
        return !spark_sync_time_pending(nullptr) || disconnected();
   da76e:	2001      	movs	r0, #1
   da770:	e7fc      	b.n	da76c <_ZN10CloudClass12syncTimeDoneEv.isra.0+0x14>
	...

000da774 <_ZN9TimeClass4hourEx>:
	return hour(now());
}

/* the hour for the given time */
int TimeClass::hour(time_t t)
{
   da774:	b508      	push	{r3, lr}
	Refresh_UnixTime_Cache(t);
   da776:	f7ff ffb9 	bl	da6ec <_ZL22Refresh_UnixTime_Cachex>
	return calendar_time_cache.tm_hour;
}
   da77a:	4b01      	ldr	r3, [pc, #4]	; (da780 <_ZN9TimeClass4hourEx+0xc>)
   da77c:	6898      	ldr	r0, [r3, #8]
   da77e:	bd08      	pop	{r3, pc}
   da780:	2003e63c 	.word	0x2003e63c

000da784 <_ZN9TimeClass3dayEx>:
	return day(now());
}

/* the day for the given time */
int TimeClass::day(time_t t)
{
   da784:	b508      	push	{r3, lr}
	Refresh_UnixTime_Cache(t);
   da786:	f7ff ffb1 	bl	da6ec <_ZL22Refresh_UnixTime_Cachex>
	return calendar_time_cache.tm_mday;
}
   da78a:	4b01      	ldr	r3, [pc, #4]	; (da790 <_ZN9TimeClass3dayEx+0xc>)
   da78c:	68d8      	ldr	r0, [r3, #12]
   da78e:	bd08      	pop	{r3, pc}
   da790:	2003e63c 	.word	0x2003e63c

000da794 <_ZN9TimeClass7weekdayEx>:
	return weekday(now());
}

/* the weekday for the given time */
int TimeClass::weekday(time_t t)
{
   da794:	b508      	push	{r3, lr}
	Refresh_UnixTime_Cache(t);
   da796:	f7ff ffa9 	bl	da6ec <_ZL22Refresh_UnixTime_Cachex>
	return (calendar_time_cache.tm_wday + 1);//Arduino's weekday representation
   da79a:	4b02      	ldr	r3, [pc, #8]	; (da7a4 <_ZN9TimeClass7weekdayEx+0x10>)
   da79c:	6998      	ldr	r0, [r3, #24]
}
   da79e:	3001      	adds	r0, #1
   da7a0:	bd08      	pop	{r3, pc}
   da7a2:	bf00      	nop
   da7a4:	2003e63c 	.word	0x2003e63c

000da7a8 <_ZN9TimeClass5monthEx>:
	return month(now());
}

/* the month for the given time */
int TimeClass::month(time_t t)
{
   da7a8:	b508      	push	{r3, lr}
	Refresh_UnixTime_Cache(t);
   da7aa:	f7ff ff9f 	bl	da6ec <_ZL22Refresh_UnixTime_Cachex>
	return (calendar_time_cache.tm_mon + 1);//Arduino's month representation
   da7ae:	4b02      	ldr	r3, [pc, #8]	; (da7b8 <_ZN9TimeClass5monthEx+0x10>)
   da7b0:	6918      	ldr	r0, [r3, #16]
}
   da7b2:	3001      	adds	r0, #1
   da7b4:	bd08      	pop	{r3, pc}
   da7b6:	bf00      	nop
   da7b8:	2003e63c 	.word	0x2003e63c

000da7bc <_ZN9TimeClass4zoneEf>:
}

/* set the time zone (+/-) offset from GMT */
void TimeClass::zone(float GMT_Offset)
{
	if(GMT_Offset < -12 || GMT_Offset > 14)
   da7bc:	eefa 7a08 	vmov.f32	s15, #168	; 0xc1400000 -12.0
   da7c0:	eeb4 0ae7 	vcmpe.f32	s0, s15
   da7c4:	eef1 fa10 	vmrs	APSR_nzcv, fpscr
{
   da7c8:	b508      	push	{r3, lr}
	if(GMT_Offset < -12 || GMT_Offset > 14)
   da7ca:	d411      	bmi.n	da7f0 <_ZN9TimeClass4zoneEf+0x34>
   da7cc:	eef2 7a0c 	vmov.f32	s15, #44	; 0x41600000  14.0
   da7d0:	eeb4 0ae7 	vcmpe.f32	s0, s15
   da7d4:	eef1 fa10 	vmrs	APSR_nzcv, fpscr
   da7d8:	dc0a      	bgt.n	da7f0 <_ZN9TimeClass4zoneEf+0x34>
	{
		return;
	}
	time_zone_cache = GMT_Offset * 3600;
   da7da:	eddf 7a06 	vldr	s15, [pc, #24]	; da7f4 <_ZN9TimeClass4zoneEf+0x38>
   da7de:	ee60 7a27 	vmul.f32	s15, s0, s15
   da7e2:	ee17 0a90 	vmov	r0, s15
   da7e6:	f001 f985 	bl	dbaf4 <__aeabi_f2lz>
   da7ea:	4b03      	ldr	r3, [pc, #12]	; (da7f8 <_ZN9TimeClass4zoneEf+0x3c>)
   da7ec:	e9c3 0100 	strd	r0, r1, [r3]
}
   da7f0:	bd08      	pop	{r3, pc}
   da7f2:	bf00      	nop
   da7f4:	45610000 	.word	0x45610000
   da7f8:	2003e668 	.word	0x2003e668

000da7fc <_ZN9TimeClass12setDSTOffsetEf>:
    return dst_cache / 3600.0;
}

void TimeClass::setDSTOffset(float offset)
{
    if (offset < 0 || offset > 2)
   da7fc:	eeb5 0ac0 	vcmpe.f32	s0, #0.0
   da800:	eef1 fa10 	vmrs	APSR_nzcv, fpscr
{
   da804:	b508      	push	{r3, lr}
    if (offset < 0 || offset > 2)
   da806:	d411      	bmi.n	da82c <_ZN9TimeClass12setDSTOffsetEf+0x30>
   da808:	eef0 7a00 	vmov.f32	s15, #0	; 0x40000000  2.0
   da80c:	eeb4 0ae7 	vcmpe.f32	s0, s15
   da810:	eef1 fa10 	vmrs	APSR_nzcv, fpscr
   da814:	dc0a      	bgt.n	da82c <_ZN9TimeClass12setDSTOffsetEf+0x30>
    {
        return;
    }
    dst_cache = offset * 3600;
   da816:	eddf 7a06 	vldr	s15, [pc, #24]	; da830 <_ZN9TimeClass12setDSTOffsetEf+0x34>
   da81a:	ee60 7a27 	vmul.f32	s15, s0, s15
   da81e:	ee17 0a90 	vmov	r0, s15
   da822:	f001 f967 	bl	dbaf4 <__aeabi_f2lz>
   da826:	4b03      	ldr	r3, [pc, #12]	; (da834 <_ZN9TimeClass12setDSTOffsetEf+0x38>)
   da828:	e9c3 0100 	strd	r0, r1, [r3]
}
   da82c:	bd08      	pop	{r3, pc}
   da82e:	bf00      	nop
   da830:	45610000 	.word	0x45610000
   da834:	2003e1e0 	.word	0x2003e1e0

000da838 <_ZN9TimeClass8beginDSTEv>:

void TimeClass::beginDST()
{
    dst_current_cache = dst_cache;
   da838:	4b03      	ldr	r3, [pc, #12]	; (da848 <_ZN9TimeClass8beginDSTEv+0x10>)
   da83a:	e9d3 0100 	ldrd	r0, r1, [r3]
   da83e:	4b03      	ldr	r3, [pc, #12]	; (da84c <_ZN9TimeClass8beginDSTEv+0x14>)
   da840:	e9c3 0100 	strd	r0, r1, [r3]
}
   da844:	4770      	bx	lr
   da846:	bf00      	nop
   da848:	2003e1e0 	.word	0x2003e1e0
   da84c:	2003e660 	.word	0x2003e660

000da850 <_ZN9TimeClass6endDSTEv>:

void TimeClass::endDST()
{
    dst_current_cache = 0;
   da850:	4b02      	ldr	r3, [pc, #8]	; (da85c <_ZN9TimeClass6endDSTEv+0xc>)
   da852:	2000      	movs	r0, #0
   da854:	2100      	movs	r1, #0
   da856:	e9c3 0100 	strd	r0, r1, [r3]
}
   da85a:	4770      	bx	lr
   da85c:	2003e660 	.word	0x2003e660

000da860 <_ZN9TimeClass7setTimeEx>:
    return !(dst_current_cache == 0);
}

/* set the given time as unix/rtc time */
void TimeClass::setTime(time_t t)
{
   da860:	b51f      	push	{r0, r1, r2, r3, r4, lr}
   da862:	4602      	mov	r2, r0
   da864:	460b      	mov	r3, r1
    struct timeval tv = {
        .tv_sec = t,
        .tv_usec = 0
    };
    if (!hal_rtc_set_time(&tv, nullptr)) {
   da866:	4668      	mov	r0, sp
    struct timeval tv = {
   da868:	2100      	movs	r1, #0
    };
   da86a:	e9cd 2300 	strd	r2, r3, [sp]
    struct timeval tv = {
   da86e:	e9cd 1102 	strd	r1, r1, [sp, #8]
    if (!hal_rtc_set_time(&tv, nullptr)) {
   da872:	f7fd f80f 	bl	d7894 <hal_rtc_set_time>
   da876:	4602      	mov	r2, r0
   da878:	b910      	cbnz	r0, da880 <_ZN9TimeClass7setTimeEx+0x20>
        system_notify_time_changed((uint32_t)time_changed_manually, nullptr, nullptr);
   da87a:	4601      	mov	r1, r0
   da87c:	f7fd f9d4 	bl	d7c28 <system_notify_time_changed>
    }
}
   da880:	b005      	add	sp, #20
   da882:	f85d fb04 	ldr.w	pc, [sp], #4
	...

000da888 <_ZN9TimeClass7timeStrEx>:

/* return string representation for the given time */
String TimeClass::timeStr(time_t t)
{
   da888:	b530      	push	{r4, r5, lr}
   da88a:	4604      	mov	r4, r0
    t += time_zone_cache;
   da88c:	4818      	ldr	r0, [pc, #96]	; (da8f0 <_ZN9TimeClass7timeStrEx+0x68>)
   da88e:	e9d0 1000 	ldrd	r1, r0, [r0]
   da892:	1852      	adds	r2, r2, r1
   da894:	eb40 0303 	adc.w	r3, r0, r3
    t += dst_current_cache;
   da898:	4816      	ldr	r0, [pc, #88]	; (da8f4 <_ZN9TimeClass7timeStrEx+0x6c>)
   da89a:	e9d0 1000 	ldrd	r1, r0, [r0]
   da89e:	1852      	adds	r2, r2, r1
{
   da8a0:	b093      	sub	sp, #76	; 0x4c
    t += dst_current_cache;
   da8a2:	eb40 0303 	adc.w	r3, r0, r3
   da8a6:	e9cd 2300 	strd	r2, r3, [sp]
    struct tm calendar_time = {};
   da8aa:	2224      	movs	r2, #36	; 0x24
   da8ac:	eb0d 0002 	add.w	r0, sp, r2
   da8b0:	2100      	movs	r1, #0
   da8b2:	f001 f9e3 	bl	dbc7c <memset>
    localtime_r(&t, &calendar_time);
    char ascstr[26] = {};
   da8b6:	2500      	movs	r5, #0
    localtime_r(&t, &calendar_time);
   da8b8:	a909      	add	r1, sp, #36	; 0x24
   da8ba:	4668      	mov	r0, sp
   da8bc:	f7fd fb0e 	bl	d7edc <localtime_r>
    char ascstr[26] = {};
   da8c0:	2216      	movs	r2, #22
   da8c2:	4629      	mov	r1, r5
   da8c4:	a803      	add	r0, sp, #12
   da8c6:	9502      	str	r5, [sp, #8]
   da8c8:	f001 f9d8 	bl	dbc7c <memset>
    asctime_r(&calendar_time, ascstr);
   da8cc:	a902      	add	r1, sp, #8
   da8ce:	a809      	add	r0, sp, #36	; 0x24
   da8d0:	f001 f962 	bl	dbb98 <asctime_r>
    int len = strlen(ascstr);
   da8d4:	a802      	add	r0, sp, #8
   da8d6:	f001 fa44 	bl	dbd62 <strlen>
    ascstr[len-1] = 0; // remove final newline
   da8da:	ab12      	add	r3, sp, #72	; 0x48
   da8dc:	4418      	add	r0, r3
    return String(ascstr);
   da8de:	a902      	add	r1, sp, #8
    ascstr[len-1] = 0; // remove final newline
   da8e0:	f800 5c41 	strb.w	r5, [r0, #-65]
    return String(ascstr);
   da8e4:	4620      	mov	r0, r4
   da8e6:	f7ff fd8c 	bl	da402 <_ZN6StringC1EPKc>
}
   da8ea:	4620      	mov	r0, r4
   da8ec:	b013      	add	sp, #76	; 0x4c
   da8ee:	bd30      	pop	{r4, r5, pc}
   da8f0:	2003e668 	.word	0x2003e668
   da8f4:	2003e660 	.word	0x2003e660

000da8f8 <_ZN9TimeClass14timeFormatImplEP2tmPKci>:
    localtime_r(&t, &calendar_time);
    return timeFormatImpl(&calendar_time, format_spec, time_zone_cache + dst_current_cache);
}

String TimeClass::timeFormatImpl(tm* calendar_time, const char* format, int time_zone)
{
   da8f8:	e92d 4ff0 	stmdb	sp!, {r4, r5, r6, r7, r8, r9, sl, fp, lr}
   da8fc:	b0a5      	sub	sp, #148	; 0x94
   da8fe:	4607      	mov	r7, r0
   da900:	4688      	mov	r8, r1
    char format_str[64];
    // only copy up to n-1 to dest if no null terminator found
    strncpy(format_str, format, sizeof(format_str) - 1); // Flawfinder: ignore (ch42318)
   da902:	a814      	add	r0, sp, #80	; 0x50
{
   da904:	4611      	mov	r1, r2
    strncpy(format_str, format, sizeof(format_str) - 1); // Flawfinder: ignore (ch42318)
   da906:	223f      	movs	r2, #63	; 0x3f
{
   da908:	461d      	mov	r5, r3
    strncpy(format_str, format, sizeof(format_str) - 1); // Flawfinder: ignore (ch42318)
   da90a:	f001 fa44 	bl	dbd96 <strncpy>
    format_str[sizeof(format_str) - 1] = '\0'; // ensure null termination
   da90e:	2300      	movs	r3, #0
    size_t len = strlen(format_str); // Flawfinder: ignore (ch42318)
   da910:	a814      	add	r0, sp, #80	; 0x50
    format_str[sizeof(format_str) - 1] = '\0'; // ensure null termination
   da912:	f88d 308f 	strb.w	r3, [sp, #143]	; 0x8f
    size_t len = strlen(format_str); // Flawfinder: ignore (ch42318)
   da916:	f001 fa24 	bl	dbd62 <strlen>
   da91a:	4604      	mov	r4, r0

    char time_zone_str[16];
    // while we are not using stdlib for managing the timezone, we have to do this manually
    if (!time_zone) {
   da91c:	bb5d      	cbnz	r5, da976 <_ZN9TimeClass14timeFormatImplEP2tmPKci+0x7e>
        strcpy(time_zone_str, "Z");
   da91e:	492a      	ldr	r1, [pc, #168]	; (da9c8 <_ZN9TimeClass14timeFormatImplEP2tmPKci+0xd0>)
   da920:	a803      	add	r0, sp, #12
   da922:	f001 f9f8 	bl	dbd16 <strcpy>
   da926:	ae14      	add	r6, sp, #80	; 0x50
{
   da928:	2500      	movs	r5, #0
    else {
        snprintf(time_zone_str, sizeof(time_zone_str), "%+03d:%02u", time_zone/3600, abs(time_zone/60)%60);
    }

    // replace %z with the timezone
    for (size_t i=0; i<len-1; i++)
   da92a:	f104 3bff 	add.w	fp, r4, #4294967295	; 0xffffffff
   da92e:	45ab      	cmp	fp, r5
   da930:	d936      	bls.n	da9a0 <_ZN9TimeClass14timeFormatImplEP2tmPKci+0xa8>
    {
        if (format_str[i]=='%' && format_str[i+1]=='z')
   da932:	46b1      	mov	r9, r6
   da934:	f105 0a01 	add.w	sl, r5, #1
   da938:	f819 3b01 	ldrb.w	r3, [r9], #1
   da93c:	2b25      	cmp	r3, #37	; 0x25
   da93e:	d117      	bne.n	da970 <_ZN9TimeClass14timeFormatImplEP2tmPKci+0x78>
   da940:	7873      	ldrb	r3, [r6, #1]
   da942:	2b7a      	cmp	r3, #122	; 0x7a
   da944:	d114      	bne.n	da970 <_ZN9TimeClass14timeFormatImplEP2tmPKci+0x78>
        {
            size_t tzlen = strlen(time_zone_str);
   da946:	a803      	add	r0, sp, #12
   da948:	f001 fa0b 	bl	dbd62 <strlen>
            memcpy(format_str+i+tzlen, format_str+i+2, len-i-1);    // +1 include the 0 char
   da94c:	ab14      	add	r3, sp, #80	; 0x50
            size_t tzlen = strlen(time_zone_str);
   da94e:	4604      	mov	r4, r0
            memcpy(format_str+i+tzlen, format_str+i+2, len-i-1);    // +1 include the 0 char
   da950:	1828      	adds	r0, r5, r0
   da952:	4418      	add	r0, r3
   da954:	ebab 0205 	sub.w	r2, fp, r5
   da958:	1cb1      	adds	r1, r6, #2
   da95a:	f001 f967 	bl	dbc2c <memcpy>
            memcpy(format_str+i, time_zone_str, tzlen);
   da95e:	4622      	mov	r2, r4
   da960:	a903      	add	r1, sp, #12
   da962:	4630      	mov	r0, r6
   da964:	f001 f962 	bl	dbc2c <memcpy>
            len = strlen(format_str);
   da968:	a814      	add	r0, sp, #80	; 0x50
   da96a:	f001 f9fa 	bl	dbd62 <strlen>
   da96e:	4604      	mov	r4, r0
    for (size_t i=0; i<len-1; i++)
   da970:	464e      	mov	r6, r9
   da972:	4655      	mov	r5, sl
   da974:	e7d9      	b.n	da92a <_ZN9TimeClass14timeFormatImplEP2tmPKci+0x32>
        snprintf(time_zone_str, sizeof(time_zone_str), "%+03d:%02u", time_zone/3600, abs(time_zone/60)%60);
   da976:	213c      	movs	r1, #60	; 0x3c
   da978:	fb95 f3f1 	sdiv	r3, r5, r1
   da97c:	2b00      	cmp	r3, #0
   da97e:	bfb8      	it	lt
   da980:	425b      	neglt	r3, r3
   da982:	fbb3 f2f1 	udiv	r2, r3, r1
   da986:	fb01 3312 	mls	r3, r1, r2, r3
   da98a:	9300      	str	r3, [sp, #0]
   da98c:	4a0f      	ldr	r2, [pc, #60]	; (da9cc <_ZN9TimeClass14timeFormatImplEP2tmPKci+0xd4>)
   da98e:	f44f 6361 	mov.w	r3, #3600	; 0xe10
   da992:	2110      	movs	r1, #16
   da994:	a803      	add	r0, sp, #12
   da996:	fb95 f3f3 	sdiv	r3, r5, r3
   da99a:	f7fd fa6f 	bl	d7e7c <snprintf>
   da99e:	e7c2      	b.n	da926 <_ZN9TimeClass14timeFormatImplEP2tmPKci+0x2e>
        }
    }

    char buf[50] = {};
   da9a0:	2100      	movs	r1, #0
   da9a2:	222e      	movs	r2, #46	; 0x2e
   da9a4:	a808      	add	r0, sp, #32
   da9a6:	9107      	str	r1, [sp, #28]
   da9a8:	f001 f968 	bl	dbc7c <memset>
    strftime(buf, sizeof(buf), format_str, calendar_time);
   da9ac:	4643      	mov	r3, r8
   da9ae:	aa14      	add	r2, sp, #80	; 0x50
   da9b0:	2132      	movs	r1, #50	; 0x32
   da9b2:	a807      	add	r0, sp, #28
   da9b4:	f7fd fa8a 	bl	d7ecc <strftime>
    return String(buf);
   da9b8:	a907      	add	r1, sp, #28
   da9ba:	4638      	mov	r0, r7
   da9bc:	f7ff fd21 	bl	da402 <_ZN6StringC1EPKc>
}
   da9c0:	4638      	mov	r0, r7
   da9c2:	b025      	add	sp, #148	; 0x94
   da9c4:	e8bd 8ff0 	ldmia.w	sp!, {r4, r5, r6, r7, r8, r9, sl, fp, pc}
   da9c8:	000de94a 	.word	0x000de94a
   da9cc:	000de94c 	.word	0x000de94c

000da9d0 <_ZN9TimeClass6formatExPKc>:
{
   da9d0:	b5f0      	push	{r4, r5, r6, r7, lr}
   da9d2:	b08d      	sub	sp, #52	; 0x34
   da9d4:	e9cd 2300 	strd	r2, r3, [sp]
   da9d8:	9d12      	ldr	r5, [sp, #72]	; 0x48
   da9da:	4604      	mov	r4, r0
    if (format_spec == nullptr)
   da9dc:	b915      	cbnz	r5, da9e4 <_ZN9TimeClass6formatExPKc+0x14>
        format_spec = this->format_spec;
   da9de:	4b19      	ldr	r3, [pc, #100]	; (daa44 <_ZN9TimeClass6formatExPKc+0x74>)
   da9e0:	681d      	ldr	r5, [r3, #0]
    if (!format_spec || !strcmp(format_spec, TIME_FORMAT_DEFAULT)) {
   da9e2:	b12d      	cbz	r5, da9f0 <_ZN9TimeClass6formatExPKc+0x20>
   da9e4:	4b18      	ldr	r3, [pc, #96]	; (daa48 <_ZN9TimeClass6formatExPKc+0x78>)
   da9e6:	4628      	mov	r0, r5
   da9e8:	6819      	ldr	r1, [r3, #0]
   da9ea:	f001 f98a 	bl	dbd02 <strcmp>
   da9ee:	b938      	cbnz	r0, daa00 <_ZN9TimeClass6formatExPKc+0x30>
        return timeStr(t);
   da9f0:	e9dd 2300 	ldrd	r2, r3, [sp]
   da9f4:	4620      	mov	r0, r4
   da9f6:	f7ff ff47 	bl	da888 <_ZN9TimeClass7timeStrEx>
}
   da9fa:	4620      	mov	r0, r4
   da9fc:	b00d      	add	sp, #52	; 0x34
   da9fe:	bdf0      	pop	{r4, r5, r6, r7, pc}
    t += time_zone_cache;
   daa00:	4e12      	ldr	r6, [pc, #72]	; (daa4c <_ZN9TimeClass6formatExPKc+0x7c>)
   daa02:	9900      	ldr	r1, [sp, #0]
    t += dst_current_cache;
   daa04:	4f12      	ldr	r7, [pc, #72]	; (daa50 <_ZN9TimeClass6formatExPKc+0x80>)
    t += time_zone_cache;
   daa06:	e9d6 3200 	ldrd	r3, r2, [r6]
   daa0a:	185b      	adds	r3, r3, r1
   daa0c:	9901      	ldr	r1, [sp, #4]
   daa0e:	eb41 0202 	adc.w	r2, r1, r2
    t += dst_current_cache;
   daa12:	e9d7 0100 	ldrd	r0, r1, [r7]
   daa16:	181b      	adds	r3, r3, r0
   daa18:	eb41 0202 	adc.w	r2, r1, r2
   daa1c:	e9cd 3200 	strd	r3, r2, [sp]
    struct tm calendar_time = {};
   daa20:	2100      	movs	r1, #0
   daa22:	2224      	movs	r2, #36	; 0x24
   daa24:	a803      	add	r0, sp, #12
   daa26:	f001 f929 	bl	dbc7c <memset>
    localtime_r(&t, &calendar_time);
   daa2a:	a903      	add	r1, sp, #12
   daa2c:	4668      	mov	r0, sp
   daa2e:	f7fd fa55 	bl	d7edc <localtime_r>
    return timeFormatImpl(&calendar_time, format_spec, time_zone_cache + dst_current_cache);
   daa32:	6832      	ldr	r2, [r6, #0]
   daa34:	683b      	ldr	r3, [r7, #0]
   daa36:	a903      	add	r1, sp, #12
   daa38:	4413      	add	r3, r2
   daa3a:	4620      	mov	r0, r4
   daa3c:	462a      	mov	r2, r5
   daa3e:	f7ff ff5b 	bl	da8f8 <_ZN9TimeClass14timeFormatImplEP2tmPKci>
   daa42:	e7da      	b.n	da9fa <_ZN9TimeClass6formatExPKc+0x2a>
   daa44:	2003e638 	.word	0x2003e638
   daa48:	2003e1d8 	.word	0x2003e1d8
   daa4c:	2003e668 	.word	0x2003e668
   daa50:	2003e660 	.word	0x2003e660

000daa54 <_ZN9TimeClass7isValidEv>:

bool TimeClass::isValid()
{
   daa54:	b510      	push	{r4, lr}
    bool rtcstate = hal_rtc_time_is_valid(nullptr);
   daa56:	2000      	movs	r0, #0
   daa58:	f7fc ff04 	bl	d7864 <hal_rtc_time_is_valid>
    if (rtcstate)
   daa5c:	4604      	mov	r4, r0
   daa5e:	b9a0      	cbnz	r0, daa8a <_ZN9TimeClass7isValidEv+0x36>
    }

    static System_Mode_TypeDef mode(void) {
        return system_mode();
   daa60:	f7fd f8a2 	bl	d7ba8 <system_mode>
        return rtcstate;
    if (System.mode() == AUTOMATIC && system_thread_get_state(nullptr) == spark::feature::DISABLED)
   daa64:	2801      	cmp	r0, #1
   daa66:	d110      	bne.n	daa8a <_ZN9TimeClass7isValidEv+0x36>
   daa68:	4620      	mov	r0, r4
   daa6a:	f7fd f8d5 	bl	d7c18 <system_thread_get_state>
   daa6e:	b960      	cbnz	r0, daa8a <_ZN9TimeClass7isValidEv+0x36>
    {
        waitUntil(Particle.syncTimeDone);
   daa70:	f7ff fe72 	bl	da758 <_ZN10CloudClass12syncTimeDoneEv.isra.0>


    static uint32_t freeMemory();

    template<typename Condition, typename While> static bool waitConditionWhile(Condition _condition, While _while) {
        while (_while() && !_condition()) {
   daa74:	b910      	cbnz	r0, daa7c <_ZN9TimeClass7isValidEv+0x28>
            spark_process();
   daa76:	f7fd f921 	bl	d7cbc <spark_process>
        while (_while() && !_condition()) {
   daa7a:	e7f9      	b.n	daa70 <_ZN9TimeClass7isValidEv+0x1c>
   daa7c:	f7ff fe6c 	bl	da758 <_ZN10CloudClass12syncTimeDoneEv.isra.0>
        return hal_rtc_time_is_valid(nullptr);
    }
    return rtcstate;
}
   daa80:	e8bd 4010 	ldmia.w	sp!, {r4, lr}
        return hal_rtc_time_is_valid(nullptr);
   daa84:	2000      	movs	r0, #0
   daa86:	f7fc beed 	b.w	d7864 <hal_rtc_time_is_valid>
}
   daa8a:	4620      	mov	r0, r4
   daa8c:	bd10      	pop	{r4, pc}

000daa8e <_ZN9TimeClass3nowEv>:
{
   daa8e:	b51f      	push	{r0, r1, r2, r3, r4, lr}
    (void)isValid();
   daa90:	f7ff ffe0 	bl	daa54 <_ZN9TimeClass7isValidEv>
    struct timeval tv = {};
   daa94:	2210      	movs	r2, #16
   daa96:	2100      	movs	r1, #0
   daa98:	4668      	mov	r0, sp
   daa9a:	f001 f8ef 	bl	dbc7c <memset>
    hal_rtc_get_time(&tv, nullptr);
   daa9e:	2100      	movs	r1, #0
   daaa0:	4668      	mov	r0, sp
   daaa2:	f7fc feef 	bl	d7884 <hal_rtc_get_time>
}
   daaa6:	9800      	ldr	r0, [sp, #0]
   daaa8:	b005      	add	sp, #20
   daaaa:	f85d fb04 	ldr.w	pc, [sp], #4
	...

000daab0 <_ZN9TimeClass4hourEv>:
{
   daab0:	b508      	push	{r3, lr}
	return hour(now());
   daab2:	f7ff ffec 	bl	daa8e <_ZN9TimeClass3nowEv>
	Refresh_UnixTime_Cache(t);
   daab6:	17c1      	asrs	r1, r0, #31
   daab8:	f7ff fe18 	bl	da6ec <_ZL22Refresh_UnixTime_Cachex>
}
   daabc:	4b01      	ldr	r3, [pc, #4]	; (daac4 <_ZN9TimeClass4hourEv+0x14>)
   daabe:	6898      	ldr	r0, [r3, #8]
   daac0:	bd08      	pop	{r3, pc}
   daac2:	bf00      	nop
   daac4:	2003e63c 	.word	0x2003e63c

000daac8 <_ZN9TimeClass3dayEv>:
{
   daac8:	b508      	push	{r3, lr}
	return day(now());
   daaca:	f7ff ffe0 	bl	daa8e <_ZN9TimeClass3nowEv>
	Refresh_UnixTime_Cache(t);
   daace:	17c1      	asrs	r1, r0, #31
   daad0:	f7ff fe0c 	bl	da6ec <_ZL22Refresh_UnixTime_Cachex>
}
   daad4:	4b01      	ldr	r3, [pc, #4]	; (daadc <_ZN9TimeClass3dayEv+0x14>)
   daad6:	68d8      	ldr	r0, [r3, #12]
   daad8:	bd08      	pop	{r3, pc}
   daada:	bf00      	nop
   daadc:	2003e63c 	.word	0x2003e63c

000daae0 <_ZN9TimeClass7weekdayEv>:
{
   daae0:	b508      	push	{r3, lr}
	return weekday(now());
   daae2:	f7ff ffd4 	bl	daa8e <_ZN9TimeClass3nowEv>
}
   daae6:	e8bd 4008 	ldmia.w	sp!, {r3, lr}
	return weekday(now());
   daaea:	17c1      	asrs	r1, r0, #31
   daaec:	f7ff be52 	b.w	da794 <_ZN9TimeClass7weekdayEx>

000daaf0 <_ZN9TimeClass5monthEv>:
{
   daaf0:	b508      	push	{r3, lr}
	return month(now());
   daaf2:	f7ff ffcc 	bl	daa8e <_ZN9TimeClass3nowEv>
}
   daaf6:	e8bd 4008 	ldmia.w	sp!, {r3, lr}
	return month(now());
   daafa:	17c1      	asrs	r1, r0, #31
   daafc:	f7ff be54 	b.w	da7a8 <_ZN9TimeClass5monthEx>

000dab00 <_ZN9TimeClass5localEv>:
{
   dab00:	b508      	push	{r3, lr}
	return now() + time_zone_cache + dst_current_cache;
   dab02:	f7ff ffc4 	bl	daa8e <_ZN9TimeClass3nowEv>
   dab06:	4b03      	ldr	r3, [pc, #12]	; (dab14 <_ZN9TimeClass5localEv+0x14>)
   dab08:	4a03      	ldr	r2, [pc, #12]	; (dab18 <_ZN9TimeClass5localEv+0x18>)
   dab0a:	681b      	ldr	r3, [r3, #0]
   dab0c:	6812      	ldr	r2, [r2, #0]
   dab0e:	4413      	add	r3, r2
}
   dab10:	4418      	add	r0, r3
   dab12:	bd08      	pop	{r3, pc}
   dab14:	2003e668 	.word	0x2003e668
   dab18:	2003e660 	.word	0x2003e660

000dab1c <_GLOBAL__sub_I_TIME_FORMAT_DEFAULT>:
const char* TimeClass::format_spec = TIME_FORMAT_DEFAULT;
   dab1c:	4b02      	ldr	r3, [pc, #8]	; (dab28 <_GLOBAL__sub_I_TIME_FORMAT_DEFAULT+0xc>)
   dab1e:	681a      	ldr	r2, [r3, #0]
   dab20:	4b02      	ldr	r3, [pc, #8]	; (dab2c <_GLOBAL__sub_I_TIME_FORMAT_DEFAULT+0x10>)
   dab22:	601a      	str	r2, [r3, #0]
{
  return isValid();
}


TimeClass Time;
   dab24:	4770      	bx	lr
   dab26:	bf00      	nop
   dab28:	2003e1d8 	.word	0x2003e1d8
   dab2c:	2003e638 	.word	0x2003e638

000dab30 <_ZN11USARTSerialD1Ev>:
private:
  hal_usart_interface_t _serial;
  bool _blocking;
public:
  USARTSerial(hal_usart_interface_t serial, hal_usart_ring_buffer_t *rx_buffer, hal_usart_ring_buffer_t *tx_buffer);
  virtual ~USARTSerial() {};
   dab30:	4770      	bx	lr

000dab32 <_ZN11USARTSerial14blockOnOverrunEb>:
    hal_usart_half_duplex(_serial, Enable);
}

void USARTSerial::blockOnOverrun(bool block)
{
  _blocking = block;
   dab32:	7441      	strb	r1, [r0, #17]
}
   dab34:	4770      	bx	lr

000dab36 <_ZN11USARTSerial17availableForWriteEv>:


int USARTSerial::availableForWrite(void)
{
   dab36:	b508      	push	{r3, lr}
  return std::max(0, (int)hal_usart_available_data_for_write(_serial));
   dab38:	7c00      	ldrb	r0, [r0, #16]
   dab3a:	f7fc ffb3 	bl	d7aa4 <hal_usart_available_data_for_write>
}
   dab3e:	ea20 70e0 	bic.w	r0, r0, r0, asr #31
   dab42:	bd08      	pop	{r3, pc}

000dab44 <_ZN11USARTSerial9availableEv>:

int USARTSerial::available(void)
{
   dab44:	b508      	push	{r3, lr}
  return std::max(0, (int)hal_usart_available(_serial));
   dab46:	7c00      	ldrb	r0, [r0, #16]
   dab48:	f7fc ff84 	bl	d7a54 <hal_usart_available>
}
   dab4c:	ea20 70e0 	bic.w	r0, r0, r0, asr #31
   dab50:	bd08      	pop	{r3, pc}

000dab52 <_ZN11USARTSerial4peekEv>:

int USARTSerial::peek(void)
{
   dab52:	b508      	push	{r3, lr}
  return std::max(-1, (int)hal_usart_peek(_serial));
   dab54:	7c00      	ldrb	r0, [r0, #16]
   dab56:	f7fc ff8d 	bl	d7a74 <hal_usart_peek>
}
   dab5a:	ea40 70e0 	orr.w	r0, r0, r0, asr #31
   dab5e:	bd08      	pop	{r3, pc}

000dab60 <_ZN11USARTSerial4readEv>:

int USARTSerial::read(void)
{
   dab60:	b508      	push	{r3, lr}
  return std::max(-1, (int)hal_usart_read(_serial));
   dab62:	7c00      	ldrb	r0, [r0, #16]
   dab64:	f7fc ff7e 	bl	d7a64 <hal_usart_read>
}
   dab68:	ea40 70e0 	orr.w	r0, r0, r0, asr #31
   dab6c:	bd08      	pop	{r3, pc}

000dab6e <_ZN11USARTSerial5flushEv>:

void USARTSerial::flush()
{
  hal_usart_flush(_serial);
   dab6e:	7c00      	ldrb	r0, [r0, #16]
   dab70:	f7fc bf88 	b.w	d7a84 <hal_usart_flush>

000dab74 <_ZN11USARTSerial5writeEh>:
}

size_t USARTSerial::write(uint8_t c)
{
   dab74:	b537      	push	{r0, r1, r2, r4, r5, lr}
  // attempt a write if blocking, or for non-blocking if there is room.
  if (_blocking || hal_usart_available_data_for_write(_serial) > 0) {
   dab76:	7c45      	ldrb	r5, [r0, #17]
{
   dab78:	4604      	mov	r4, r0
  if (_blocking || hal_usart_available_data_for_write(_serial) > 0) {
   dab7a:	b12d      	cbz	r5, dab88 <_ZN11USARTSerial5writeEh+0x14>
    // the HAL always blocks.
	  return hal_usart_write(_serial, c);
   dab7c:	7c20      	ldrb	r0, [r4, #16]
  }
  return 0;
}
   dab7e:	b003      	add	sp, #12
   dab80:	e8bd 4030 	ldmia.w	sp!, {r4, r5, lr}
	  return hal_usart_write(_serial, c);
   dab84:	f7fc bf5e 	b.w	d7a44 <hal_usart_write>
  if (_blocking || hal_usart_available_data_for_write(_serial) > 0) {
   dab88:	7c00      	ldrb	r0, [r0, #16]
   dab8a:	9101      	str	r1, [sp, #4]
   dab8c:	f7fc ff8a 	bl	d7aa4 <hal_usart_available_data_for_write>
   dab90:	2800      	cmp	r0, #0
   dab92:	9901      	ldr	r1, [sp, #4]
   dab94:	dcf2      	bgt.n	dab7c <_ZN11USARTSerial5writeEh+0x8>
}
   dab96:	4628      	mov	r0, r5
   dab98:	b003      	add	sp, #12
   dab9a:	bd30      	pop	{r4, r5, pc}

000dab9c <_ZN11USARTSerialD0Ev>:
   dab9c:	b510      	push	{r4, lr}
   dab9e:	2114      	movs	r1, #20
   daba0:	4604      	mov	r4, r0
   daba2:	f000 fa9a 	bl	db0da <_ZdlPvj>
   daba6:	4620      	mov	r0, r4
   daba8:	bd10      	pop	{r4, pc}
	...

000dabac <_ZN11USARTSerialC1E21hal_usart_interface_tP23hal_usart_ring_buffer_tS2_>:
USARTSerial::USARTSerial(hal_usart_interface_t serial, hal_usart_ring_buffer_t *rx_buffer, hal_usart_ring_buffer_t *tx_buffer)
   dabac:	b510      	push	{r4, lr}
   dabae:	f04f 0c00 	mov.w	ip, #0
   dabb2:	4604      	mov	r4, r0
   dabb4:	4608      	mov	r0, r1
   dabb6:	4611      	mov	r1, r2
   dabb8:	f44f 727a 	mov.w	r2, #1000	; 0x3e8
   dabbc:	e9c4 c201 	strd	ip, r2, [r4, #4]
   dabc0:	4a04      	ldr	r2, [pc, #16]	; (dabd4 <_ZN11USARTSerialC1E21hal_usart_interface_tP23hal_usart_ring_buffer_tS2_+0x28>)
   dabc2:	6022      	str	r2, [r4, #0]
  _blocking = true;
   dabc4:	2201      	movs	r2, #1
  _serial = serial;
   dabc6:	7420      	strb	r0, [r4, #16]
  _blocking = true;
   dabc8:	7462      	strb	r2, [r4, #17]
  hal_usart_init(serial, rx_buffer, tx_buffer);
   dabca:	461a      	mov	r2, r3
   dabcc:	f7fc ff2a 	bl	d7a24 <hal_usart_init>
}
   dabd0:	4620      	mov	r0, r4
   dabd2:	bd10      	pop	{r4, pc}
   dabd4:	000de97c 	.word	0x000de97c

000dabd8 <_ZN11USARTSerial5beginEmm>:
  hal_usart_begin_config(_serial, baud, config, nullptr);
   dabd8:	7c00      	ldrb	r0, [r0, #16]
   dabda:	2300      	movs	r3, #0
   dabdc:	f7fc bf6a 	b.w	d7ab4 <hal_usart_begin_config>

000dabe0 <_ZN11USARTSerial5beginEm>:
  begin(baud, SERIAL_8N1);
   dabe0:	2200      	movs	r2, #0
   dabe2:	f7ff bff9 	b.w	dabd8 <_ZN11USARTSerial5beginEmm>

000dabe6 <_ZN11USARTSerial3endEv>:
  hal_usart_end(_serial);
   dabe6:	7c00      	ldrb	r0, [r0, #16]
   dabe8:	f7fc bf24 	b.w	d7a34 <hal_usart_end>

000dabec <_Z22__fetch_global_Serial1v>:
static hal_usart_ring_buffer_t* serial1_rx_buffer = nullptr;
static hal_usart_ring_buffer_t* serial1_tx_buffer = nullptr;
#endif

USARTSerial& __fetch_global_Serial1()
{
   dabec:	b513      	push	{r0, r1, r4, lr}
#if ((MODULE_FUNCTION == MOD_FUNC_USER_PART) || (MODULE_FUNCTION == MOD_FUNC_MONO_FIRMWARE))
	static USARTSerial serial1(HAL_USART_SERIAL1, &serial1_rx_buffer, &serial1_tx_buffer);
   dabee:	4c0e      	ldr	r4, [pc, #56]	; (dac28 <_Z22__fetch_global_Serial1v+0x3c>)
   dabf0:	7821      	ldrb	r1, [r4, #0]
   dabf2:	f3bf 8f5b 	dmb	ish
   dabf6:	f011 0101 	ands.w	r1, r1, #1
   dabfa:	d112      	bne.n	dac22 <_Z22__fetch_global_Serial1v+0x36>
   dabfc:	4620      	mov	r0, r4
   dabfe:	9101      	str	r1, [sp, #4]
   dac00:	f7f9 fa5a 	bl	d40b8 <__cxa_guard_acquire>
   dac04:	9901      	ldr	r1, [sp, #4]
   dac06:	b160      	cbz	r0, dac22 <_Z22__fetch_global_Serial1v+0x36>
   dac08:	4a08      	ldr	r2, [pc, #32]	; (dac2c <_Z22__fetch_global_Serial1v+0x40>)
   dac0a:	4b09      	ldr	r3, [pc, #36]	; (dac30 <_Z22__fetch_global_Serial1v+0x44>)
   dac0c:	4809      	ldr	r0, [pc, #36]	; (dac34 <_Z22__fetch_global_Serial1v+0x48>)
   dac0e:	f7ff ffcd 	bl	dabac <_ZN11USARTSerialC1E21hal_usart_interface_tP23hal_usart_ring_buffer_tS2_>
   dac12:	4620      	mov	r0, r4
   dac14:	f7f9 fa55 	bl	d40c2 <__cxa_guard_release>
   dac18:	4a07      	ldr	r2, [pc, #28]	; (dac38 <_Z22__fetch_global_Serial1v+0x4c>)
   dac1a:	4908      	ldr	r1, [pc, #32]	; (dac3c <_Z22__fetch_global_Serial1v+0x50>)
   dac1c:	4805      	ldr	r0, [pc, #20]	; (dac34 <_Z22__fetch_global_Serial1v+0x48>)
   dac1e:	f000 fa57 	bl	db0d0 <__aeabi_atexit>
    serial1_tx_buffer = new hal_usart_ring_buffer_t();
  }
  static USARTSerial serial1(HAL_USART_SERIAL1, serial1_rx_buffer, serial1_tx_buffer);
#endif
	return serial1;
}
   dac22:	4804      	ldr	r0, [pc, #16]	; (dac34 <_Z22__fetch_global_Serial1v+0x48>)
   dac24:	b002      	add	sp, #8
   dac26:	bd10      	pop	{r4, pc}
   dac28:	2003e678 	.word	0x2003e678
   dac2c:	2003e67c 	.word	0x2003e67c
   dac30:	2003e700 	.word	0x2003e700
   dac34:	2003e784 	.word	0x2003e784
   dac38:	2003e3c0 	.word	0x2003e3c0
   dac3c:	000dab31 	.word	0x000dab31

000dac40 <_ZN9USBSerial14blockOnOverrunEb>:
  HAL_USB_USART_Flush_Data(_serial);
}

void USBSerial::blockOnOverrun(bool block)
{
  _blocking = block;
   dac40:	7441      	strb	r1, [r0, #17]
}
   dac42:	4770      	bx	lr

000dac44 <_ZN9USBSerialD1Ev>:
#include "usb_hal.h"
#include "system_task.h"
#include "spark_wiring_startup.h"
#include "concurrent_hal.h"

class USBSerial : public Stream
   dac44:	4770      	bx	lr

000dac46 <_ZN9USBSerial4readEv>:
{
   dac46:	b508      	push	{r3, lr}
	return std::max(-1, (int)HAL_USB_USART_Receive_Data(_serial, false));
   dac48:	2100      	movs	r1, #0
   dac4a:	7c00      	ldrb	r0, [r0, #16]
   dac4c:	f7fc ff62 	bl	d7b14 <HAL_USB_USART_Receive_Data>
}
   dac50:	ea40 70e0 	orr.w	r0, r0, r0, asr #31
   dac54:	bd08      	pop	{r3, pc}

000dac56 <_ZN9USBSerial4peekEv>:

int USBSerial::peek()
{
   dac56:	b508      	push	{r3, lr}
	return std::max(-1, (int)HAL_USB_USART_Receive_Data(_serial, true));
   dac58:	2101      	movs	r1, #1
   dac5a:	7c00      	ldrb	r0, [r0, #16]
   dac5c:	f7fc ff5a 	bl	d7b14 <HAL_USB_USART_Receive_Data>
}
   dac60:	ea40 70e0 	orr.w	r0, r0, r0, asr #31
   dac64:	bd08      	pop	{r3, pc}

000dac66 <_ZN9USBSerial17availableForWriteEv>:
{
   dac66:	b508      	push	{r3, lr}
  return std::max(0, (int)HAL_USB_USART_Available_Data_For_Write(_serial));
   dac68:	7c00      	ldrb	r0, [r0, #16]
   dac6a:	f7fc ff4b 	bl	d7b04 <HAL_USB_USART_Available_Data_For_Write>
}
   dac6e:	ea20 70e0 	bic.w	r0, r0, r0, asr #31
   dac72:	bd08      	pop	{r3, pc}

000dac74 <_ZN9USBSerial9availableEv>:
{
   dac74:	b508      	push	{r3, lr}
	return std::max(0, (int)HAL_USB_USART_Available_Data(_serial));
   dac76:	7c00      	ldrb	r0, [r0, #16]
   dac78:	f7fc ff3c 	bl	d7af4 <HAL_USB_USART_Available_Data>
}
   dac7c:	ea20 70e0 	bic.w	r0, r0, r0, asr #31
   dac80:	bd08      	pop	{r3, pc}

000dac82 <_ZN9USBSerial5writeEh>:
{
   dac82:	b513      	push	{r0, r1, r4, lr}
   dac84:	4604      	mov	r4, r0
  if (HAL_USB_USART_Available_Data_For_Write(_serial) > 0 || _blocking) {
   dac86:	7c00      	ldrb	r0, [r0, #16]
{
   dac88:	9101      	str	r1, [sp, #4]
  if (HAL_USB_USART_Available_Data_For_Write(_serial) > 0 || _blocking) {
   dac8a:	f7fc ff3b 	bl	d7b04 <HAL_USB_USART_Available_Data_For_Write>
   dac8e:	2800      	cmp	r0, #0
   dac90:	9901      	ldr	r1, [sp, #4]
   dac92:	dc01      	bgt.n	dac98 <_ZN9USBSerial5writeEh+0x16>
   dac94:	7c60      	ldrb	r0, [r4, #17]
   dac96:	b120      	cbz	r0, daca2 <_ZN9USBSerial5writeEh+0x20>
    return std::max(0, (int)HAL_USB_USART_Send_Data(_serial, byte));
   dac98:	7c20      	ldrb	r0, [r4, #16]
   dac9a:	f7fc ff43 	bl	d7b24 <HAL_USB_USART_Send_Data>
   dac9e:	ea20 70e0 	bic.w	r0, r0, r0, asr #31
}
   daca2:	b002      	add	sp, #8
   daca4:	bd10      	pop	{r4, pc}

000daca6 <_ZN9USBSerial5flushEv>:
  HAL_USB_USART_Flush_Data(_serial);
   daca6:	7c00      	ldrb	r0, [r0, #16]
   daca8:	f7fc bf44 	b.w	d7b34 <HAL_USB_USART_Flush_Data>

000dacac <_ZN9USBSerialD0Ev>:
   dacac:	b510      	push	{r4, lr}
   dacae:	2114      	movs	r1, #20
   dacb0:	4604      	mov	r4, r0
   dacb2:	f000 fa12 	bl	db0da <_ZdlPvj>
   dacb6:	4620      	mov	r0, r4
   dacb8:	bd10      	pop	{r4, pc}
	...

000dacbc <_ZN9USBSerialC1E20HAL_USB_USART_SerialRK20HAL_USB_USART_Config>:
USBSerial::USBSerial(HAL_USB_USART_Serial serial, const HAL_USB_USART_Config& conf)
   dacbc:	b510      	push	{r4, lr}
   dacbe:	f44f 737a 	mov.w	r3, #1000	; 0x3e8
   dacc2:	4604      	mov	r4, r0
   dacc4:	4608      	mov	r0, r1
   dacc6:	2100      	movs	r1, #0
   dacc8:	e9c4 1301 	strd	r1, r3, [r4, #4]
   daccc:	4b04      	ldr	r3, [pc, #16]	; (dace0 <_ZN9USBSerialC1E20HAL_USB_USART_SerialRK20HAL_USB_USART_Config+0x24>)
   dacce:	6023      	str	r3, [r4, #0]
  _blocking = true;
   dacd0:	2301      	movs	r3, #1
  _serial = serial;
   dacd2:	7420      	strb	r0, [r4, #16]
  _blocking = true;
   dacd4:	7463      	strb	r3, [r4, #17]
  HAL_USB_USART_Init(_serial, &conf);
   dacd6:	4611      	mov	r1, r2
   dacd8:	f7fc fef4 	bl	d7ac4 <HAL_USB_USART_Init>
}
   dacdc:	4620      	mov	r0, r4
   dacde:	bd10      	pop	{r4, pc}
   dace0:	000de9ac 	.word	0x000de9ac

000dace4 <_ZN9USBSerial5beginEl>:
    HAL_USB_USART_Begin(_serial, speed, NULL);
   dace4:	7c00      	ldrb	r0, [r0, #16]
   dace6:	2200      	movs	r2, #0
   dace8:	f7fc bef4 	b.w	d7ad4 <HAL_USB_USART_Begin>

000dacec <_ZN9USBSerial3endEv>:
    HAL_USB_USART_End(_serial);
   dacec:	7c00      	ldrb	r0, [r0, #16]
   dacee:	f7fc bef9 	b.w	d7ae4 <HAL_USB_USART_End>

000dacf2 <_Z19acquireSerialBufferv>:

// Preinstantiate Objects //////////////////////////////////////////////////////
#ifdef SPARK_USB_SERIAL

HAL_USB_USART_Config __attribute__((weak)) acquireSerialBuffer()
{
   dacf2:	b510      	push	{r4, lr}
  HAL_USB_USART_Config conf = {0};
   dacf4:	2214      	movs	r2, #20
{
   dacf6:	4604      	mov	r4, r0
  HAL_USB_USART_Config conf = {0};
   dacf8:	2100      	movs	r1, #0
   dacfa:	f000 ffbf 	bl	dbc7c <memset>
  conf.rx_buffer_size = USB_RX_BUFFER_SIZE;
  conf.tx_buffer_size = USB_TX_BUFFER_SIZE;
#endif

  return conf;
}
   dacfe:	4620      	mov	r0, r4
   dad00:	bd10      	pop	{r4, pc}
	...

000dad04 <_Z16_fetch_usbserialv>:

USBSerial& _fetch_usbserial()
{
   dad04:	b510      	push	{r4, lr}
  HAL_USB_USART_Config conf = acquireSerialBuffer();
	static USBSerial _usbserial(HAL_USB_USART_SERIAL, conf);
   dad06:	4c10      	ldr	r4, [pc, #64]	; (dad48 <_Z16_fetch_usbserialv+0x44>)
{
   dad08:	b088      	sub	sp, #32
  HAL_USB_USART_Config conf = acquireSerialBuffer();
   dad0a:	a803      	add	r0, sp, #12
   dad0c:	f7ff fff1 	bl	dacf2 <_Z19acquireSerialBufferv>
	static USBSerial _usbserial(HAL_USB_USART_SERIAL, conf);
   dad10:	7821      	ldrb	r1, [r4, #0]
   dad12:	f3bf 8f5b 	dmb	ish
   dad16:	f011 0101 	ands.w	r1, r1, #1
   dad1a:	d111      	bne.n	dad40 <_Z16_fetch_usbserialv+0x3c>
   dad1c:	4620      	mov	r0, r4
   dad1e:	9101      	str	r1, [sp, #4]
   dad20:	f7f9 f9ca 	bl	d40b8 <__cxa_guard_acquire>
   dad24:	9901      	ldr	r1, [sp, #4]
   dad26:	b158      	cbz	r0, dad40 <_Z16_fetch_usbserialv+0x3c>
   dad28:	aa03      	add	r2, sp, #12
   dad2a:	4808      	ldr	r0, [pc, #32]	; (dad4c <_Z16_fetch_usbserialv+0x48>)
   dad2c:	f7ff ffc6 	bl	dacbc <_ZN9USBSerialC1E20HAL_USB_USART_SerialRK20HAL_USB_USART_Config>
   dad30:	4620      	mov	r0, r4
   dad32:	f7f9 f9c6 	bl	d40c2 <__cxa_guard_release>
   dad36:	4a06      	ldr	r2, [pc, #24]	; (dad50 <_Z16_fetch_usbserialv+0x4c>)
   dad38:	4906      	ldr	r1, [pc, #24]	; (dad54 <_Z16_fetch_usbserialv+0x50>)
   dad3a:	4804      	ldr	r0, [pc, #16]	; (dad4c <_Z16_fetch_usbserialv+0x48>)
   dad3c:	f000 f9c8 	bl	db0d0 <__aeabi_atexit>
	return _usbserial;
}
   dad40:	4802      	ldr	r0, [pc, #8]	; (dad4c <_Z16_fetch_usbserialv+0x48>)
   dad42:	b008      	add	sp, #32
   dad44:	bd10      	pop	{r4, pc}
   dad46:	bf00      	nop
   dad48:	2003e798 	.word	0x2003e798
   dad4c:	2003e79c 	.word	0x2003e79c
   dad50:	2003e3c0 	.word	0x2003e3c0
   dad54:	000dac45 	.word	0x000dac45

000dad58 <_ZZ21module_user_init_hookENUlP6_reentjmPvE_4_FUNES0_jmS1_>:

void module_user_init_hook()
{
#if HAL_PLATFORM_NEWLIB
    newlib_impure_ptr_callback([](struct _reent* r, size_t size, uint32_t version, void* ctx) -> void {
        _impure_ptr = r;
   dad58:	4b01      	ldr	r3, [pc, #4]	; (dad60 <_ZZ21module_user_init_hookENUlP6_reentjmPvE_4_FUNES0_jmS1_+0x8>)
   dad5a:	6018      	str	r0, [r3, #0]
    }, nullptr);
   dad5c:	4770      	bx	lr
   dad5e:	bf00      	nop
   dad60:	2003e1e8 	.word	0x2003e1e8

000dad64 <serialEventRun>:
{
   dad64:	b508      	push	{r3, lr}
    if (serialEvent && Serial.available()>0)
   dad66:	4b0b      	ldr	r3, [pc, #44]	; (dad94 <serialEventRun+0x30>)
   dad68:	b143      	cbz	r3, dad7c <serialEventRun+0x18>
   dad6a:	f7ff ffcb 	bl	dad04 <_Z16_fetch_usbserialv>
   dad6e:	6803      	ldr	r3, [r0, #0]
   dad70:	691b      	ldr	r3, [r3, #16]
   dad72:	4798      	blx	r3
   dad74:	2800      	cmp	r0, #0
   dad76:	dd01      	ble.n	dad7c <serialEventRun+0x18>
        serialEvent();
   dad78:	f3af 8000 	nop.w
    if (serialEvent1 && Serial1.available()>0)
   dad7c:	4b06      	ldr	r3, [pc, #24]	; (dad98 <serialEventRun+0x34>)
   dad7e:	b143      	cbz	r3, dad92 <serialEventRun+0x2e>
   dad80:	f7ff ff34 	bl	dabec <_Z22__fetch_global_Serial1v>
   dad84:	6803      	ldr	r3, [r0, #0]
   dad86:	691b      	ldr	r3, [r3, #16]
   dad88:	4798      	blx	r3
   dad8a:	2800      	cmp	r0, #0
   dad8c:	dd01      	ble.n	dad92 <serialEventRun+0x2e>
        serialEvent1();
   dad8e:	f3af 8000 	nop.w
}
   dad92:	bd08      	pop	{r3, pc}
	...

000dad9c <_post_loop>:
{
   dad9c:	b508      	push	{r3, lr}
	serialEventRun();
   dad9e:	f7ff ffe1 	bl	dad64 <serialEventRun>
		return !timeout_fn;
	}

	static inline system_tick_t current_time()
	{
		return HAL_Timer_Get_Milli_Seconds();
   dada2:	f7fc fd57 	bl	d7854 <HAL_Timer_Get_Milli_Seconds>
	/**
	 * Lifesign that the application is still working normally.
	 */
	static void checkin()
	{
		last_checkin = current_time();
   dada6:	4b01      	ldr	r3, [pc, #4]	; (dadac <_post_loop+0x10>)
   dada8:	6018      	str	r0, [r3, #0]
}
   dadaa:	bd08      	pop	{r3, pc}
   dadac:	2003e7c4 	.word	0x2003e7c4

000dadb0 <_Z33system_initialize_user_backup_ramv>:
    memcpy(&link_global_retained_start, &link_global_retained_initial_values, len);
   dadb0:	4802      	ldr	r0, [pc, #8]	; (dadbc <_Z33system_initialize_user_backup_ramv+0xc>)
   dadb2:	4a03      	ldr	r2, [pc, #12]	; (dadc0 <_Z33system_initialize_user_backup_ramv+0x10>)
   dadb4:	4903      	ldr	r1, [pc, #12]	; (dadc4 <_Z33system_initialize_user_backup_ramv+0x14>)
   dadb6:	1a12      	subs	r2, r2, r0
   dadb8:	f000 bf38 	b.w	dbc2c <memcpy>
   dadbc:	2003f400 	.word	0x2003f400
   dadc0:	2003fc04 	.word	0x2003fc04
   dadc4:	000dece0 	.word	0x000dece0

000dadc8 <_Z27ctrl_request_custom_handlerP12ctrl_request>:
void __attribute((weak)) ctrl_request_custom_handler(ctrl_request* req) {
   dadc8:	b507      	push	{r0, r1, r2, lr}
    system_ctrl_set_result(req, SYSTEM_ERROR_NOT_SUPPORTED, nullptr, nullptr, nullptr);
   dadca:	2300      	movs	r3, #0
   dadcc:	9300      	str	r3, [sp, #0]
   dadce:	461a      	mov	r2, r3
   dadd0:	f06f 0177 	mvn.w	r1, #119	; 0x77
   dadd4:	f7fc ff3a 	bl	d7c4c <system_ctrl_set_result>
}
   dadd8:	b003      	add	sp, #12
   dadda:	f85d fb04 	ldr.w	pc, [sp], #4
	...

000dade0 <_ZL20ctrl_request_handlerP12ctrl_request>:
static void ctrl_request_handler(ctrl_request* req) {
   dade0:	b507      	push	{r0, r1, r2, lr}
    switch (req->type) {
   dade2:	8843      	ldrh	r3, [r0, #2]
   dade4:	2b0a      	cmp	r3, #10
   dade6:	d008      	beq.n	dadfa <_ZL20ctrl_request_handlerP12ctrl_request+0x1a>
   dade8:	2b50      	cmp	r3, #80	; 0x50
   dadea:	d10b      	bne.n	dae04 <_ZL20ctrl_request_handlerP12ctrl_request+0x24>
        if (log_process_ctrl_request_callback) {
   dadec:	4b09      	ldr	r3, [pc, #36]	; (dae14 <_ZL20ctrl_request_handlerP12ctrl_request+0x34>)
   dadee:	681b      	ldr	r3, [r3, #0]
   dadf0:	b14b      	cbz	r3, dae06 <_ZL20ctrl_request_handlerP12ctrl_request+0x26>
}
   dadf2:	b003      	add	sp, #12
   dadf4:	f85d eb04 	ldr.w	lr, [sp], #4
            log_process_ctrl_request_callback(req);
   dadf8:	4718      	bx	r3
        ctrl_request_custom_handler(req);
   dadfa:	f7ff ffe5 	bl	dadc8 <_Z27ctrl_request_custom_handlerP12ctrl_request>
}
   dadfe:	b003      	add	sp, #12
   dae00:	f85d fb04 	ldr.w	pc, [sp], #4
        system_ctrl_set_result(req, SYSTEM_ERROR_NOT_SUPPORTED, nullptr, nullptr, nullptr);
   dae04:	2300      	movs	r3, #0
   dae06:	9300      	str	r3, [sp, #0]
   dae08:	461a      	mov	r2, r3
   dae0a:	f06f 0177 	mvn.w	r1, #119	; 0x77
   dae0e:	f7fc ff1d 	bl	d7c4c <system_ctrl_set_result>
}
   dae12:	e7f4      	b.n	dadfe <_ZL20ctrl_request_handlerP12ctrl_request+0x1e>
   dae14:	2003e7b4 	.word	0x2003e7b4

000dae18 <module_user_init_hook>:
{
   dae18:	b538      	push	{r3, r4, r5, lr}
#endif // HAL_PLATFORM_NEWLIB

#if HAL_PLATFORM_BACKUP_RAM
    backup_ram_was_valid_ =  __backup_sram_signature==signature;
   dae1a:	4c12      	ldr	r4, [pc, #72]	; (dae64 <module_user_init_hook+0x4c>)
    newlib_impure_ptr_callback([](struct _reent* r, size_t size, uint32_t version, void* ctx) -> void {
   dae1c:	4812      	ldr	r0, [pc, #72]	; (dae68 <module_user_init_hook+0x50>)
    backup_ram_was_valid_ =  __backup_sram_signature==signature;
   dae1e:	4d13      	ldr	r5, [pc, #76]	; (dae6c <module_user_init_hook+0x54>)
    newlib_impure_ptr_callback([](struct _reent* r, size_t size, uint32_t version, void* ctx) -> void {
   dae20:	2100      	movs	r1, #0
   dae22:	f7fd f84b 	bl	d7ebc <newlib_impure_ptr_callback>
    backup_ram_was_valid_ =  __backup_sram_signature==signature;
   dae26:	6823      	ldr	r3, [r4, #0]
   dae28:	42ab      	cmp	r3, r5
   dae2a:	4b11      	ldr	r3, [pc, #68]	; (dae70 <module_user_init_hook+0x58>)
   dae2c:	bf0c      	ite	eq
   dae2e:	2201      	moveq	r2, #1
   dae30:	2200      	movne	r2, #0
   dae32:	701a      	strb	r2, [r3, #0]
    if (!backup_ram_was_valid_) {
   dae34:	d002      	beq.n	dae3c <module_user_init_hook+0x24>
        system_initialize_user_backup_ram();
   dae36:	f7ff ffbb 	bl	dadb0 <_Z33system_initialize_user_backup_ramv>
        __backup_sram_signature = signature;
   dae3a:	6025      	str	r5, [r4, #0]
    }
#endif

#if HAL_PLATFORM_RNG
    // Initialize the default stdlib PRNG using hardware RNG as a seed
    const uint32_t seed = HAL_RNG_GetRandomNumber();
   dae3c:	f7fc fcf2 	bl	d7824 <HAL_RNG_GetRandomNumber>
   dae40:	4604      	mov	r4, r0
    srand(seed);
   dae42:	f000 ff23 	bl	dbc8c <srand>

    // If the user defines random_seed_from_cloud, call it with a seed value
    // generated by a hardware RNG as well.
    if (random_seed_from_cloud) {
   dae46:	4b0b      	ldr	r3, [pc, #44]	; (dae74 <module_user_init_hook+0x5c>)
   dae48:	b113      	cbz	r3, dae50 <module_user_init_hook+0x38>
        random_seed_from_cloud(seed);
   dae4a:	4620      	mov	r0, r4
   dae4c:	f3af 8000 	nop.w
    }
#endif
    // Register the random_seed_from_cloud handler
    spark_set_random_seed_from_cloud_handler(&random_seed_from_cloud, nullptr);
   dae50:	2100      	movs	r1, #0
   dae52:	4808      	ldr	r0, [pc, #32]	; (dae74 <module_user_init_hook+0x5c>)
   dae54:	f7fc ff82 	bl	d7d5c <spark_set_random_seed_from_cloud_handler>

    // Register application handler for the control requests
    system_ctrl_set_app_request_handler(ctrl_request_handler, nullptr);
}
   dae58:	e8bd 4038 	ldmia.w	sp!, {r3, r4, r5, lr}
    system_ctrl_set_app_request_handler(ctrl_request_handler, nullptr);
   dae5c:	4806      	ldr	r0, [pc, #24]	; (dae78 <module_user_init_hook+0x60>)
   dae5e:	2100      	movs	r1, #0
   dae60:	f7fc beea 	b.w	d7c38 <system_ctrl_set_app_request_handler>
   dae64:	2003fc00 	.word	0x2003fc00
   dae68:	000dad59 	.word	0x000dad59
   dae6c:	9a271c1e 	.word	0x9a271c1e
   dae70:	2003e7b0 	.word	0x2003e7b0
   dae74:	00000000 	.word	0x00000000
   dae78:	000dade1 	.word	0x000dade1

000dae7c <spark_protocol_instance>:
extern "C" {
#endif

DYNALIB_BEGIN(communication)

DYNALIB_FN(0, communication, spark_protocol_instance, ProtocolFacade*(void))
   dae7c:	b508      	push	{r3, lr}
   dae7e:	4b02      	ldr	r3, [pc, #8]	; (dae88 <spark_protocol_instance+0xc>)
   dae80:	681b      	ldr	r3, [r3, #0]
   dae82:	681b      	ldr	r3, [r3, #0]
   dae84:	9301      	str	r3, [sp, #4]
   dae86:	bd08      	pop	{r3, pc}
   dae88:	0003025c 	.word	0x0003025c

000dae8c <spark_protocol_set_product_id>:
DYNALIB_FN(1, communication, spark_protocol_set_product_id, void(ProtocolFacade*, product_id_t, unsigned, void*))
   dae8c:	b508      	push	{r3, lr}
   dae8e:	4b02      	ldr	r3, [pc, #8]	; (dae98 <spark_protocol_set_product_id+0xc>)
   dae90:	681b      	ldr	r3, [r3, #0]
   dae92:	685b      	ldr	r3, [r3, #4]
   dae94:	9301      	str	r3, [sp, #4]
   dae96:	bd08      	pop	{r3, pc}
   dae98:	0003025c 	.word	0x0003025c

000dae9c <spark_protocol_set_product_firmware_version>:
DYNALIB_FN(2, communication, spark_protocol_set_product_firmware_version, void(ProtocolFacade*, product_firmware_version_t, unsigned, void*))
   dae9c:	b508      	push	{r3, lr}
   dae9e:	4b02      	ldr	r3, [pc, #8]	; (daea8 <spark_protocol_set_product_firmware_version+0xc>)
   daea0:	681b      	ldr	r3, [r3, #0]
   daea2:	689b      	ldr	r3, [r3, #8]
   daea4:	9301      	str	r3, [sp, #4]
   daea6:	bd08      	pop	{r3, pc}
   daea8:	0003025c 	.word	0x0003025c

000daeac <pinAvailable>:
/*
 * @brief Perform safety check on desired pin to see if it's already
 * being used.  Return 0 if used, otherwise return 1 if available.
 */
bool pinAvailable(uint16_t pin) {
  if (pin >= TOTAL_PINS) {
   daeac:	2823      	cmp	r0, #35	; 0x23
bool pinAvailable(uint16_t pin) {
   daeae:	b513      	push	{r0, r1, r4, lr}
  if (pin >= TOTAL_PINS) {
   daeb0:	d902      	bls.n	daeb8 <pinAvailable+0xc>
    return false;
   daeb2:	2000      	movs	r0, #0
    return false; // 'pin' is used
  }
#endif

  return true; // 'pin' is available
}
   daeb4:	b002      	add	sp, #8
   daeb6:	bd10      	pop	{r4, pc}
  if((pin == SCK || pin == MOSI || pin == MISO) && hal_spi_is_enabled(SPI.interface()) == true)
   daeb8:	f1a0 030b 	sub.w	r3, r0, #11
   daebc:	2b02      	cmp	r3, #2
   daebe:	d81a      	bhi.n	daef6 <pinAvailable+0x4a>

template <hal_spi_interface_t Interface>
class SpiProxy {
public:
    static SPIClass& instance() {
        static SPIClass instance(Interface);
   daec0:	4c17      	ldr	r4, [pc, #92]	; (daf20 <pinAvailable+0x74>)
   daec2:	7821      	ldrb	r1, [r4, #0]
   daec4:	f3bf 8f5b 	dmb	ish
   daec8:	f011 0101 	ands.w	r1, r1, #1
   daecc:	d10b      	bne.n	daee6 <pinAvailable+0x3a>
   daece:	4620      	mov	r0, r4
   daed0:	9101      	str	r1, [sp, #4]
   daed2:	f7f9 f8f1 	bl	d40b8 <__cxa_guard_acquire>
   daed6:	9901      	ldr	r1, [sp, #4]
   daed8:	b128      	cbz	r0, daee6 <pinAvailable+0x3a>
   daeda:	4812      	ldr	r0, [pc, #72]	; (daf24 <pinAvailable+0x78>)
   daedc:	f7ff fa3c 	bl	da358 <_ZN8SPIClassC1E19hal_spi_interface_t>
   daee0:	4620      	mov	r0, r4
   daee2:	f7f9 f8ee 	bl	d40c2 <__cxa_guard_release>
   daee6:	4b0f      	ldr	r3, [pc, #60]	; (daf24 <pinAvailable+0x78>)
   daee8:	7818      	ldrb	r0, [r3, #0]
   daeea:	f7fc fd93 	bl	d7a14 <hal_spi_is_enabled>
   daeee:	2800      	cmp	r0, #0
   daef0:	d1df      	bne.n	daeb2 <pinAvailable+0x6>
  return true; // 'pin' is available
   daef2:	2001      	movs	r0, #1
   daef4:	e7de      	b.n	daeb4 <pinAvailable+0x8>
  if((pin == SCL || pin == SDA) && hal_i2c_is_enabled(Wire.interface(), nullptr) == true)
   daef6:	2801      	cmp	r0, #1
   daef8:	d809      	bhi.n	daf0e <pinAvailable+0x62>
   daefa:	f000 f899 	bl	db030 <_Z19__fetch_global_Wirev>
   daefe:	2100      	movs	r1, #0
   daf00:	7c00      	ldrb	r0, [r0, #16]
   daf02:	f7fc fd3f 	bl	d7984 <hal_i2c_is_enabled>
  if((pin == RX || pin == TX) && hal_usart_is_enabled(Serial1.interface()) == true)
   daf06:	f080 0001 	eor.w	r0, r0, #1
   daf0a:	b2c0      	uxtb	r0, r0
   daf0c:	e7d2      	b.n	daeb4 <pinAvailable+0x8>
   daf0e:	3809      	subs	r0, #9
   daf10:	2801      	cmp	r0, #1
   daf12:	d8ee      	bhi.n	daef2 <pinAvailable+0x46>
   daf14:	f7ff fe6a 	bl	dabec <_Z22__fetch_global_Serial1v>
   daf18:	7c00      	ldrb	r0, [r0, #16]
   daf1a:	f7fc fdbb 	bl	d7a94 <hal_usart_is_enabled>
   daf1e:	e7f2      	b.n	daf06 <pinAvailable+0x5a>
   daf20:	2003e7b8 	.word	0x2003e7b8
   daf24:	2003e7bc 	.word	0x2003e7bc

000daf28 <pinMode>:
  if(pin >= TOTAL_PINS || setMode == PIN_MODE_NONE )
   daf28:	2823      	cmp	r0, #35	; 0x23
{
   daf2a:	b538      	push	{r3, r4, r5, lr}
   daf2c:	4604      	mov	r4, r0
   daf2e:	460d      	mov	r5, r1
  if(pin >= TOTAL_PINS || setMode == PIN_MODE_NONE )
   daf30:	d80a      	bhi.n	daf48 <pinMode+0x20>
   daf32:	29ff      	cmp	r1, #255	; 0xff
   daf34:	d008      	beq.n	daf48 <pinMode+0x20>
  if( !pinAvailable(pin) ) {
   daf36:	f7ff ffb9 	bl	daeac <pinAvailable>
   daf3a:	b128      	cbz	r0, daf48 <pinMode+0x20>
  HAL_Pin_Mode(pin, setMode);
   daf3c:	4629      	mov	r1, r5
   daf3e:	4620      	mov	r0, r4
}
   daf40:	e8bd 4038 	ldmia.w	sp!, {r3, r4, r5, lr}
  HAL_Pin_Mode(pin, setMode);
   daf44:	f7fc bcb6 	b.w	d78b4 <HAL_Pin_Mode>
}
   daf48:	bd38      	pop	{r3, r4, r5, pc}

000daf4a <digitalWrite>:

/*
 * @brief Sets a GPIO pin to HIGH or LOW.
 */
void digitalWrite(pin_t pin, uint8_t value)
{
   daf4a:	b538      	push	{r3, r4, r5, lr}
   daf4c:	4604      	mov	r4, r0
   daf4e:	460d      	mov	r5, r1
    PinMode mode = HAL_Get_Pin_Mode(pin);
   daf50:	f7fc fcb8 	bl	d78c4 <HAL_Get_Pin_Mode>
    if (mode==PIN_MODE_NONE || is_input_mode(mode))
   daf54:	28ff      	cmp	r0, #255	; 0xff
   daf56:	d010      	beq.n	daf7a <digitalWrite+0x30>
            mode == INPUT_PULLDOWN ||
   daf58:	2806      	cmp	r0, #6
   daf5a:	d804      	bhi.n	daf66 <digitalWrite+0x1c>
   daf5c:	234d      	movs	r3, #77	; 0x4d
   daf5e:	fa23 f000 	lsr.w	r0, r3, r0
   daf62:	07c3      	lsls	r3, r0, #31
   daf64:	d409      	bmi.n	daf7a <digitalWrite+0x30>
        return;
  // Safety check
  if( !pinAvailable(pin) ) {
   daf66:	4620      	mov	r0, r4
   daf68:	f7ff ffa0 	bl	daeac <pinAvailable>
   daf6c:	b128      	cbz	r0, daf7a <digitalWrite+0x30>
    return;
  }

  HAL_GPIO_Write(pin, value);
   daf6e:	4629      	mov	r1, r5
   daf70:	4620      	mov	r0, r4
}
   daf72:	e8bd 4038 	ldmia.w	sp!, {r3, r4, r5, lr}
  HAL_GPIO_Write(pin, value);
   daf76:	f7fc bcad 	b.w	d78d4 <HAL_GPIO_Write>
}
   daf7a:	bd38      	pop	{r3, r4, r5, pc}

000daf7c <digitalRead>:

/*
 * @brief Reads the value of a GPIO pin. Should return either 1 (HIGH) or 0 (LOW).
 */
int32_t digitalRead(pin_t pin)
{
   daf7c:	b510      	push	{r4, lr}
   daf7e:	4604      	mov	r4, r0
    PinMode mode = HAL_Get_Pin_Mode(pin);
   daf80:	f7fc fca0 	bl	d78c4 <HAL_Get_Pin_Mode>
    return mode == AF_OUTPUT_PUSHPULL ||
   daf84:	1f03      	subs	r3, r0, #4
    if (is_af_output_mode(mode))
   daf86:	b2db      	uxtb	r3, r3
   daf88:	2b01      	cmp	r3, #1
   daf8a:	d908      	bls.n	daf9e <digitalRead+0x22>
        return LOW;

    // Safety check
    if( !pinAvailable(pin) ) {
   daf8c:	4620      	mov	r0, r4
   daf8e:	f7ff ff8d 	bl	daeac <pinAvailable>
   daf92:	b120      	cbz	r0, daf9e <digitalRead+0x22>
      return LOW;
    }

    return HAL_GPIO_Read(pin);
   daf94:	4620      	mov	r0, r4
}
   daf96:	e8bd 4010 	ldmia.w	sp!, {r4, lr}
    return HAL_GPIO_Read(pin);
   daf9a:	f7fc bca3 	b.w	d78e4 <HAL_GPIO_Read>
}
   daf9e:	2000      	movs	r0, #0
   dafa0:	bd10      	pop	{r4, pc}

000dafa2 <analogRead>:
 * Note: ADC is 12-bit. Currently it returns 0-4095
 */
int32_t analogRead(pin_t pin)
{
  // Allow people to use 0-7 to define analog pins by checking to see if the values are too low.
  if(pin < FIRST_ANALOG_PIN)
   dafa2:	280d      	cmp	r0, #13
{
   dafa4:	b510      	push	{r4, lr}
   dafa6:	4604      	mov	r4, r0
  {
    pin = pin + FIRST_ANALOG_PIN;
   dafa8:	bf9c      	itt	ls
   dafaa:	340e      	addls	r4, #14
   dafac:	b2a4      	uxthls	r4, r4
  }

  // Safety check
  if( !pinAvailable(pin) ) {
   dafae:	4620      	mov	r0, r4
   dafb0:	f7ff ff7c 	bl	daeac <pinAvailable>
   dafb4:	b150      	cbz	r0, dafcc <analogRead+0x2a>
    return LOW;
  }

  if(HAL_Validate_Pin_Function(pin, PF_ADC)!=PF_ADC)
   dafb6:	2103      	movs	r1, #3
   dafb8:	4620      	mov	r0, r4
   dafba:	f7fc fc73 	bl	d78a4 <HAL_Validate_Pin_Function>
   dafbe:	2803      	cmp	r0, #3
   dafc0:	d104      	bne.n	dafcc <analogRead+0x2a>
  {
    return LOW;
  }

  return hal_adc_read(pin);
   dafc2:	4620      	mov	r0, r4
}
   dafc4:	e8bd 4010 	ldmia.w	sp!, {r4, lr}
  return hal_adc_read(pin);
   dafc8:	f7fc bc94 	b.w	d78f4 <hal_adc_read>
}
   dafcc:	2000      	movs	r0, #0
   dafce:	bd10      	pop	{r4, pc}

000dafd0 <_Z17acquireWireBufferv>:
}

} // anonymous

hal_i2c_config_t __attribute__((weak)) acquireWireBuffer()
{
   dafd0:	b538      	push	{r3, r4, r5, lr}
	hal_i2c_config_t config = {
   dafd2:	2300      	movs	r3, #0
   dafd4:	2520      	movs	r5, #32
   dafd6:	8043      	strh	r3, [r0, #2]
   dafd8:	2314      	movs	r3, #20
{
   dafda:	4604      	mov	r4, r0
	hal_i2c_config_t config = {
   dafdc:	8003      	strh	r3, [r0, #0]
   dafde:	6085      	str	r5, [r0, #8]
   dafe0:	6105      	str	r5, [r0, #16]
		.rx_buffer = new (std::nothrow) uint8_t[I2C_BUFFER_LENGTH],
   dafe2:	4906      	ldr	r1, [pc, #24]	; (daffc <_Z17acquireWireBufferv+0x2c>)
   dafe4:	4628      	mov	r0, r5
   dafe6:	f000 f87c 	bl	db0e2 <_ZnajRKSt9nothrow_t>
		.tx_buffer = new (std::nothrow) uint8_t[I2C_BUFFER_LENGTH],
   dafea:	4904      	ldr	r1, [pc, #16]	; (daffc <_Z17acquireWireBufferv+0x2c>)
	};
   dafec:	6060      	str	r0, [r4, #4]
		.tx_buffer = new (std::nothrow) uint8_t[I2C_BUFFER_LENGTH],
   dafee:	4628      	mov	r0, r5
   daff0:	f000 f877 	bl	db0e2 <_ZnajRKSt9nothrow_t>
	};
   daff4:	60e0      	str	r0, [r4, #12]
	return defaultWireConfig();
}
   daff6:	4620      	mov	r0, r4
   daff8:	bd38      	pop	{r3, r4, r5, pc}
   daffa:	bf00      	nop
   daffc:	000de9d4 	.word	0x000de9d4

000db000 <_Z18acquireWire1Bufferv>:
   db000:	b538      	push	{r3, r4, r5, lr}
   db002:	2300      	movs	r3, #0
   db004:	2520      	movs	r5, #32
   db006:	8043      	strh	r3, [r0, #2]
   db008:	2314      	movs	r3, #20
   db00a:	4604      	mov	r4, r0
   db00c:	8003      	strh	r3, [r0, #0]
   db00e:	6085      	str	r5, [r0, #8]
   db010:	6105      	str	r5, [r0, #16]
   db012:	4906      	ldr	r1, [pc, #24]	; (db02c <_Z18acquireWire1Bufferv+0x2c>)
   db014:	4628      	mov	r0, r5
   db016:	f000 f864 	bl	db0e2 <_ZnajRKSt9nothrow_t>
   db01a:	4904      	ldr	r1, [pc, #16]	; (db02c <_Z18acquireWire1Bufferv+0x2c>)
   db01c:	6060      	str	r0, [r4, #4]
   db01e:	4628      	mov	r0, r5
   db020:	f000 f85f 	bl	db0e2 <_ZnajRKSt9nothrow_t>
   db024:	60e0      	str	r0, [r4, #12]
   db026:	4620      	mov	r0, r4
   db028:	bd38      	pop	{r3, r4, r5, pc}
   db02a:	bf00      	nop
   db02c:	000de9d4 	.word	0x000de9d4

000db030 <_Z19__fetch_global_Wirev>:
	return defaultWireConfig();
}
#endif

TwoWire& __fetch_global_Wire()
{
   db030:	b530      	push	{r4, r5, lr}
	static TwoWire wire(HAL_I2C_INTERFACE1, acquireWireBuffer());
   db032:	4d0f      	ldr	r5, [pc, #60]	; (db070 <_Z19__fetch_global_Wirev+0x40>)
   db034:	7829      	ldrb	r1, [r5, #0]
   db036:	f3bf 8f5b 	dmb	ish
   db03a:	f011 0401 	ands.w	r4, r1, #1
{
   db03e:	b087      	sub	sp, #28
	static TwoWire wire(HAL_I2C_INTERFACE1, acquireWireBuffer());
   db040:	d113      	bne.n	db06a <_Z19__fetch_global_Wirev+0x3a>
   db042:	4628      	mov	r0, r5
   db044:	f7f9 f838 	bl	d40b8 <__cxa_guard_acquire>
   db048:	b178      	cbz	r0, db06a <_Z19__fetch_global_Wirev+0x3a>
   db04a:	a801      	add	r0, sp, #4
   db04c:	f7ff ffc0 	bl	dafd0 <_Z17acquireWireBufferv>
   db050:	aa01      	add	r2, sp, #4
   db052:	4621      	mov	r1, r4
   db054:	4807      	ldr	r0, [pc, #28]	; (db074 <_Z19__fetch_global_Wirev+0x44>)
   db056:	f7fd fcfd 	bl	d8a54 <_ZN7TwoWireC1E19hal_i2c_interface_tRK16hal_i2c_config_t>
   db05a:	4628      	mov	r0, r5
   db05c:	f7f9 f831 	bl	d40c2 <__cxa_guard_release>
   db060:	4a05      	ldr	r2, [pc, #20]	; (db078 <_Z19__fetch_global_Wirev+0x48>)
   db062:	4906      	ldr	r1, [pc, #24]	; (db07c <_Z19__fetch_global_Wirev+0x4c>)
   db064:	4803      	ldr	r0, [pc, #12]	; (db074 <_Z19__fetch_global_Wirev+0x44>)
   db066:	f000 f833 	bl	db0d0 <__aeabi_atexit>
	return wire;
}
   db06a:	4802      	ldr	r0, [pc, #8]	; (db074 <_Z19__fetch_global_Wirev+0x44>)
   db06c:	b007      	add	sp, #28
   db06e:	bd30      	pop	{r4, r5, pc}
   db070:	2003e7c8 	.word	0x2003e7c8
   db074:	2003e7d0 	.word	0x2003e7d0
   db078:	2003e3c0 	.word	0x2003e3c0
   db07c:	000d89fd 	.word	0x000d89fd

000db080 <_Z20__fetch_global_Wire1v>:

#if Wiring_Wire1
TwoWire& __fetch_global_Wire1()
{
   db080:	b510      	push	{r4, lr}
	static TwoWire wire(HAL_I2C_INTERFACE2, acquireWire1Buffer());
   db082:	4c0f      	ldr	r4, [pc, #60]	; (db0c0 <_Z20__fetch_global_Wire1v+0x40>)
   db084:	7823      	ldrb	r3, [r4, #0]
   db086:	f3bf 8f5b 	dmb	ish
   db08a:	07db      	lsls	r3, r3, #31
{
   db08c:	b086      	sub	sp, #24
	static TwoWire wire(HAL_I2C_INTERFACE2, acquireWire1Buffer());
   db08e:	d413      	bmi.n	db0b8 <_Z20__fetch_global_Wire1v+0x38>
   db090:	4620      	mov	r0, r4
   db092:	f7f9 f811 	bl	d40b8 <__cxa_guard_acquire>
   db096:	b178      	cbz	r0, db0b8 <_Z20__fetch_global_Wire1v+0x38>
   db098:	a801      	add	r0, sp, #4
   db09a:	f7ff ffb1 	bl	db000 <_Z18acquireWire1Bufferv>
   db09e:	aa01      	add	r2, sp, #4
   db0a0:	2101      	movs	r1, #1
   db0a2:	4808      	ldr	r0, [pc, #32]	; (db0c4 <_Z20__fetch_global_Wire1v+0x44>)
   db0a4:	f7fd fcd6 	bl	d8a54 <_ZN7TwoWireC1E19hal_i2c_interface_tRK16hal_i2c_config_t>
   db0a8:	4620      	mov	r0, r4
   db0aa:	f7f9 f80a 	bl	d40c2 <__cxa_guard_release>
   db0ae:	4a06      	ldr	r2, [pc, #24]	; (db0c8 <_Z20__fetch_global_Wire1v+0x48>)
   db0b0:	4906      	ldr	r1, [pc, #24]	; (db0cc <_Z20__fetch_global_Wire1v+0x4c>)
   db0b2:	4804      	ldr	r0, [pc, #16]	; (db0c4 <_Z20__fetch_global_Wire1v+0x44>)
   db0b4:	f000 f80c 	bl	db0d0 <__aeabi_atexit>
	return wire;
}
   db0b8:	4802      	ldr	r0, [pc, #8]	; (db0c4 <_Z20__fetch_global_Wire1v+0x44>)
   db0ba:	b006      	add	sp, #24
   db0bc:	bd10      	pop	{r4, pc}
   db0be:	bf00      	nop
   db0c0:	2003e7cc 	.word	0x2003e7cc
   db0c4:	2003e7e4 	.word	0x2003e7e4
   db0c8:	2003e3c0 	.word	0x2003e3c0
   db0cc:	000d89fd 	.word	0x000d89fd

000db0d0 <__aeabi_atexit>:
   db0d0:	460b      	mov	r3, r1
   db0d2:	4601      	mov	r1, r0
   db0d4:	4618      	mov	r0, r3
   db0d6:	f000 bd89 	b.w	dbbec <__cxa_atexit>

000db0da <_ZdlPvj>:
   db0da:	f7f8 bfe0 	b.w	d409e <_ZdlPv>

000db0de <_ZnwjRKSt9nothrow_t>:
   db0de:	f7f8 bfda 	b.w	d4096 <_Znwj>

000db0e2 <_ZnajRKSt9nothrow_t>:
   db0e2:	f7f8 bfda 	b.w	d409a <_Znaj>

000db0e6 <_ZSt25__throw_bad_function_callv>:
   db0e6:	b508      	push	{r3, lr}
   db0e8:	f7fc fed8 	bl	d7e9c <abort>

000db0ec <__aeabi_drsub>:
   db0ec:	f081 4100 	eor.w	r1, r1, #2147483648	; 0x80000000
   db0f0:	e002      	b.n	db0f8 <__adddf3>
   db0f2:	bf00      	nop

000db0f4 <__aeabi_dsub>:
   db0f4:	f083 4300 	eor.w	r3, r3, #2147483648	; 0x80000000

000db0f8 <__adddf3>:
   db0f8:	b530      	push	{r4, r5, lr}
   db0fa:	ea4f 0441 	mov.w	r4, r1, lsl #1
   db0fe:	ea4f 0543 	mov.w	r5, r3, lsl #1
   db102:	ea94 0f05 	teq	r4, r5
   db106:	bf08      	it	eq
   db108:	ea90 0f02 	teqeq	r0, r2
   db10c:	bf1f      	itttt	ne
   db10e:	ea54 0c00 	orrsne.w	ip, r4, r0
   db112:	ea55 0c02 	orrsne.w	ip, r5, r2
   db116:	ea7f 5c64 	mvnsne.w	ip, r4, asr #21
   db11a:	ea7f 5c65 	mvnsne.w	ip, r5, asr #21
   db11e:	f000 80e2 	beq.w	db2e6 <__adddf3+0x1ee>
   db122:	ea4f 5454 	mov.w	r4, r4, lsr #21
   db126:	ebd4 5555 	rsbs	r5, r4, r5, lsr #21
   db12a:	bfb8      	it	lt
   db12c:	426d      	neglt	r5, r5
   db12e:	dd0c      	ble.n	db14a <__adddf3+0x52>
   db130:	442c      	add	r4, r5
   db132:	ea80 0202 	eor.w	r2, r0, r2
   db136:	ea81 0303 	eor.w	r3, r1, r3
   db13a:	ea82 0000 	eor.w	r0, r2, r0
   db13e:	ea83 0101 	eor.w	r1, r3, r1
   db142:	ea80 0202 	eor.w	r2, r0, r2
   db146:	ea81 0303 	eor.w	r3, r1, r3
   db14a:	2d36      	cmp	r5, #54	; 0x36
   db14c:	bf88      	it	hi
   db14e:	bd30      	pophi	{r4, r5, pc}
   db150:	f011 4f00 	tst.w	r1, #2147483648	; 0x80000000
   db154:	ea4f 3101 	mov.w	r1, r1, lsl #12
   db158:	f44f 1c80 	mov.w	ip, #1048576	; 0x100000
   db15c:	ea4c 3111 	orr.w	r1, ip, r1, lsr #12
   db160:	d002      	beq.n	db168 <__adddf3+0x70>
   db162:	4240      	negs	r0, r0
   db164:	eb61 0141 	sbc.w	r1, r1, r1, lsl #1
   db168:	f013 4f00 	tst.w	r3, #2147483648	; 0x80000000
   db16c:	ea4f 3303 	mov.w	r3, r3, lsl #12
   db170:	ea4c 3313 	orr.w	r3, ip, r3, lsr #12
   db174:	d002      	beq.n	db17c <__adddf3+0x84>
   db176:	4252      	negs	r2, r2
   db178:	eb63 0343 	sbc.w	r3, r3, r3, lsl #1
   db17c:	ea94 0f05 	teq	r4, r5
   db180:	f000 80a7 	beq.w	db2d2 <__adddf3+0x1da>
   db184:	f1a4 0401 	sub.w	r4, r4, #1
   db188:	f1d5 0e20 	rsbs	lr, r5, #32
   db18c:	db0d      	blt.n	db1aa <__adddf3+0xb2>
   db18e:	fa02 fc0e 	lsl.w	ip, r2, lr
   db192:	fa22 f205 	lsr.w	r2, r2, r5
   db196:	1880      	adds	r0, r0, r2
   db198:	f141 0100 	adc.w	r1, r1, #0
   db19c:	fa03 f20e 	lsl.w	r2, r3, lr
   db1a0:	1880      	adds	r0, r0, r2
   db1a2:	fa43 f305 	asr.w	r3, r3, r5
   db1a6:	4159      	adcs	r1, r3
   db1a8:	e00e      	b.n	db1c8 <__adddf3+0xd0>
   db1aa:	f1a5 0520 	sub.w	r5, r5, #32
   db1ae:	f10e 0e20 	add.w	lr, lr, #32
   db1b2:	2a01      	cmp	r2, #1
   db1b4:	fa03 fc0e 	lsl.w	ip, r3, lr
   db1b8:	bf28      	it	cs
   db1ba:	f04c 0c02 	orrcs.w	ip, ip, #2
   db1be:	fa43 f305 	asr.w	r3, r3, r5
   db1c2:	18c0      	adds	r0, r0, r3
   db1c4:	eb51 71e3 	adcs.w	r1, r1, r3, asr #31
   db1c8:	f001 4500 	and.w	r5, r1, #2147483648	; 0x80000000
   db1cc:	d507      	bpl.n	db1de <__adddf3+0xe6>
   db1ce:	f04f 0e00 	mov.w	lr, #0
   db1d2:	f1dc 0c00 	rsbs	ip, ip, #0
   db1d6:	eb7e 0000 	sbcs.w	r0, lr, r0
   db1da:	eb6e 0101 	sbc.w	r1, lr, r1
   db1de:	f5b1 1f80 	cmp.w	r1, #1048576	; 0x100000
   db1e2:	d31b      	bcc.n	db21c <__adddf3+0x124>
   db1e4:	f5b1 1f00 	cmp.w	r1, #2097152	; 0x200000
   db1e8:	d30c      	bcc.n	db204 <__adddf3+0x10c>
   db1ea:	0849      	lsrs	r1, r1, #1
   db1ec:	ea5f 0030 	movs.w	r0, r0, rrx
   db1f0:	ea4f 0c3c 	mov.w	ip, ip, rrx
   db1f4:	f104 0401 	add.w	r4, r4, #1
   db1f8:	ea4f 5244 	mov.w	r2, r4, lsl #21
   db1fc:	f512 0f80 	cmn.w	r2, #4194304	; 0x400000
   db200:	f080 809a 	bcs.w	db338 <__adddf3+0x240>
   db204:	f1bc 4f00 	cmp.w	ip, #2147483648	; 0x80000000
   db208:	bf08      	it	eq
   db20a:	ea5f 0c50 	movseq.w	ip, r0, lsr #1
   db20e:	f150 0000 	adcs.w	r0, r0, #0
   db212:	eb41 5104 	adc.w	r1, r1, r4, lsl #20
   db216:	ea41 0105 	orr.w	r1, r1, r5
   db21a:	bd30      	pop	{r4, r5, pc}
   db21c:	ea5f 0c4c 	movs.w	ip, ip, lsl #1
   db220:	4140      	adcs	r0, r0
   db222:	eb41 0101 	adc.w	r1, r1, r1
   db226:	3c01      	subs	r4, #1
   db228:	bf28      	it	cs
   db22a:	f5b1 1f80 	cmpcs.w	r1, #1048576	; 0x100000
   db22e:	d2e9      	bcs.n	db204 <__adddf3+0x10c>
   db230:	f091 0f00 	teq	r1, #0
   db234:	bf04      	itt	eq
   db236:	4601      	moveq	r1, r0
   db238:	2000      	moveq	r0, #0
   db23a:	fab1 f381 	clz	r3, r1
   db23e:	bf08      	it	eq
   db240:	3320      	addeq	r3, #32
   db242:	f1a3 030b 	sub.w	r3, r3, #11
   db246:	f1b3 0220 	subs.w	r2, r3, #32
   db24a:	da0c      	bge.n	db266 <__adddf3+0x16e>
   db24c:	320c      	adds	r2, #12
   db24e:	dd08      	ble.n	db262 <__adddf3+0x16a>
   db250:	f102 0c14 	add.w	ip, r2, #20
   db254:	f1c2 020c 	rsb	r2, r2, #12
   db258:	fa01 f00c 	lsl.w	r0, r1, ip
   db25c:	fa21 f102 	lsr.w	r1, r1, r2
   db260:	e00c      	b.n	db27c <__adddf3+0x184>
   db262:	f102 0214 	add.w	r2, r2, #20
   db266:	bfd8      	it	le
   db268:	f1c2 0c20 	rsble	ip, r2, #32
   db26c:	fa01 f102 	lsl.w	r1, r1, r2
   db270:	fa20 fc0c 	lsr.w	ip, r0, ip
   db274:	bfdc      	itt	le
   db276:	ea41 010c 	orrle.w	r1, r1, ip
   db27a:	4090      	lslle	r0, r2
   db27c:	1ae4      	subs	r4, r4, r3
   db27e:	bfa2      	ittt	ge
   db280:	eb01 5104 	addge.w	r1, r1, r4, lsl #20
   db284:	4329      	orrge	r1, r5
   db286:	bd30      	popge	{r4, r5, pc}
   db288:	ea6f 0404 	mvn.w	r4, r4
   db28c:	3c1f      	subs	r4, #31
   db28e:	da1c      	bge.n	db2ca <__adddf3+0x1d2>
   db290:	340c      	adds	r4, #12
   db292:	dc0e      	bgt.n	db2b2 <__adddf3+0x1ba>
   db294:	f104 0414 	add.w	r4, r4, #20
   db298:	f1c4 0220 	rsb	r2, r4, #32
   db29c:	fa20 f004 	lsr.w	r0, r0, r4
   db2a0:	fa01 f302 	lsl.w	r3, r1, r2
   db2a4:	ea40 0003 	orr.w	r0, r0, r3
   db2a8:	fa21 f304 	lsr.w	r3, r1, r4
   db2ac:	ea45 0103 	orr.w	r1, r5, r3
   db2b0:	bd30      	pop	{r4, r5, pc}
   db2b2:	f1c4 040c 	rsb	r4, r4, #12
   db2b6:	f1c4 0220 	rsb	r2, r4, #32
   db2ba:	fa20 f002 	lsr.w	r0, r0, r2
   db2be:	fa01 f304 	lsl.w	r3, r1, r4
   db2c2:	ea40 0003 	orr.w	r0, r0, r3
   db2c6:	4629      	mov	r1, r5
   db2c8:	bd30      	pop	{r4, r5, pc}
   db2ca:	fa21 f004 	lsr.w	r0, r1, r4
   db2ce:	4629      	mov	r1, r5
   db2d0:	bd30      	pop	{r4, r5, pc}
   db2d2:	f094 0f00 	teq	r4, #0
   db2d6:	f483 1380 	eor.w	r3, r3, #1048576	; 0x100000
   db2da:	bf06      	itte	eq
   db2dc:	f481 1180 	eoreq.w	r1, r1, #1048576	; 0x100000
   db2e0:	3401      	addeq	r4, #1
   db2e2:	3d01      	subne	r5, #1
   db2e4:	e74e      	b.n	db184 <__adddf3+0x8c>
   db2e6:	ea7f 5c64 	mvns.w	ip, r4, asr #21
   db2ea:	bf18      	it	ne
   db2ec:	ea7f 5c65 	mvnsne.w	ip, r5, asr #21
   db2f0:	d029      	beq.n	db346 <__adddf3+0x24e>
   db2f2:	ea94 0f05 	teq	r4, r5
   db2f6:	bf08      	it	eq
   db2f8:	ea90 0f02 	teqeq	r0, r2
   db2fc:	d005      	beq.n	db30a <__adddf3+0x212>
   db2fe:	ea54 0c00 	orrs.w	ip, r4, r0
   db302:	bf04      	itt	eq
   db304:	4619      	moveq	r1, r3
   db306:	4610      	moveq	r0, r2
   db308:	bd30      	pop	{r4, r5, pc}
   db30a:	ea91 0f03 	teq	r1, r3
   db30e:	bf1e      	ittt	ne
   db310:	2100      	movne	r1, #0
   db312:	2000      	movne	r0, #0
   db314:	bd30      	popne	{r4, r5, pc}
   db316:	ea5f 5c54 	movs.w	ip, r4, lsr #21
   db31a:	d105      	bne.n	db328 <__adddf3+0x230>
   db31c:	0040      	lsls	r0, r0, #1
   db31e:	4149      	adcs	r1, r1
   db320:	bf28      	it	cs
   db322:	f041 4100 	orrcs.w	r1, r1, #2147483648	; 0x80000000
   db326:	bd30      	pop	{r4, r5, pc}
   db328:	f514 0480 	adds.w	r4, r4, #4194304	; 0x400000
   db32c:	bf3c      	itt	cc
   db32e:	f501 1180 	addcc.w	r1, r1, #1048576	; 0x100000
   db332:	bd30      	popcc	{r4, r5, pc}
   db334:	f001 4500 	and.w	r5, r1, #2147483648	; 0x80000000
   db338:	f045 41fe 	orr.w	r1, r5, #2130706432	; 0x7f000000
   db33c:	f441 0170 	orr.w	r1, r1, #15728640	; 0xf00000
   db340:	f04f 0000 	mov.w	r0, #0
   db344:	bd30      	pop	{r4, r5, pc}
   db346:	ea7f 5c64 	mvns.w	ip, r4, asr #21
   db34a:	bf1a      	itte	ne
   db34c:	4619      	movne	r1, r3
   db34e:	4610      	movne	r0, r2
   db350:	ea7f 5c65 	mvnseq.w	ip, r5, asr #21
   db354:	bf1c      	itt	ne
   db356:	460b      	movne	r3, r1
   db358:	4602      	movne	r2, r0
   db35a:	ea50 3401 	orrs.w	r4, r0, r1, lsl #12
   db35e:	bf06      	itte	eq
   db360:	ea52 3503 	orrseq.w	r5, r2, r3, lsl #12
   db364:	ea91 0f03 	teqeq	r1, r3
   db368:	f441 2100 	orrne.w	r1, r1, #524288	; 0x80000
   db36c:	bd30      	pop	{r4, r5, pc}
   db36e:	bf00      	nop

000db370 <__aeabi_ui2d>:
   db370:	f090 0f00 	teq	r0, #0
   db374:	bf04      	itt	eq
   db376:	2100      	moveq	r1, #0
   db378:	4770      	bxeq	lr
   db37a:	b530      	push	{r4, r5, lr}
   db37c:	f44f 6480 	mov.w	r4, #1024	; 0x400
   db380:	f104 0432 	add.w	r4, r4, #50	; 0x32
   db384:	f04f 0500 	mov.w	r5, #0
   db388:	f04f 0100 	mov.w	r1, #0
   db38c:	e750      	b.n	db230 <__adddf3+0x138>
   db38e:	bf00      	nop

000db390 <__aeabi_i2d>:
   db390:	f090 0f00 	teq	r0, #0
   db394:	bf04      	itt	eq
   db396:	2100      	moveq	r1, #0
   db398:	4770      	bxeq	lr
   db39a:	b530      	push	{r4, r5, lr}
   db39c:	f44f 6480 	mov.w	r4, #1024	; 0x400
   db3a0:	f104 0432 	add.w	r4, r4, #50	; 0x32
   db3a4:	f010 4500 	ands.w	r5, r0, #2147483648	; 0x80000000
   db3a8:	bf48      	it	mi
   db3aa:	4240      	negmi	r0, r0
   db3ac:	f04f 0100 	mov.w	r1, #0
   db3b0:	e73e      	b.n	db230 <__adddf3+0x138>
   db3b2:	bf00      	nop

000db3b4 <__aeabi_f2d>:
   db3b4:	0042      	lsls	r2, r0, #1
   db3b6:	ea4f 01e2 	mov.w	r1, r2, asr #3
   db3ba:	ea4f 0131 	mov.w	r1, r1, rrx
   db3be:	ea4f 7002 	mov.w	r0, r2, lsl #28
   db3c2:	bf1f      	itttt	ne
   db3c4:	f012 437f 	andsne.w	r3, r2, #4278190080	; 0xff000000
   db3c8:	f093 4f7f 	teqne	r3, #4278190080	; 0xff000000
   db3cc:	f081 5160 	eorne.w	r1, r1, #939524096	; 0x38000000
   db3d0:	4770      	bxne	lr
   db3d2:	f032 427f 	bics.w	r2, r2, #4278190080	; 0xff000000
   db3d6:	bf08      	it	eq
   db3d8:	4770      	bxeq	lr
   db3da:	f093 4f7f 	teq	r3, #4278190080	; 0xff000000
   db3de:	bf04      	itt	eq
   db3e0:	f441 2100 	orreq.w	r1, r1, #524288	; 0x80000
   db3e4:	4770      	bxeq	lr
   db3e6:	b530      	push	{r4, r5, lr}
   db3e8:	f44f 7460 	mov.w	r4, #896	; 0x380
   db3ec:	f001 4500 	and.w	r5, r1, #2147483648	; 0x80000000
   db3f0:	f021 4100 	bic.w	r1, r1, #2147483648	; 0x80000000
   db3f4:	e71c      	b.n	db230 <__adddf3+0x138>
   db3f6:	bf00      	nop

000db3f8 <__aeabi_ul2d>:
   db3f8:	ea50 0201 	orrs.w	r2, r0, r1
   db3fc:	bf08      	it	eq
   db3fe:	4770      	bxeq	lr
   db400:	b530      	push	{r4, r5, lr}
   db402:	f04f 0500 	mov.w	r5, #0
   db406:	e00a      	b.n	db41e <__aeabi_l2d+0x16>

000db408 <__aeabi_l2d>:
   db408:	ea50 0201 	orrs.w	r2, r0, r1
   db40c:	bf08      	it	eq
   db40e:	4770      	bxeq	lr
   db410:	b530      	push	{r4, r5, lr}
   db412:	f011 4500 	ands.w	r5, r1, #2147483648	; 0x80000000
   db416:	d502      	bpl.n	db41e <__aeabi_l2d+0x16>
   db418:	4240      	negs	r0, r0
   db41a:	eb61 0141 	sbc.w	r1, r1, r1, lsl #1
   db41e:	f44f 6480 	mov.w	r4, #1024	; 0x400
   db422:	f104 0432 	add.w	r4, r4, #50	; 0x32
   db426:	ea5f 5c91 	movs.w	ip, r1, lsr #22
   db42a:	f43f aed8 	beq.w	db1de <__adddf3+0xe6>
   db42e:	f04f 0203 	mov.w	r2, #3
   db432:	ea5f 0cdc 	movs.w	ip, ip, lsr #3
   db436:	bf18      	it	ne
   db438:	3203      	addne	r2, #3
   db43a:	ea5f 0cdc 	movs.w	ip, ip, lsr #3
   db43e:	bf18      	it	ne
   db440:	3203      	addne	r2, #3
   db442:	eb02 02dc 	add.w	r2, r2, ip, lsr #3
   db446:	f1c2 0320 	rsb	r3, r2, #32
   db44a:	fa00 fc03 	lsl.w	ip, r0, r3
   db44e:	fa20 f002 	lsr.w	r0, r0, r2
   db452:	fa01 fe03 	lsl.w	lr, r1, r3
   db456:	ea40 000e 	orr.w	r0, r0, lr
   db45a:	fa21 f102 	lsr.w	r1, r1, r2
   db45e:	4414      	add	r4, r2
   db460:	e6bd      	b.n	db1de <__adddf3+0xe6>
   db462:	bf00      	nop

000db464 <__aeabi_dmul>:
   db464:	b570      	push	{r4, r5, r6, lr}
   db466:	f04f 0cff 	mov.w	ip, #255	; 0xff
   db46a:	f44c 6ce0 	orr.w	ip, ip, #1792	; 0x700
   db46e:	ea1c 5411 	ands.w	r4, ip, r1, lsr #20
   db472:	bf1d      	ittte	ne
   db474:	ea1c 5513 	andsne.w	r5, ip, r3, lsr #20
   db478:	ea94 0f0c 	teqne	r4, ip
   db47c:	ea95 0f0c 	teqne	r5, ip
   db480:	f000 f8de 	bleq	db640 <__aeabi_dmul+0x1dc>
   db484:	442c      	add	r4, r5
   db486:	ea81 0603 	eor.w	r6, r1, r3
   db48a:	ea21 514c 	bic.w	r1, r1, ip, lsl #21
   db48e:	ea23 534c 	bic.w	r3, r3, ip, lsl #21
   db492:	ea50 3501 	orrs.w	r5, r0, r1, lsl #12
   db496:	bf18      	it	ne
   db498:	ea52 3503 	orrsne.w	r5, r2, r3, lsl #12
   db49c:	f441 1180 	orr.w	r1, r1, #1048576	; 0x100000
   db4a0:	f443 1380 	orr.w	r3, r3, #1048576	; 0x100000
   db4a4:	d038      	beq.n	db518 <__aeabi_dmul+0xb4>
   db4a6:	fba0 ce02 	umull	ip, lr, r0, r2
   db4aa:	f04f 0500 	mov.w	r5, #0
   db4ae:	fbe1 e502 	umlal	lr, r5, r1, r2
   db4b2:	f006 4200 	and.w	r2, r6, #2147483648	; 0x80000000
   db4b6:	fbe0 e503 	umlal	lr, r5, r0, r3
   db4ba:	f04f 0600 	mov.w	r6, #0
   db4be:	fbe1 5603 	umlal	r5, r6, r1, r3
   db4c2:	f09c 0f00 	teq	ip, #0
   db4c6:	bf18      	it	ne
   db4c8:	f04e 0e01 	orrne.w	lr, lr, #1
   db4cc:	f1a4 04ff 	sub.w	r4, r4, #255	; 0xff
   db4d0:	f5b6 7f00 	cmp.w	r6, #512	; 0x200
   db4d4:	f564 7440 	sbc.w	r4, r4, #768	; 0x300
   db4d8:	d204      	bcs.n	db4e4 <__aeabi_dmul+0x80>
   db4da:	ea5f 0e4e 	movs.w	lr, lr, lsl #1
   db4de:	416d      	adcs	r5, r5
   db4e0:	eb46 0606 	adc.w	r6, r6, r6
   db4e4:	ea42 21c6 	orr.w	r1, r2, r6, lsl #11
   db4e8:	ea41 5155 	orr.w	r1, r1, r5, lsr #21
   db4ec:	ea4f 20c5 	mov.w	r0, r5, lsl #11
   db4f0:	ea40 505e 	orr.w	r0, r0, lr, lsr #21
   db4f4:	ea4f 2ece 	mov.w	lr, lr, lsl #11
   db4f8:	f1b4 0cfd 	subs.w	ip, r4, #253	; 0xfd
   db4fc:	bf88      	it	hi
   db4fe:	f5bc 6fe0 	cmphi.w	ip, #1792	; 0x700
   db502:	d81e      	bhi.n	db542 <__aeabi_dmul+0xde>
   db504:	f1be 4f00 	cmp.w	lr, #2147483648	; 0x80000000
   db508:	bf08      	it	eq
   db50a:	ea5f 0e50 	movseq.w	lr, r0, lsr #1
   db50e:	f150 0000 	adcs.w	r0, r0, #0
   db512:	eb41 5104 	adc.w	r1, r1, r4, lsl #20
   db516:	bd70      	pop	{r4, r5, r6, pc}
   db518:	f006 4600 	and.w	r6, r6, #2147483648	; 0x80000000
   db51c:	ea46 0101 	orr.w	r1, r6, r1
   db520:	ea40 0002 	orr.w	r0, r0, r2
   db524:	ea81 0103 	eor.w	r1, r1, r3
   db528:	ebb4 045c 	subs.w	r4, r4, ip, lsr #1
   db52c:	bfc2      	ittt	gt
   db52e:	ebd4 050c 	rsbsgt	r5, r4, ip
   db532:	ea41 5104 	orrgt.w	r1, r1, r4, lsl #20
   db536:	bd70      	popgt	{r4, r5, r6, pc}
   db538:	f441 1180 	orr.w	r1, r1, #1048576	; 0x100000
   db53c:	f04f 0e00 	mov.w	lr, #0
   db540:	3c01      	subs	r4, #1
   db542:	f300 80ab 	bgt.w	db69c <__aeabi_dmul+0x238>
   db546:	f114 0f36 	cmn.w	r4, #54	; 0x36
   db54a:	bfde      	ittt	le
   db54c:	2000      	movle	r0, #0
   db54e:	f001 4100 	andle.w	r1, r1, #2147483648	; 0x80000000
   db552:	bd70      	pople	{r4, r5, r6, pc}
   db554:	f1c4 0400 	rsb	r4, r4, #0
   db558:	3c20      	subs	r4, #32
   db55a:	da35      	bge.n	db5c8 <__aeabi_dmul+0x164>
   db55c:	340c      	adds	r4, #12
   db55e:	dc1b      	bgt.n	db598 <__aeabi_dmul+0x134>
   db560:	f104 0414 	add.w	r4, r4, #20
   db564:	f1c4 0520 	rsb	r5, r4, #32
   db568:	fa00 f305 	lsl.w	r3, r0, r5
   db56c:	fa20 f004 	lsr.w	r0, r0, r4
   db570:	fa01 f205 	lsl.w	r2, r1, r5
   db574:	ea40 0002 	orr.w	r0, r0, r2
   db578:	f001 4200 	and.w	r2, r1, #2147483648	; 0x80000000
   db57c:	f021 4100 	bic.w	r1, r1, #2147483648	; 0x80000000
   db580:	eb10 70d3 	adds.w	r0, r0, r3, lsr #31
   db584:	fa21 f604 	lsr.w	r6, r1, r4
   db588:	eb42 0106 	adc.w	r1, r2, r6
   db58c:	ea5e 0e43 	orrs.w	lr, lr, r3, lsl #1
   db590:	bf08      	it	eq
   db592:	ea20 70d3 	biceq.w	r0, r0, r3, lsr #31
   db596:	bd70      	pop	{r4, r5, r6, pc}
   db598:	f1c4 040c 	rsb	r4, r4, #12
   db59c:	f1c4 0520 	rsb	r5, r4, #32
   db5a0:	fa00 f304 	lsl.w	r3, r0, r4
   db5a4:	fa20 f005 	lsr.w	r0, r0, r5
   db5a8:	fa01 f204 	lsl.w	r2, r1, r4
   db5ac:	ea40 0002 	orr.w	r0, r0, r2
   db5b0:	f001 4100 	and.w	r1, r1, #2147483648	; 0x80000000
   db5b4:	eb10 70d3 	adds.w	r0, r0, r3, lsr #31
   db5b8:	f141 0100 	adc.w	r1, r1, #0
   db5bc:	ea5e 0e43 	orrs.w	lr, lr, r3, lsl #1
   db5c0:	bf08      	it	eq
   db5c2:	ea20 70d3 	biceq.w	r0, r0, r3, lsr #31
   db5c6:	bd70      	pop	{r4, r5, r6, pc}
   db5c8:	f1c4 0520 	rsb	r5, r4, #32
   db5cc:	fa00 f205 	lsl.w	r2, r0, r5
   db5d0:	ea4e 0e02 	orr.w	lr, lr, r2
   db5d4:	fa20 f304 	lsr.w	r3, r0, r4
   db5d8:	fa01 f205 	lsl.w	r2, r1, r5
   db5dc:	ea43 0302 	orr.w	r3, r3, r2
   db5e0:	fa21 f004 	lsr.w	r0, r1, r4
   db5e4:	f001 4100 	and.w	r1, r1, #2147483648	; 0x80000000
   db5e8:	fa21 f204 	lsr.w	r2, r1, r4
   db5ec:	ea20 0002 	bic.w	r0, r0, r2
   db5f0:	eb00 70d3 	add.w	r0, r0, r3, lsr #31
   db5f4:	ea5e 0e43 	orrs.w	lr, lr, r3, lsl #1
   db5f8:	bf08      	it	eq
   db5fa:	ea20 70d3 	biceq.w	r0, r0, r3, lsr #31
   db5fe:	bd70      	pop	{r4, r5, r6, pc}
   db600:	f094 0f00 	teq	r4, #0
   db604:	d10f      	bne.n	db626 <__aeabi_dmul+0x1c2>
   db606:	f001 4600 	and.w	r6, r1, #2147483648	; 0x80000000
   db60a:	0040      	lsls	r0, r0, #1
   db60c:	eb41 0101 	adc.w	r1, r1, r1
   db610:	f411 1f80 	tst.w	r1, #1048576	; 0x100000
   db614:	bf08      	it	eq
   db616:	3c01      	subeq	r4, #1
   db618:	d0f7      	beq.n	db60a <__aeabi_dmul+0x1a6>
   db61a:	ea41 0106 	orr.w	r1, r1, r6
   db61e:	f095 0f00 	teq	r5, #0
   db622:	bf18      	it	ne
   db624:	4770      	bxne	lr
   db626:	f003 4600 	and.w	r6, r3, #2147483648	; 0x80000000
   db62a:	0052      	lsls	r2, r2, #1
   db62c:	eb43 0303 	adc.w	r3, r3, r3
   db630:	f413 1f80 	tst.w	r3, #1048576	; 0x100000
   db634:	bf08      	it	eq
   db636:	3d01      	subeq	r5, #1
   db638:	d0f7      	beq.n	db62a <__aeabi_dmul+0x1c6>
   db63a:	ea43 0306 	orr.w	r3, r3, r6
   db63e:	4770      	bx	lr
   db640:	ea94 0f0c 	teq	r4, ip
   db644:	ea0c 5513 	and.w	r5, ip, r3, lsr #20
   db648:	bf18      	it	ne
   db64a:	ea95 0f0c 	teqne	r5, ip
   db64e:	d00c      	beq.n	db66a <__aeabi_dmul+0x206>
   db650:	ea50 0641 	orrs.w	r6, r0, r1, lsl #1
   db654:	bf18      	it	ne
   db656:	ea52 0643 	orrsne.w	r6, r2, r3, lsl #1
   db65a:	d1d1      	bne.n	db600 <__aeabi_dmul+0x19c>
   db65c:	ea81 0103 	eor.w	r1, r1, r3
   db660:	f001 4100 	and.w	r1, r1, #2147483648	; 0x80000000
   db664:	f04f 0000 	mov.w	r0, #0
   db668:	bd70      	pop	{r4, r5, r6, pc}
   db66a:	ea50 0641 	orrs.w	r6, r0, r1, lsl #1
   db66e:	bf06      	itte	eq
   db670:	4610      	moveq	r0, r2
   db672:	4619      	moveq	r1, r3
   db674:	ea52 0643 	orrsne.w	r6, r2, r3, lsl #1
   db678:	d019      	beq.n	db6ae <__aeabi_dmul+0x24a>
   db67a:	ea94 0f0c 	teq	r4, ip
   db67e:	d102      	bne.n	db686 <__aeabi_dmul+0x222>
   db680:	ea50 3601 	orrs.w	r6, r0, r1, lsl #12
   db684:	d113      	bne.n	db6ae <__aeabi_dmul+0x24a>
   db686:	ea95 0f0c 	teq	r5, ip
   db68a:	d105      	bne.n	db698 <__aeabi_dmul+0x234>
   db68c:	ea52 3603 	orrs.w	r6, r2, r3, lsl #12
   db690:	bf1c      	itt	ne
   db692:	4610      	movne	r0, r2
   db694:	4619      	movne	r1, r3
   db696:	d10a      	bne.n	db6ae <__aeabi_dmul+0x24a>
   db698:	ea81 0103 	eor.w	r1, r1, r3
   db69c:	f001 4100 	and.w	r1, r1, #2147483648	; 0x80000000
   db6a0:	f041 41fe 	orr.w	r1, r1, #2130706432	; 0x7f000000
   db6a4:	f441 0170 	orr.w	r1, r1, #15728640	; 0xf00000
   db6a8:	f04f 0000 	mov.w	r0, #0
   db6ac:	bd70      	pop	{r4, r5, r6, pc}
   db6ae:	f041 41fe 	orr.w	r1, r1, #2130706432	; 0x7f000000
   db6b2:	f441 0178 	orr.w	r1, r1, #16252928	; 0xf80000
   db6b6:	bd70      	pop	{r4, r5, r6, pc}

000db6b8 <__aeabi_ddiv>:
   db6b8:	b570      	push	{r4, r5, r6, lr}
   db6ba:	f04f 0cff 	mov.w	ip, #255	; 0xff
   db6be:	f44c 6ce0 	orr.w	ip, ip, #1792	; 0x700
   db6c2:	ea1c 5411 	ands.w	r4, ip, r1, lsr #20
   db6c6:	bf1d      	ittte	ne
   db6c8:	ea1c 5513 	andsne.w	r5, ip, r3, lsr #20
   db6cc:	ea94 0f0c 	teqne	r4, ip
   db6d0:	ea95 0f0c 	teqne	r5, ip
   db6d4:	f000 f8a7 	bleq	db826 <__aeabi_ddiv+0x16e>
   db6d8:	eba4 0405 	sub.w	r4, r4, r5
   db6dc:	ea81 0e03 	eor.w	lr, r1, r3
   db6e0:	ea52 3503 	orrs.w	r5, r2, r3, lsl #12
   db6e4:	ea4f 3101 	mov.w	r1, r1, lsl #12
   db6e8:	f000 8088 	beq.w	db7fc <__aeabi_ddiv+0x144>
   db6ec:	ea4f 3303 	mov.w	r3, r3, lsl #12
   db6f0:	f04f 5580 	mov.w	r5, #268435456	; 0x10000000
   db6f4:	ea45 1313 	orr.w	r3, r5, r3, lsr #4
   db6f8:	ea43 6312 	orr.w	r3, r3, r2, lsr #24
   db6fc:	ea4f 2202 	mov.w	r2, r2, lsl #8
   db700:	ea45 1511 	orr.w	r5, r5, r1, lsr #4
   db704:	ea45 6510 	orr.w	r5, r5, r0, lsr #24
   db708:	ea4f 2600 	mov.w	r6, r0, lsl #8
   db70c:	f00e 4100 	and.w	r1, lr, #2147483648	; 0x80000000
   db710:	429d      	cmp	r5, r3
   db712:	bf08      	it	eq
   db714:	4296      	cmpeq	r6, r2
   db716:	f144 04fd 	adc.w	r4, r4, #253	; 0xfd
   db71a:	f504 7440 	add.w	r4, r4, #768	; 0x300
   db71e:	d202      	bcs.n	db726 <__aeabi_ddiv+0x6e>
   db720:	085b      	lsrs	r3, r3, #1
   db722:	ea4f 0232 	mov.w	r2, r2, rrx
   db726:	1ab6      	subs	r6, r6, r2
   db728:	eb65 0503 	sbc.w	r5, r5, r3
   db72c:	085b      	lsrs	r3, r3, #1
   db72e:	ea4f 0232 	mov.w	r2, r2, rrx
   db732:	f44f 1080 	mov.w	r0, #1048576	; 0x100000
   db736:	f44f 2c00 	mov.w	ip, #524288	; 0x80000
   db73a:	ebb6 0e02 	subs.w	lr, r6, r2
   db73e:	eb75 0e03 	sbcs.w	lr, r5, r3
   db742:	bf22      	ittt	cs
   db744:	1ab6      	subcs	r6, r6, r2
   db746:	4675      	movcs	r5, lr
   db748:	ea40 000c 	orrcs.w	r0, r0, ip
   db74c:	085b      	lsrs	r3, r3, #1
   db74e:	ea4f 0232 	mov.w	r2, r2, rrx
   db752:	ebb6 0e02 	subs.w	lr, r6, r2
   db756:	eb75 0e03 	sbcs.w	lr, r5, r3
   db75a:	bf22      	ittt	cs
   db75c:	1ab6      	subcs	r6, r6, r2
   db75e:	4675      	movcs	r5, lr
   db760:	ea40 005c 	orrcs.w	r0, r0, ip, lsr #1
   db764:	085b      	lsrs	r3, r3, #1
   db766:	ea4f 0232 	mov.w	r2, r2, rrx
   db76a:	ebb6 0e02 	subs.w	lr, r6, r2
   db76e:	eb75 0e03 	sbcs.w	lr, r5, r3
   db772:	bf22      	ittt	cs
   db774:	1ab6      	subcs	r6, r6, r2
   db776:	4675      	movcs	r5, lr
   db778:	ea40 009c 	orrcs.w	r0, r0, ip, lsr #2
   db77c:	085b      	lsrs	r3, r3, #1
   db77e:	ea4f 0232 	mov.w	r2, r2, rrx
   db782:	ebb6 0e02 	subs.w	lr, r6, r2
   db786:	eb75 0e03 	sbcs.w	lr, r5, r3
   db78a:	bf22      	ittt	cs
   db78c:	1ab6      	subcs	r6, r6, r2
   db78e:	4675      	movcs	r5, lr
   db790:	ea40 00dc 	orrcs.w	r0, r0, ip, lsr #3
   db794:	ea55 0e06 	orrs.w	lr, r5, r6
   db798:	d018      	beq.n	db7cc <__aeabi_ddiv+0x114>
   db79a:	ea4f 1505 	mov.w	r5, r5, lsl #4
   db79e:	ea45 7516 	orr.w	r5, r5, r6, lsr #28
   db7a2:	ea4f 1606 	mov.w	r6, r6, lsl #4
   db7a6:	ea4f 03c3 	mov.w	r3, r3, lsl #3
   db7aa:	ea43 7352 	orr.w	r3, r3, r2, lsr #29
   db7ae:	ea4f 02c2 	mov.w	r2, r2, lsl #3
   db7b2:	ea5f 1c1c 	movs.w	ip, ip, lsr #4
   db7b6:	d1c0      	bne.n	db73a <__aeabi_ddiv+0x82>
   db7b8:	f411 1f80 	tst.w	r1, #1048576	; 0x100000
   db7bc:	d10b      	bne.n	db7d6 <__aeabi_ddiv+0x11e>
   db7be:	ea41 0100 	orr.w	r1, r1, r0
   db7c2:	f04f 0000 	mov.w	r0, #0
   db7c6:	f04f 4c00 	mov.w	ip, #2147483648	; 0x80000000
   db7ca:	e7b6      	b.n	db73a <__aeabi_ddiv+0x82>
   db7cc:	f411 1f80 	tst.w	r1, #1048576	; 0x100000
   db7d0:	bf04      	itt	eq
   db7d2:	4301      	orreq	r1, r0
   db7d4:	2000      	moveq	r0, #0
   db7d6:	f1b4 0cfd 	subs.w	ip, r4, #253	; 0xfd
   db7da:	bf88      	it	hi
   db7dc:	f5bc 6fe0 	cmphi.w	ip, #1792	; 0x700
   db7e0:	f63f aeaf 	bhi.w	db542 <__aeabi_dmul+0xde>
   db7e4:	ebb5 0c03 	subs.w	ip, r5, r3
   db7e8:	bf04      	itt	eq
   db7ea:	ebb6 0c02 	subseq.w	ip, r6, r2
   db7ee:	ea5f 0c50 	movseq.w	ip, r0, lsr #1
   db7f2:	f150 0000 	adcs.w	r0, r0, #0
   db7f6:	eb41 5104 	adc.w	r1, r1, r4, lsl #20
   db7fa:	bd70      	pop	{r4, r5, r6, pc}
   db7fc:	f00e 4e00 	and.w	lr, lr, #2147483648	; 0x80000000
   db800:	ea4e 3111 	orr.w	r1, lr, r1, lsr #12
   db804:	eb14 045c 	adds.w	r4, r4, ip, lsr #1
   db808:	bfc2      	ittt	gt
   db80a:	ebd4 050c 	rsbsgt	r5, r4, ip
   db80e:	ea41 5104 	orrgt.w	r1, r1, r4, lsl #20
   db812:	bd70      	popgt	{r4, r5, r6, pc}
   db814:	f441 1180 	orr.w	r1, r1, #1048576	; 0x100000
   db818:	f04f 0e00 	mov.w	lr, #0
   db81c:	3c01      	subs	r4, #1
   db81e:	e690      	b.n	db542 <__aeabi_dmul+0xde>
   db820:	ea45 0e06 	orr.w	lr, r5, r6
   db824:	e68d      	b.n	db542 <__aeabi_dmul+0xde>
   db826:	ea0c 5513 	and.w	r5, ip, r3, lsr #20
   db82a:	ea94 0f0c 	teq	r4, ip
   db82e:	bf08      	it	eq
   db830:	ea95 0f0c 	teqeq	r5, ip
   db834:	f43f af3b 	beq.w	db6ae <__aeabi_dmul+0x24a>
   db838:	ea94 0f0c 	teq	r4, ip
   db83c:	d10a      	bne.n	db854 <__aeabi_ddiv+0x19c>
   db83e:	ea50 3401 	orrs.w	r4, r0, r1, lsl #12
   db842:	f47f af34 	bne.w	db6ae <__aeabi_dmul+0x24a>
   db846:	ea95 0f0c 	teq	r5, ip
   db84a:	f47f af25 	bne.w	db698 <__aeabi_dmul+0x234>
   db84e:	4610      	mov	r0, r2
   db850:	4619      	mov	r1, r3
   db852:	e72c      	b.n	db6ae <__aeabi_dmul+0x24a>
   db854:	ea95 0f0c 	teq	r5, ip
   db858:	d106      	bne.n	db868 <__aeabi_ddiv+0x1b0>
   db85a:	ea52 3503 	orrs.w	r5, r2, r3, lsl #12
   db85e:	f43f aefd 	beq.w	db65c <__aeabi_dmul+0x1f8>
   db862:	4610      	mov	r0, r2
   db864:	4619      	mov	r1, r3
   db866:	e722      	b.n	db6ae <__aeabi_dmul+0x24a>
   db868:	ea50 0641 	orrs.w	r6, r0, r1, lsl #1
   db86c:	bf18      	it	ne
   db86e:	ea52 0643 	orrsne.w	r6, r2, r3, lsl #1
   db872:	f47f aec5 	bne.w	db600 <__aeabi_dmul+0x19c>
   db876:	ea50 0441 	orrs.w	r4, r0, r1, lsl #1
   db87a:	f47f af0d 	bne.w	db698 <__aeabi_dmul+0x234>
   db87e:	ea52 0543 	orrs.w	r5, r2, r3, lsl #1
   db882:	f47f aeeb 	bne.w	db65c <__aeabi_dmul+0x1f8>
   db886:	e712      	b.n	db6ae <__aeabi_dmul+0x24a>

000db888 <__gedf2>:
   db888:	f04f 3cff 	mov.w	ip, #4294967295	; 0xffffffff
   db88c:	e006      	b.n	db89c <__cmpdf2+0x4>
   db88e:	bf00      	nop

000db890 <__ledf2>:
   db890:	f04f 0c01 	mov.w	ip, #1
   db894:	e002      	b.n	db89c <__cmpdf2+0x4>
   db896:	bf00      	nop

000db898 <__cmpdf2>:
   db898:	f04f 0c01 	mov.w	ip, #1
   db89c:	f84d cd04 	str.w	ip, [sp, #-4]!
   db8a0:	ea4f 0c41 	mov.w	ip, r1, lsl #1
   db8a4:	ea7f 5c6c 	mvns.w	ip, ip, asr #21
   db8a8:	ea4f 0c43 	mov.w	ip, r3, lsl #1
   db8ac:	bf18      	it	ne
   db8ae:	ea7f 5c6c 	mvnsne.w	ip, ip, asr #21
   db8b2:	d01b      	beq.n	db8ec <__cmpdf2+0x54>
   db8b4:	b001      	add	sp, #4
   db8b6:	ea50 0c41 	orrs.w	ip, r0, r1, lsl #1
   db8ba:	bf0c      	ite	eq
   db8bc:	ea52 0c43 	orrseq.w	ip, r2, r3, lsl #1
   db8c0:	ea91 0f03 	teqne	r1, r3
   db8c4:	bf02      	ittt	eq
   db8c6:	ea90 0f02 	teqeq	r0, r2
   db8ca:	2000      	moveq	r0, #0
   db8cc:	4770      	bxeq	lr
   db8ce:	f110 0f00 	cmn.w	r0, #0
   db8d2:	ea91 0f03 	teq	r1, r3
   db8d6:	bf58      	it	pl
   db8d8:	4299      	cmppl	r1, r3
   db8da:	bf08      	it	eq
   db8dc:	4290      	cmpeq	r0, r2
   db8de:	bf2c      	ite	cs
   db8e0:	17d8      	asrcs	r0, r3, #31
   db8e2:	ea6f 70e3 	mvncc.w	r0, r3, asr #31
   db8e6:	f040 0001 	orr.w	r0, r0, #1
   db8ea:	4770      	bx	lr
   db8ec:	ea4f 0c41 	mov.w	ip, r1, lsl #1
   db8f0:	ea7f 5c6c 	mvns.w	ip, ip, asr #21
   db8f4:	d102      	bne.n	db8fc <__cmpdf2+0x64>
   db8f6:	ea50 3c01 	orrs.w	ip, r0, r1, lsl #12
   db8fa:	d107      	bne.n	db90c <__cmpdf2+0x74>
   db8fc:	ea4f 0c43 	mov.w	ip, r3, lsl #1
   db900:	ea7f 5c6c 	mvns.w	ip, ip, asr #21
   db904:	d1d6      	bne.n	db8b4 <__cmpdf2+0x1c>
   db906:	ea52 3c03 	orrs.w	ip, r2, r3, lsl #12
   db90a:	d0d3      	beq.n	db8b4 <__cmpdf2+0x1c>
   db90c:	f85d 0b04 	ldr.w	r0, [sp], #4
   db910:	4770      	bx	lr
   db912:	bf00      	nop

000db914 <__aeabi_cdrcmple>:
   db914:	4684      	mov	ip, r0
   db916:	4610      	mov	r0, r2
   db918:	4662      	mov	r2, ip
   db91a:	468c      	mov	ip, r1
   db91c:	4619      	mov	r1, r3
   db91e:	4663      	mov	r3, ip
   db920:	e000      	b.n	db924 <__aeabi_cdcmpeq>
   db922:	bf00      	nop

000db924 <__aeabi_cdcmpeq>:
   db924:	b501      	push	{r0, lr}
   db926:	f7ff ffb7 	bl	db898 <__cmpdf2>
   db92a:	2800      	cmp	r0, #0
   db92c:	bf48      	it	mi
   db92e:	f110 0f00 	cmnmi.w	r0, #0
   db932:	bd01      	pop	{r0, pc}

000db934 <__aeabi_dcmpeq>:
   db934:	f84d ed08 	str.w	lr, [sp, #-8]!
   db938:	f7ff fff4 	bl	db924 <__aeabi_cdcmpeq>
   db93c:	bf0c      	ite	eq
   db93e:	2001      	moveq	r0, #1
   db940:	2000      	movne	r0, #0
   db942:	f85d fb08 	ldr.w	pc, [sp], #8
   db946:	bf00      	nop

000db948 <__aeabi_dcmplt>:
   db948:	f84d ed08 	str.w	lr, [sp, #-8]!
   db94c:	f7ff ffea 	bl	db924 <__aeabi_cdcmpeq>
   db950:	bf34      	ite	cc
   db952:	2001      	movcc	r0, #1
   db954:	2000      	movcs	r0, #0
   db956:	f85d fb08 	ldr.w	pc, [sp], #8
   db95a:	bf00      	nop

000db95c <__aeabi_dcmple>:
   db95c:	f84d ed08 	str.w	lr, [sp, #-8]!
   db960:	f7ff ffe0 	bl	db924 <__aeabi_cdcmpeq>
   db964:	bf94      	ite	ls
   db966:	2001      	movls	r0, #1
   db968:	2000      	movhi	r0, #0
   db96a:	f85d fb08 	ldr.w	pc, [sp], #8
   db96e:	bf00      	nop

000db970 <__aeabi_dcmpge>:
   db970:	f84d ed08 	str.w	lr, [sp, #-8]!
   db974:	f7ff ffce 	bl	db914 <__aeabi_cdrcmple>
   db978:	bf94      	ite	ls
   db97a:	2001      	movls	r0, #1
   db97c:	2000      	movhi	r0, #0
   db97e:	f85d fb08 	ldr.w	pc, [sp], #8
   db982:	bf00      	nop

000db984 <__aeabi_dcmpgt>:
   db984:	f84d ed08 	str.w	lr, [sp, #-8]!
   db988:	f7ff ffc4 	bl	db914 <__aeabi_cdrcmple>
   db98c:	bf34      	ite	cc
   db98e:	2001      	movcc	r0, #1
   db990:	2000      	movcs	r0, #0
   db992:	f85d fb08 	ldr.w	pc, [sp], #8
   db996:	bf00      	nop

000db998 <__aeabi_dcmpun>:
   db998:	ea4f 0c41 	mov.w	ip, r1, lsl #1
   db99c:	ea7f 5c6c 	mvns.w	ip, ip, asr #21
   db9a0:	d102      	bne.n	db9a8 <__aeabi_dcmpun+0x10>
   db9a2:	ea50 3c01 	orrs.w	ip, r0, r1, lsl #12
   db9a6:	d10a      	bne.n	db9be <__aeabi_dcmpun+0x26>
   db9a8:	ea4f 0c43 	mov.w	ip, r3, lsl #1
   db9ac:	ea7f 5c6c 	mvns.w	ip, ip, asr #21
   db9b0:	d102      	bne.n	db9b8 <__aeabi_dcmpun+0x20>
   db9b2:	ea52 3c03 	orrs.w	ip, r2, r3, lsl #12
   db9b6:	d102      	bne.n	db9be <__aeabi_dcmpun+0x26>
   db9b8:	f04f 0000 	mov.w	r0, #0
   db9bc:	4770      	bx	lr
   db9be:	f04f 0001 	mov.w	r0, #1
   db9c2:	4770      	bx	lr

000db9c4 <__aeabi_d2iz>:
   db9c4:	ea4f 0241 	mov.w	r2, r1, lsl #1
   db9c8:	f512 1200 	adds.w	r2, r2, #2097152	; 0x200000
   db9cc:	d215      	bcs.n	db9fa <__aeabi_d2iz+0x36>
   db9ce:	d511      	bpl.n	db9f4 <__aeabi_d2iz+0x30>
   db9d0:	f46f 7378 	mvn.w	r3, #992	; 0x3e0
   db9d4:	ebb3 5262 	subs.w	r2, r3, r2, asr #21
   db9d8:	d912      	bls.n	dba00 <__aeabi_d2iz+0x3c>
   db9da:	ea4f 23c1 	mov.w	r3, r1, lsl #11
   db9de:	f043 4300 	orr.w	r3, r3, #2147483648	; 0x80000000
   db9e2:	ea43 5350 	orr.w	r3, r3, r0, lsr #21
   db9e6:	f011 4f00 	tst.w	r1, #2147483648	; 0x80000000
   db9ea:	fa23 f002 	lsr.w	r0, r3, r2
   db9ee:	bf18      	it	ne
   db9f0:	4240      	negne	r0, r0
   db9f2:	4770      	bx	lr
   db9f4:	f04f 0000 	mov.w	r0, #0
   db9f8:	4770      	bx	lr
   db9fa:	ea50 3001 	orrs.w	r0, r0, r1, lsl #12
   db9fe:	d105      	bne.n	dba0c <__aeabi_d2iz+0x48>
   dba00:	f011 4000 	ands.w	r0, r1, #2147483648	; 0x80000000
   dba04:	bf08      	it	eq
   dba06:	f06f 4000 	mvneq.w	r0, #2147483648	; 0x80000000
   dba0a:	4770      	bx	lr
   dba0c:	f04f 0000 	mov.w	r0, #0
   dba10:	4770      	bx	lr
   dba12:	bf00      	nop

000dba14 <__aeabi_d2uiz>:
   dba14:	004a      	lsls	r2, r1, #1
   dba16:	d211      	bcs.n	dba3c <__aeabi_d2uiz+0x28>
   dba18:	f512 1200 	adds.w	r2, r2, #2097152	; 0x200000
   dba1c:	d211      	bcs.n	dba42 <__aeabi_d2uiz+0x2e>
   dba1e:	d50d      	bpl.n	dba3c <__aeabi_d2uiz+0x28>
   dba20:	f46f 7378 	mvn.w	r3, #992	; 0x3e0
   dba24:	ebb3 5262 	subs.w	r2, r3, r2, asr #21
   dba28:	d40e      	bmi.n	dba48 <__aeabi_d2uiz+0x34>
   dba2a:	ea4f 23c1 	mov.w	r3, r1, lsl #11
   dba2e:	f043 4300 	orr.w	r3, r3, #2147483648	; 0x80000000
   dba32:	ea43 5350 	orr.w	r3, r3, r0, lsr #21
   dba36:	fa23 f002 	lsr.w	r0, r3, r2
   dba3a:	4770      	bx	lr
   dba3c:	f04f 0000 	mov.w	r0, #0
   dba40:	4770      	bx	lr
   dba42:	ea50 3001 	orrs.w	r0, r0, r1, lsl #12
   dba46:	d102      	bne.n	dba4e <__aeabi_d2uiz+0x3a>
   dba48:	f04f 30ff 	mov.w	r0, #4294967295	; 0xffffffff
   dba4c:	4770      	bx	lr
   dba4e:	f04f 0000 	mov.w	r0, #0
   dba52:	4770      	bx	lr

000dba54 <__aeabi_d2f>:
   dba54:	ea4f 0241 	mov.w	r2, r1, lsl #1
   dba58:	f1b2 43e0 	subs.w	r3, r2, #1879048192	; 0x70000000
   dba5c:	bf24      	itt	cs
   dba5e:	f5b3 1c00 	subscs.w	ip, r3, #2097152	; 0x200000
   dba62:	f1dc 5cfe 	rsbscs	ip, ip, #532676608	; 0x1fc00000
   dba66:	d90d      	bls.n	dba84 <__aeabi_d2f+0x30>
   dba68:	f001 4c00 	and.w	ip, r1, #2147483648	; 0x80000000
   dba6c:	ea4f 02c0 	mov.w	r2, r0, lsl #3
   dba70:	ea4c 7050 	orr.w	r0, ip, r0, lsr #29
   dba74:	f1b2 4f00 	cmp.w	r2, #2147483648	; 0x80000000
   dba78:	eb40 0083 	adc.w	r0, r0, r3, lsl #2
   dba7c:	bf08      	it	eq
   dba7e:	f020 0001 	biceq.w	r0, r0, #1
   dba82:	4770      	bx	lr
   dba84:	f011 4f80 	tst.w	r1, #1073741824	; 0x40000000
   dba88:	d121      	bne.n	dbace <__aeabi_d2f+0x7a>
   dba8a:	f113 7238 	adds.w	r2, r3, #48234496	; 0x2e00000
   dba8e:	bfbc      	itt	lt
   dba90:	f001 4000 	andlt.w	r0, r1, #2147483648	; 0x80000000
   dba94:	4770      	bxlt	lr
   dba96:	f441 1180 	orr.w	r1, r1, #1048576	; 0x100000
   dba9a:	ea4f 5252 	mov.w	r2, r2, lsr #21
   dba9e:	f1c2 0218 	rsb	r2, r2, #24
   dbaa2:	f1c2 0c20 	rsb	ip, r2, #32
   dbaa6:	fa10 f30c 	lsls.w	r3, r0, ip
   dbaaa:	fa20 f002 	lsr.w	r0, r0, r2
   dbaae:	bf18      	it	ne
   dbab0:	f040 0001 	orrne.w	r0, r0, #1
   dbab4:	ea4f 23c1 	mov.w	r3, r1, lsl #11
   dbab8:	ea4f 23d3 	mov.w	r3, r3, lsr #11
   dbabc:	fa03 fc0c 	lsl.w	ip, r3, ip
   dbac0:	ea40 000c 	orr.w	r0, r0, ip
   dbac4:	fa23 f302 	lsr.w	r3, r3, r2
   dbac8:	ea4f 0343 	mov.w	r3, r3, lsl #1
   dbacc:	e7cc      	b.n	dba68 <__aeabi_d2f+0x14>
   dbace:	ea7f 5362 	mvns.w	r3, r2, asr #21
   dbad2:	d107      	bne.n	dbae4 <__aeabi_d2f+0x90>
   dbad4:	ea50 3301 	orrs.w	r3, r0, r1, lsl #12
   dbad8:	bf1e      	ittt	ne
   dbada:	f04f 40fe 	movne.w	r0, #2130706432	; 0x7f000000
   dbade:	f440 0040 	orrne.w	r0, r0, #12582912	; 0xc00000
   dbae2:	4770      	bxne	lr
   dbae4:	f001 4000 	and.w	r0, r1, #2147483648	; 0x80000000
   dbae8:	f040 40fe 	orr.w	r0, r0, #2130706432	; 0x7f000000
   dbaec:	f440 0000 	orr.w	r0, r0, #8388608	; 0x800000
   dbaf0:	4770      	bx	lr
   dbaf2:	bf00      	nop

000dbaf4 <__aeabi_f2lz>:
   dbaf4:	ee07 0a90 	vmov	s15, r0
   dbaf8:	eef5 7ac0 	vcmpe.f32	s15, #0.0
   dbafc:	eef1 fa10 	vmrs	APSR_nzcv, fpscr
   dbb00:	d401      	bmi.n	dbb06 <__aeabi_f2lz+0x12>
   dbb02:	f000 b80b 	b.w	dbb1c <__aeabi_f2ulz>
   dbb06:	eef1 7a67 	vneg.f32	s15, s15
   dbb0a:	b508      	push	{r3, lr}
   dbb0c:	ee17 0a90 	vmov	r0, s15
   dbb10:	f000 f804 	bl	dbb1c <__aeabi_f2ulz>
   dbb14:	4240      	negs	r0, r0
   dbb16:	eb61 0141 	sbc.w	r1, r1, r1, lsl #1
   dbb1a:	bd08      	pop	{r3, pc}

000dbb1c <__aeabi_f2ulz>:
   dbb1c:	b5d0      	push	{r4, r6, r7, lr}
   dbb1e:	f7ff fc49 	bl	db3b4 <__aeabi_f2d>
   dbb22:	4b0c      	ldr	r3, [pc, #48]	; (dbb54 <__aeabi_f2ulz+0x38>)
   dbb24:	2200      	movs	r2, #0
   dbb26:	4606      	mov	r6, r0
   dbb28:	460f      	mov	r7, r1
   dbb2a:	f7ff fc9b 	bl	db464 <__aeabi_dmul>
   dbb2e:	f7ff ff71 	bl	dba14 <__aeabi_d2uiz>
   dbb32:	4604      	mov	r4, r0
   dbb34:	f7ff fc1c 	bl	db370 <__aeabi_ui2d>
   dbb38:	4b07      	ldr	r3, [pc, #28]	; (dbb58 <__aeabi_f2ulz+0x3c>)
   dbb3a:	2200      	movs	r2, #0
   dbb3c:	f7ff fc92 	bl	db464 <__aeabi_dmul>
   dbb40:	4602      	mov	r2, r0
   dbb42:	460b      	mov	r3, r1
   dbb44:	4630      	mov	r0, r6
   dbb46:	4639      	mov	r1, r7
   dbb48:	f7ff fad4 	bl	db0f4 <__aeabi_dsub>
   dbb4c:	f7ff ff62 	bl	dba14 <__aeabi_d2uiz>
   dbb50:	4621      	mov	r1, r4
   dbb52:	bdd0      	pop	{r4, r6, r7, pc}
   dbb54:	3df00000 	.word	0x3df00000
   dbb58:	41f00000 	.word	0x41f00000

000dbb5c <__aeabi_d2ulz>:
   dbb5c:	b5d0      	push	{r4, r6, r7, lr}
   dbb5e:	4b0c      	ldr	r3, [pc, #48]	; (dbb90 <__aeabi_d2ulz+0x34>)
   dbb60:	2200      	movs	r2, #0
   dbb62:	4606      	mov	r6, r0
   dbb64:	460f      	mov	r7, r1
   dbb66:	f7ff fc7d 	bl	db464 <__aeabi_dmul>
   dbb6a:	f7ff ff53 	bl	dba14 <__aeabi_d2uiz>
   dbb6e:	4604      	mov	r4, r0
   dbb70:	f7ff fbfe 	bl	db370 <__aeabi_ui2d>
   dbb74:	4b07      	ldr	r3, [pc, #28]	; (dbb94 <__aeabi_d2ulz+0x38>)
   dbb76:	2200      	movs	r2, #0
   dbb78:	f7ff fc74 	bl	db464 <__aeabi_dmul>
   dbb7c:	4602      	mov	r2, r0
   dbb7e:	460b      	mov	r3, r1
   dbb80:	4630      	mov	r0, r6
   dbb82:	4639      	mov	r1, r7
   dbb84:	f7ff fab6 	bl	db0f4 <__aeabi_dsub>
   dbb88:	f7ff ff44 	bl	dba14 <__aeabi_d2uiz>
   dbb8c:	4621      	mov	r1, r4
   dbb8e:	bdd0      	pop	{r4, r6, r7, pc}
   dbb90:	3df00000 	.word	0x3df00000
   dbb94:	41f00000 	.word	0x41f00000

000dbb98 <asctime_r>:
   dbb98:	b510      	push	{r4, lr}
   dbb9a:	460c      	mov	r4, r1
   dbb9c:	6941      	ldr	r1, [r0, #20]
   dbb9e:	6903      	ldr	r3, [r0, #16]
   dbba0:	6982      	ldr	r2, [r0, #24]
   dbba2:	b086      	sub	sp, #24
   dbba4:	f201 716c 	addw	r1, r1, #1900	; 0x76c
   dbba8:	9104      	str	r1, [sp, #16]
   dbbaa:	6801      	ldr	r1, [r0, #0]
   dbbac:	9103      	str	r1, [sp, #12]
   dbbae:	6841      	ldr	r1, [r0, #4]
   dbbb0:	9102      	str	r1, [sp, #8]
   dbbb2:	6881      	ldr	r1, [r0, #8]
   dbbb4:	9101      	str	r1, [sp, #4]
   dbbb6:	68c1      	ldr	r1, [r0, #12]
   dbbb8:	9100      	str	r1, [sp, #0]
   dbbba:	4907      	ldr	r1, [pc, #28]	; (dbbd8 <asctime_r+0x40>)
   dbbbc:	eb03 0343 	add.w	r3, r3, r3, lsl #1
   dbbc0:	440b      	add	r3, r1
   dbbc2:	4906      	ldr	r1, [pc, #24]	; (dbbdc <asctime_r+0x44>)
   dbbc4:	eb02 0242 	add.w	r2, r2, r2, lsl #1
   dbbc8:	440a      	add	r2, r1
   dbbca:	4620      	mov	r0, r4
   dbbcc:	4904      	ldr	r1, [pc, #16]	; (dbbe0 <asctime_r+0x48>)
   dbbce:	f7fc f94d 	bl	d7e6c <siprintf>
   dbbd2:	4620      	mov	r0, r4
   dbbd4:	b006      	add	sp, #24
   dbbd6:	bd10      	pop	{r4, pc}
   dbbd8:	000dea0a 	.word	0x000dea0a
   dbbdc:	000de9f5 	.word	0x000de9f5
   dbbe0:	000de9d5 	.word	0x000de9d5

000dbbe4 <atoi>:
   dbbe4:	220a      	movs	r2, #10
   dbbe6:	2100      	movs	r1, #0
   dbbe8:	f000 bff8 	b.w	dcbdc <strtol>

000dbbec <__cxa_atexit>:
   dbbec:	b510      	push	{r4, lr}
   dbbee:	4c05      	ldr	r4, [pc, #20]	; (dbc04 <__cxa_atexit+0x18>)
   dbbf0:	4613      	mov	r3, r2
   dbbf2:	b12c      	cbz	r4, dbc00 <__cxa_atexit+0x14>
   dbbf4:	460a      	mov	r2, r1
   dbbf6:	4601      	mov	r1, r0
   dbbf8:	2002      	movs	r0, #2
   dbbfa:	f3af 8000 	nop.w
   dbbfe:	bd10      	pop	{r4, pc}
   dbc00:	4620      	mov	r0, r4
   dbc02:	e7fc      	b.n	dbbfe <__cxa_atexit+0x12>
   dbc04:	00000000 	.word	0x00000000

000dbc08 <gmtime>:
   dbc08:	b538      	push	{r3, r4, r5, lr}
   dbc0a:	4b07      	ldr	r3, [pc, #28]	; (dbc28 <gmtime+0x20>)
   dbc0c:	681d      	ldr	r5, [r3, #0]
   dbc0e:	6beb      	ldr	r3, [r5, #60]	; 0x3c
   dbc10:	4604      	mov	r4, r0
   dbc12:	b91b      	cbnz	r3, dbc1c <gmtime+0x14>
   dbc14:	2024      	movs	r0, #36	; 0x24
   dbc16:	f7fc f911 	bl	d7e3c <malloc>
   dbc1a:	63e8      	str	r0, [r5, #60]	; 0x3c
   dbc1c:	6be9      	ldr	r1, [r5, #60]	; 0x3c
   dbc1e:	4620      	mov	r0, r4
   dbc20:	e8bd 4038 	ldmia.w	sp!, {r3, r4, r5, lr}
   dbc24:	f7fc b962 	b.w	d7eec <gmtime_r>
   dbc28:	2003e1e8 	.word	0x2003e1e8

000dbc2c <memcpy>:
   dbc2c:	440a      	add	r2, r1
   dbc2e:	4291      	cmp	r1, r2
   dbc30:	f100 33ff 	add.w	r3, r0, #4294967295	; 0xffffffff
   dbc34:	d100      	bne.n	dbc38 <memcpy+0xc>
   dbc36:	4770      	bx	lr
   dbc38:	b510      	push	{r4, lr}
   dbc3a:	f811 4b01 	ldrb.w	r4, [r1], #1
   dbc3e:	f803 4f01 	strb.w	r4, [r3, #1]!
   dbc42:	4291      	cmp	r1, r2
   dbc44:	d1f9      	bne.n	dbc3a <memcpy+0xe>
   dbc46:	bd10      	pop	{r4, pc}

000dbc48 <memmove>:
   dbc48:	4288      	cmp	r0, r1
   dbc4a:	b510      	push	{r4, lr}
   dbc4c:	eb01 0402 	add.w	r4, r1, r2
   dbc50:	d902      	bls.n	dbc58 <memmove+0x10>
   dbc52:	4284      	cmp	r4, r0
   dbc54:	4623      	mov	r3, r4
   dbc56:	d807      	bhi.n	dbc68 <memmove+0x20>
   dbc58:	1e43      	subs	r3, r0, #1
   dbc5a:	42a1      	cmp	r1, r4
   dbc5c:	d008      	beq.n	dbc70 <memmove+0x28>
   dbc5e:	f811 2b01 	ldrb.w	r2, [r1], #1
   dbc62:	f803 2f01 	strb.w	r2, [r3, #1]!
   dbc66:	e7f8      	b.n	dbc5a <memmove+0x12>
   dbc68:	4402      	add	r2, r0
   dbc6a:	4601      	mov	r1, r0
   dbc6c:	428a      	cmp	r2, r1
   dbc6e:	d100      	bne.n	dbc72 <memmove+0x2a>
   dbc70:	bd10      	pop	{r4, pc}
   dbc72:	f813 4d01 	ldrb.w	r4, [r3, #-1]!
   dbc76:	f802 4d01 	strb.w	r4, [r2, #-1]!
   dbc7a:	e7f7      	b.n	dbc6c <memmove+0x24>

000dbc7c <memset>:
   dbc7c:	4402      	add	r2, r0
   dbc7e:	4603      	mov	r3, r0
   dbc80:	4293      	cmp	r3, r2
   dbc82:	d100      	bne.n	dbc86 <memset+0xa>
   dbc84:	4770      	bx	lr
   dbc86:	f803 1b01 	strb.w	r1, [r3], #1
   dbc8a:	e7f9      	b.n	dbc80 <memset+0x4>

000dbc8c <srand>:
   dbc8c:	b538      	push	{r3, r4, r5, lr}
   dbc8e:	4b0d      	ldr	r3, [pc, #52]	; (dbcc4 <srand+0x38>)
   dbc90:	681d      	ldr	r5, [r3, #0]
   dbc92:	6bab      	ldr	r3, [r5, #56]	; 0x38
   dbc94:	4604      	mov	r4, r0
   dbc96:	b97b      	cbnz	r3, dbcb8 <srand+0x2c>
   dbc98:	2018      	movs	r0, #24
   dbc9a:	f7fc f8cf 	bl	d7e3c <malloc>
   dbc9e:	4a0a      	ldr	r2, [pc, #40]	; (dbcc8 <srand+0x3c>)
   dbca0:	4b0a      	ldr	r3, [pc, #40]	; (dbccc <srand+0x40>)
   dbca2:	63a8      	str	r0, [r5, #56]	; 0x38
   dbca4:	e9c0 2300 	strd	r2, r3, [r0]
   dbca8:	4b09      	ldr	r3, [pc, #36]	; (dbcd0 <srand+0x44>)
   dbcaa:	6083      	str	r3, [r0, #8]
   dbcac:	230b      	movs	r3, #11
   dbcae:	8183      	strh	r3, [r0, #12]
   dbcb0:	2201      	movs	r2, #1
   dbcb2:	2300      	movs	r3, #0
   dbcb4:	e9c0 2304 	strd	r2, r3, [r0, #16]
   dbcb8:	6bab      	ldr	r3, [r5, #56]	; 0x38
   dbcba:	2200      	movs	r2, #0
   dbcbc:	611c      	str	r4, [r3, #16]
   dbcbe:	615a      	str	r2, [r3, #20]
   dbcc0:	bd38      	pop	{r3, r4, r5, pc}
   dbcc2:	bf00      	nop
   dbcc4:	2003e1e8 	.word	0x2003e1e8
   dbcc8:	abcd330e 	.word	0xabcd330e
   dbccc:	e66d1234 	.word	0xe66d1234
   dbcd0:	0005deec 	.word	0x0005deec

000dbcd4 <strchr>:
   dbcd4:	b2c9      	uxtb	r1, r1
   dbcd6:	4603      	mov	r3, r0
   dbcd8:	f810 2b01 	ldrb.w	r2, [r0], #1
   dbcdc:	b11a      	cbz	r2, dbce6 <strchr+0x12>
   dbcde:	428a      	cmp	r2, r1
   dbce0:	d1f9      	bne.n	dbcd6 <strchr+0x2>
   dbce2:	4618      	mov	r0, r3
   dbce4:	4770      	bx	lr
   dbce6:	2900      	cmp	r1, #0
   dbce8:	bf18      	it	ne
   dbcea:	2300      	movne	r3, #0
   dbcec:	e7f9      	b.n	dbce2 <strchr+0xe>

000dbcee <strchrnul>:
   dbcee:	b510      	push	{r4, lr}
   dbcf0:	4604      	mov	r4, r0
   dbcf2:	f7ff ffef 	bl	dbcd4 <strchr>
   dbcf6:	b918      	cbnz	r0, dbd00 <strchrnul+0x12>
   dbcf8:	4620      	mov	r0, r4
   dbcfa:	f000 f832 	bl	dbd62 <strlen>
   dbcfe:	4420      	add	r0, r4
   dbd00:	bd10      	pop	{r4, pc}

000dbd02 <strcmp>:
   dbd02:	f810 2b01 	ldrb.w	r2, [r0], #1
   dbd06:	f811 3b01 	ldrb.w	r3, [r1], #1
   dbd0a:	2a01      	cmp	r2, #1
   dbd0c:	bf28      	it	cs
   dbd0e:	429a      	cmpcs	r2, r3
   dbd10:	d0f7      	beq.n	dbd02 <strcmp>
   dbd12:	1ad0      	subs	r0, r2, r3
   dbd14:	4770      	bx	lr

000dbd16 <strcpy>:
   dbd16:	4603      	mov	r3, r0
   dbd18:	f811 2b01 	ldrb.w	r2, [r1], #1
   dbd1c:	f803 2b01 	strb.w	r2, [r3], #1
   dbd20:	2a00      	cmp	r2, #0
   dbd22:	d1f9      	bne.n	dbd18 <strcpy+0x2>
   dbd24:	4770      	bx	lr
	...

000dbd28 <strdup>:
   dbd28:	4b02      	ldr	r3, [pc, #8]	; (dbd34 <strdup+0xc>)
   dbd2a:	4601      	mov	r1, r0
   dbd2c:	6818      	ldr	r0, [r3, #0]
   dbd2e:	f000 b803 	b.w	dbd38 <_strdup_r>
   dbd32:	bf00      	nop
   dbd34:	2003e1e8 	.word	0x2003e1e8

000dbd38 <_strdup_r>:
   dbd38:	b537      	push	{r0, r1, r2, r4, r5, lr}
   dbd3a:	4604      	mov	r4, r0
   dbd3c:	4608      	mov	r0, r1
   dbd3e:	460d      	mov	r5, r1
   dbd40:	f000 f80f 	bl	dbd62 <strlen>
   dbd44:	1c42      	adds	r2, r0, #1
   dbd46:	4611      	mov	r1, r2
   dbd48:	4620      	mov	r0, r4
   dbd4a:	9201      	str	r2, [sp, #4]
   dbd4c:	f7fc f8ae 	bl	d7eac <_malloc_r>
   dbd50:	4604      	mov	r4, r0
   dbd52:	b118      	cbz	r0, dbd5c <_strdup_r+0x24>
   dbd54:	9a01      	ldr	r2, [sp, #4]
   dbd56:	4629      	mov	r1, r5
   dbd58:	f7ff ff68 	bl	dbc2c <memcpy>
   dbd5c:	4620      	mov	r0, r4
   dbd5e:	b003      	add	sp, #12
   dbd60:	bd30      	pop	{r4, r5, pc}

000dbd62 <strlen>:
   dbd62:	4603      	mov	r3, r0
   dbd64:	f813 2b01 	ldrb.w	r2, [r3], #1
   dbd68:	2a00      	cmp	r2, #0
   dbd6a:	d1fb      	bne.n	dbd64 <strlen+0x2>
   dbd6c:	1a18      	subs	r0, r3, r0
   dbd6e:	3801      	subs	r0, #1
   dbd70:	4770      	bx	lr

000dbd72 <strncmp>:
   dbd72:	b510      	push	{r4, lr}
   dbd74:	b16a      	cbz	r2, dbd92 <strncmp+0x20>
   dbd76:	3901      	subs	r1, #1
   dbd78:	1884      	adds	r4, r0, r2
   dbd7a:	f810 3b01 	ldrb.w	r3, [r0], #1
   dbd7e:	f811 2f01 	ldrb.w	r2, [r1, #1]!
   dbd82:	4293      	cmp	r3, r2
   dbd84:	d103      	bne.n	dbd8e <strncmp+0x1c>
   dbd86:	42a0      	cmp	r0, r4
   dbd88:	d001      	beq.n	dbd8e <strncmp+0x1c>
   dbd8a:	2b00      	cmp	r3, #0
   dbd8c:	d1f5      	bne.n	dbd7a <strncmp+0x8>
   dbd8e:	1a98      	subs	r0, r3, r2
   dbd90:	bd10      	pop	{r4, pc}
   dbd92:	4610      	mov	r0, r2
   dbd94:	e7fc      	b.n	dbd90 <strncmp+0x1e>

000dbd96 <strncpy>:
   dbd96:	b510      	push	{r4, lr}
   dbd98:	3901      	subs	r1, #1
   dbd9a:	4603      	mov	r3, r0
   dbd9c:	b132      	cbz	r2, dbdac <strncpy+0x16>
   dbd9e:	f811 4f01 	ldrb.w	r4, [r1, #1]!
   dbda2:	f803 4b01 	strb.w	r4, [r3], #1
   dbda6:	3a01      	subs	r2, #1
   dbda8:	2c00      	cmp	r4, #0
   dbdaa:	d1f7      	bne.n	dbd9c <strncpy+0x6>
   dbdac:	441a      	add	r2, r3
   dbdae:	2100      	movs	r1, #0
   dbdb0:	4293      	cmp	r3, r2
   dbdb2:	d100      	bne.n	dbdb6 <strncpy+0x20>
   dbdb4:	bd10      	pop	{r4, pc}
   dbdb6:	f803 1b01 	strb.w	r1, [r3], #1
   dbdba:	e7f9      	b.n	dbdb0 <strncpy+0x1a>

000dbdbc <strrchr>:
   dbdbc:	b538      	push	{r3, r4, r5, lr}
   dbdbe:	4603      	mov	r3, r0
   dbdc0:	460c      	mov	r4, r1
   dbdc2:	b969      	cbnz	r1, dbde0 <strrchr+0x24>
   dbdc4:	e8bd 4038 	ldmia.w	sp!, {r3, r4, r5, lr}
   dbdc8:	f7ff bf84 	b.w	dbcd4 <strchr>
   dbdcc:	1c43      	adds	r3, r0, #1
   dbdce:	4605      	mov	r5, r0
   dbdd0:	4621      	mov	r1, r4
   dbdd2:	4618      	mov	r0, r3
   dbdd4:	f7ff ff7e 	bl	dbcd4 <strchr>
   dbdd8:	2800      	cmp	r0, #0
   dbdda:	d1f7      	bne.n	dbdcc <strrchr+0x10>
   dbddc:	4628      	mov	r0, r5
   dbdde:	bd38      	pop	{r3, r4, r5, pc}
   dbde0:	2500      	movs	r5, #0
   dbde2:	e7f5      	b.n	dbdd0 <strrchr+0x14>

000dbde4 <sulp>:
   dbde4:	b570      	push	{r4, r5, r6, lr}
   dbde6:	4604      	mov	r4, r0
   dbde8:	460d      	mov	r5, r1
   dbdea:	ec45 4b10 	vmov	d0, r4, r5
   dbdee:	4616      	mov	r6, r2
   dbdf0:	f001 fd6a 	bl	dd8c8 <__ulp>
   dbdf4:	ec51 0b10 	vmov	r0, r1, d0
   dbdf8:	b17e      	cbz	r6, dbe1a <sulp+0x36>
   dbdfa:	f3c5 530a 	ubfx	r3, r5, #20, #11
   dbdfe:	f1c3 036b 	rsb	r3, r3, #107	; 0x6b
   dbe02:	2b00      	cmp	r3, #0
   dbe04:	dd09      	ble.n	dbe1a <sulp+0x36>
   dbe06:	051b      	lsls	r3, r3, #20
   dbe08:	f103 557f 	add.w	r5, r3, #1069547520	; 0x3fc00000
   dbe0c:	2400      	movs	r4, #0
   dbe0e:	f505 1540 	add.w	r5, r5, #3145728	; 0x300000
   dbe12:	4622      	mov	r2, r4
   dbe14:	462b      	mov	r3, r5
   dbe16:	f7ff fb25 	bl	db464 <__aeabi_dmul>
   dbe1a:	bd70      	pop	{r4, r5, r6, pc}
   dbe1c:	0000      	movs	r0, r0
	...

000dbe20 <_strtod_l>:
   dbe20:	e92d 4ff0 	stmdb	sp!, {r4, r5, r6, r7, r8, r9, sl, fp, lr}
   dbe24:	b0a3      	sub	sp, #140	; 0x8c
   dbe26:	461f      	mov	r7, r3
   dbe28:	2300      	movs	r3, #0
   dbe2a:	931e      	str	r3, [sp, #120]	; 0x78
   dbe2c:	4ba4      	ldr	r3, [pc, #656]	; (dc0c0 <_strtod_l+0x2a0>)
   dbe2e:	9219      	str	r2, [sp, #100]	; 0x64
   dbe30:	681b      	ldr	r3, [r3, #0]
   dbe32:	9307      	str	r3, [sp, #28]
   dbe34:	4604      	mov	r4, r0
   dbe36:	4618      	mov	r0, r3
   dbe38:	4688      	mov	r8, r1
   dbe3a:	f7ff ff92 	bl	dbd62 <strlen>
   dbe3e:	f04f 0a00 	mov.w	sl, #0
   dbe42:	4605      	mov	r5, r0
   dbe44:	f04f 0b00 	mov.w	fp, #0
   dbe48:	f8cd 8074 	str.w	r8, [sp, #116]	; 0x74
   dbe4c:	9b1d      	ldr	r3, [sp, #116]	; 0x74
   dbe4e:	781a      	ldrb	r2, [r3, #0]
   dbe50:	2a2b      	cmp	r2, #43	; 0x2b
   dbe52:	d04c      	beq.n	dbeee <_strtod_l+0xce>
   dbe54:	d839      	bhi.n	dbeca <_strtod_l+0xaa>
   dbe56:	2a0d      	cmp	r2, #13
   dbe58:	d832      	bhi.n	dbec0 <_strtod_l+0xa0>
   dbe5a:	2a08      	cmp	r2, #8
   dbe5c:	d832      	bhi.n	dbec4 <_strtod_l+0xa4>
   dbe5e:	2a00      	cmp	r2, #0
   dbe60:	d03c      	beq.n	dbedc <_strtod_l+0xbc>
   dbe62:	2300      	movs	r3, #0
   dbe64:	930e      	str	r3, [sp, #56]	; 0x38
   dbe66:	9e1d      	ldr	r6, [sp, #116]	; 0x74
   dbe68:	7833      	ldrb	r3, [r6, #0]
   dbe6a:	2b30      	cmp	r3, #48	; 0x30
   dbe6c:	f040 80b4 	bne.w	dbfd8 <_strtod_l+0x1b8>
   dbe70:	7873      	ldrb	r3, [r6, #1]
   dbe72:	f003 03df 	and.w	r3, r3, #223	; 0xdf
   dbe76:	2b58      	cmp	r3, #88	; 0x58
   dbe78:	d16c      	bne.n	dbf54 <_strtod_l+0x134>
   dbe7a:	9b0e      	ldr	r3, [sp, #56]	; 0x38
   dbe7c:	9301      	str	r3, [sp, #4]
   dbe7e:	ab1e      	add	r3, sp, #120	; 0x78
   dbe80:	9702      	str	r7, [sp, #8]
   dbe82:	9300      	str	r3, [sp, #0]
   dbe84:	4a8f      	ldr	r2, [pc, #572]	; (dc0c4 <_strtod_l+0x2a4>)
   dbe86:	ab1f      	add	r3, sp, #124	; 0x7c
   dbe88:	a91d      	add	r1, sp, #116	; 0x74
   dbe8a:	4620      	mov	r0, r4
   dbe8c:	f000 ff18 	bl	dccc0 <__gethex>
   dbe90:	f010 0707 	ands.w	r7, r0, #7
   dbe94:	4605      	mov	r5, r0
   dbe96:	d005      	beq.n	dbea4 <_strtod_l+0x84>
   dbe98:	2f06      	cmp	r7, #6
   dbe9a:	d12a      	bne.n	dbef2 <_strtod_l+0xd2>
   dbe9c:	3601      	adds	r6, #1
   dbe9e:	2300      	movs	r3, #0
   dbea0:	961d      	str	r6, [sp, #116]	; 0x74
   dbea2:	930e      	str	r3, [sp, #56]	; 0x38
   dbea4:	9b19      	ldr	r3, [sp, #100]	; 0x64
   dbea6:	2b00      	cmp	r3, #0
   dbea8:	f040 8596 	bne.w	dc9d8 <_strtod_l+0xbb8>
   dbeac:	9b0e      	ldr	r3, [sp, #56]	; 0x38
   dbeae:	b1db      	cbz	r3, dbee8 <_strtod_l+0xc8>
   dbeb0:	4652      	mov	r2, sl
   dbeb2:	f10b 4300 	add.w	r3, fp, #2147483648	; 0x80000000
   dbeb6:	ec43 2b10 	vmov	d0, r2, r3
   dbeba:	b023      	add	sp, #140	; 0x8c
   dbebc:	e8bd 8ff0 	ldmia.w	sp!, {r4, r5, r6, r7, r8, r9, sl, fp, pc}
   dbec0:	2a20      	cmp	r2, #32
   dbec2:	d1ce      	bne.n	dbe62 <_strtod_l+0x42>
   dbec4:	3301      	adds	r3, #1
   dbec6:	931d      	str	r3, [sp, #116]	; 0x74
   dbec8:	e7c0      	b.n	dbe4c <_strtod_l+0x2c>
   dbeca:	2a2d      	cmp	r2, #45	; 0x2d
   dbecc:	d1c9      	bne.n	dbe62 <_strtod_l+0x42>
   dbece:	2201      	movs	r2, #1
   dbed0:	920e      	str	r2, [sp, #56]	; 0x38
   dbed2:	1c5a      	adds	r2, r3, #1
   dbed4:	921d      	str	r2, [sp, #116]	; 0x74
   dbed6:	785b      	ldrb	r3, [r3, #1]
   dbed8:	2b00      	cmp	r3, #0
   dbeda:	d1c4      	bne.n	dbe66 <_strtod_l+0x46>
   dbedc:	9b19      	ldr	r3, [sp, #100]	; 0x64
   dbede:	f8cd 8074 	str.w	r8, [sp, #116]	; 0x74
   dbee2:	2b00      	cmp	r3, #0
   dbee4:	f040 8576 	bne.w	dc9d4 <_strtod_l+0xbb4>
   dbee8:	4652      	mov	r2, sl
   dbeea:	465b      	mov	r3, fp
   dbeec:	e7e3      	b.n	dbeb6 <_strtod_l+0x96>
   dbeee:	2200      	movs	r2, #0
   dbef0:	e7ee      	b.n	dbed0 <_strtod_l+0xb0>
   dbef2:	9a1e      	ldr	r2, [sp, #120]	; 0x78
   dbef4:	b13a      	cbz	r2, dbf06 <_strtod_l+0xe6>
   dbef6:	2135      	movs	r1, #53	; 0x35
   dbef8:	a820      	add	r0, sp, #128	; 0x80
   dbefa:	f001 fde4 	bl	ddac6 <__copybits>
   dbefe:	991e      	ldr	r1, [sp, #120]	; 0x78
   dbf00:	4620      	mov	r0, r4
   dbf02:	f001 fa19 	bl	dd338 <_Bfree>
   dbf06:	3f01      	subs	r7, #1
   dbf08:	2f05      	cmp	r7, #5
   dbf0a:	d807      	bhi.n	dbf1c <_strtod_l+0xfc>
   dbf0c:	e8df f007 	tbb	[pc, r7]
   dbf10:	1d180b0e 	.word	0x1d180b0e
   dbf14:	030e      	.short	0x030e
   dbf16:	f04f 0b00 	mov.w	fp, #0
   dbf1a:	46da      	mov	sl, fp
   dbf1c:	0728      	lsls	r0, r5, #28
   dbf1e:	d5c1      	bpl.n	dbea4 <_strtod_l+0x84>
   dbf20:	f04b 4b00 	orr.w	fp, fp, #2147483648	; 0x80000000
   dbf24:	e7be      	b.n	dbea4 <_strtod_l+0x84>
   dbf26:	e9dd ab20 	ldrd	sl, fp, [sp, #128]	; 0x80
   dbf2a:	e7f7      	b.n	dbf1c <_strtod_l+0xfc>
   dbf2c:	e9dd a320 	ldrd	sl, r3, [sp, #128]	; 0x80
   dbf30:	9a1f      	ldr	r2, [sp, #124]	; 0x7c
   dbf32:	f423 1380 	bic.w	r3, r3, #1048576	; 0x100000
   dbf36:	f202 4233 	addw	r2, r2, #1075	; 0x433
   dbf3a:	ea43 5b02 	orr.w	fp, r3, r2, lsl #20
   dbf3e:	e7ed      	b.n	dbf1c <_strtod_l+0xfc>
   dbf40:	f8df b184 	ldr.w	fp, [pc, #388]	; dc0c8 <_strtod_l+0x2a8>
   dbf44:	f04f 0a00 	mov.w	sl, #0
   dbf48:	e7e8      	b.n	dbf1c <_strtod_l+0xfc>
   dbf4a:	f06f 4b00 	mvn.w	fp, #2147483648	; 0x80000000
   dbf4e:	f04f 3aff 	mov.w	sl, #4294967295	; 0xffffffff
   dbf52:	e7e3      	b.n	dbf1c <_strtod_l+0xfc>
   dbf54:	9b1d      	ldr	r3, [sp, #116]	; 0x74
   dbf56:	1c5a      	adds	r2, r3, #1
   dbf58:	921d      	str	r2, [sp, #116]	; 0x74
   dbf5a:	785b      	ldrb	r3, [r3, #1]
   dbf5c:	2b30      	cmp	r3, #48	; 0x30
   dbf5e:	d0f9      	beq.n	dbf54 <_strtod_l+0x134>
   dbf60:	2b00      	cmp	r3, #0
   dbf62:	d09f      	beq.n	dbea4 <_strtod_l+0x84>
   dbf64:	2301      	movs	r3, #1
   dbf66:	f04f 0900 	mov.w	r9, #0
   dbf6a:	9304      	str	r3, [sp, #16]
   dbf6c:	9b1d      	ldr	r3, [sp, #116]	; 0x74
   dbf6e:	930a      	str	r3, [sp, #40]	; 0x28
   dbf70:	f8cd 9024 	str.w	r9, [sp, #36]	; 0x24
   dbf74:	464f      	mov	r7, r9
   dbf76:	220a      	movs	r2, #10
   dbf78:	981d      	ldr	r0, [sp, #116]	; 0x74
   dbf7a:	7806      	ldrb	r6, [r0, #0]
   dbf7c:	f1a6 0330 	sub.w	r3, r6, #48	; 0x30
   dbf80:	b2d9      	uxtb	r1, r3
   dbf82:	2909      	cmp	r1, #9
   dbf84:	d92a      	bls.n	dbfdc <_strtod_l+0x1bc>
   dbf86:	9907      	ldr	r1, [sp, #28]
   dbf88:	462a      	mov	r2, r5
   dbf8a:	f7ff fef2 	bl	dbd72 <strncmp>
   dbf8e:	b398      	cbz	r0, dbff8 <_strtod_l+0x1d8>
   dbf90:	2000      	movs	r0, #0
   dbf92:	4633      	mov	r3, r6
   dbf94:	463d      	mov	r5, r7
   dbf96:	9007      	str	r0, [sp, #28]
   dbf98:	4602      	mov	r2, r0
   dbf9a:	2b65      	cmp	r3, #101	; 0x65
   dbf9c:	d001      	beq.n	dbfa2 <_strtod_l+0x182>
   dbf9e:	2b45      	cmp	r3, #69	; 0x45
   dbfa0:	d118      	bne.n	dbfd4 <_strtod_l+0x1b4>
   dbfa2:	b91d      	cbnz	r5, dbfac <_strtod_l+0x18c>
   dbfa4:	9b04      	ldr	r3, [sp, #16]
   dbfa6:	4303      	orrs	r3, r0
   dbfa8:	d098      	beq.n	dbedc <_strtod_l+0xbc>
   dbfaa:	2500      	movs	r5, #0
   dbfac:	f8dd 8074 	ldr.w	r8, [sp, #116]	; 0x74
   dbfb0:	f108 0301 	add.w	r3, r8, #1
   dbfb4:	931d      	str	r3, [sp, #116]	; 0x74
   dbfb6:	f898 3001 	ldrb.w	r3, [r8, #1]
   dbfba:	2b2b      	cmp	r3, #43	; 0x2b
   dbfbc:	d075      	beq.n	dc0aa <_strtod_l+0x28a>
   dbfbe:	2b2d      	cmp	r3, #45	; 0x2d
   dbfc0:	d07b      	beq.n	dc0ba <_strtod_l+0x29a>
   dbfc2:	f04f 0c00 	mov.w	ip, #0
   dbfc6:	f1a3 0130 	sub.w	r1, r3, #48	; 0x30
   dbfca:	2909      	cmp	r1, #9
   dbfcc:	f240 8082 	bls.w	dc0d4 <_strtod_l+0x2b4>
   dbfd0:	f8cd 8074 	str.w	r8, [sp, #116]	; 0x74
   dbfd4:	2600      	movs	r6, #0
   dbfd6:	e09d      	b.n	dc114 <_strtod_l+0x2f4>
   dbfd8:	2300      	movs	r3, #0
   dbfda:	e7c4      	b.n	dbf66 <_strtod_l+0x146>
   dbfdc:	2f08      	cmp	r7, #8
   dbfde:	bfd8      	it	le
   dbfe0:	9909      	ldrle	r1, [sp, #36]	; 0x24
   dbfe2:	f100 0001 	add.w	r0, r0, #1
   dbfe6:	bfda      	itte	le
   dbfe8:	fb02 3301 	mlale	r3, r2, r1, r3
   dbfec:	9309      	strle	r3, [sp, #36]	; 0x24
   dbfee:	fb02 3909 	mlagt	r9, r2, r9, r3
   dbff2:	3701      	adds	r7, #1
   dbff4:	901d      	str	r0, [sp, #116]	; 0x74
   dbff6:	e7bf      	b.n	dbf78 <_strtod_l+0x158>
   dbff8:	9b1d      	ldr	r3, [sp, #116]	; 0x74
   dbffa:	195a      	adds	r2, r3, r5
   dbffc:	921d      	str	r2, [sp, #116]	; 0x74
   dbffe:	5d5b      	ldrb	r3, [r3, r5]
   dc000:	2f00      	cmp	r7, #0
   dc002:	d037      	beq.n	dc074 <_strtod_l+0x254>
   dc004:	9007      	str	r0, [sp, #28]
   dc006:	463d      	mov	r5, r7
   dc008:	f1a3 0230 	sub.w	r2, r3, #48	; 0x30
   dc00c:	2a09      	cmp	r2, #9
   dc00e:	d912      	bls.n	dc036 <_strtod_l+0x216>
   dc010:	2201      	movs	r2, #1
   dc012:	e7c2      	b.n	dbf9a <_strtod_l+0x17a>
   dc014:	9b1d      	ldr	r3, [sp, #116]	; 0x74
   dc016:	1c5a      	adds	r2, r3, #1
   dc018:	921d      	str	r2, [sp, #116]	; 0x74
   dc01a:	785b      	ldrb	r3, [r3, #1]
   dc01c:	3001      	adds	r0, #1
   dc01e:	2b30      	cmp	r3, #48	; 0x30
   dc020:	d0f8      	beq.n	dc014 <_strtod_l+0x1f4>
   dc022:	f1a3 0231 	sub.w	r2, r3, #49	; 0x31
   dc026:	2a08      	cmp	r2, #8
   dc028:	f200 84db 	bhi.w	dc9e2 <_strtod_l+0xbc2>
   dc02c:	9a1d      	ldr	r2, [sp, #116]	; 0x74
   dc02e:	9007      	str	r0, [sp, #28]
   dc030:	2000      	movs	r0, #0
   dc032:	920a      	str	r2, [sp, #40]	; 0x28
   dc034:	4605      	mov	r5, r0
   dc036:	3b30      	subs	r3, #48	; 0x30
   dc038:	f100 0201 	add.w	r2, r0, #1
   dc03c:	d014      	beq.n	dc068 <_strtod_l+0x248>
   dc03e:	9907      	ldr	r1, [sp, #28]
   dc040:	4411      	add	r1, r2
   dc042:	9107      	str	r1, [sp, #28]
   dc044:	462a      	mov	r2, r5
   dc046:	eb00 0e05 	add.w	lr, r0, r5
   dc04a:	210a      	movs	r1, #10
   dc04c:	4572      	cmp	r2, lr
   dc04e:	d113      	bne.n	dc078 <_strtod_l+0x258>
   dc050:	182a      	adds	r2, r5, r0
   dc052:	2a08      	cmp	r2, #8
   dc054:	f105 0501 	add.w	r5, r5, #1
   dc058:	4405      	add	r5, r0
   dc05a:	dc1c      	bgt.n	dc096 <_strtod_l+0x276>
   dc05c:	9909      	ldr	r1, [sp, #36]	; 0x24
   dc05e:	220a      	movs	r2, #10
   dc060:	fb02 3301 	mla	r3, r2, r1, r3
   dc064:	9309      	str	r3, [sp, #36]	; 0x24
   dc066:	2200      	movs	r2, #0
   dc068:	9b1d      	ldr	r3, [sp, #116]	; 0x74
   dc06a:	1c59      	adds	r1, r3, #1
   dc06c:	911d      	str	r1, [sp, #116]	; 0x74
   dc06e:	785b      	ldrb	r3, [r3, #1]
   dc070:	4610      	mov	r0, r2
   dc072:	e7c9      	b.n	dc008 <_strtod_l+0x1e8>
   dc074:	4638      	mov	r0, r7
   dc076:	e7d2      	b.n	dc01e <_strtod_l+0x1fe>
   dc078:	2a08      	cmp	r2, #8
   dc07a:	dc04      	bgt.n	dc086 <_strtod_l+0x266>
   dc07c:	9e09      	ldr	r6, [sp, #36]	; 0x24
   dc07e:	434e      	muls	r6, r1
   dc080:	9609      	str	r6, [sp, #36]	; 0x24
   dc082:	3201      	adds	r2, #1
   dc084:	e7e2      	b.n	dc04c <_strtod_l+0x22c>
   dc086:	f102 0c01 	add.w	ip, r2, #1
   dc08a:	f1bc 0f10 	cmp.w	ip, #16
   dc08e:	bfd8      	it	le
   dc090:	fb01 f909 	mulle.w	r9, r1, r9
   dc094:	e7f5      	b.n	dc082 <_strtod_l+0x262>
   dc096:	2d10      	cmp	r5, #16
   dc098:	bfdc      	itt	le
   dc09a:	220a      	movle	r2, #10
   dc09c:	fb02 3909 	mlale	r9, r2, r9, r3
   dc0a0:	e7e1      	b.n	dc066 <_strtod_l+0x246>
   dc0a2:	2300      	movs	r3, #0
   dc0a4:	9307      	str	r3, [sp, #28]
   dc0a6:	2201      	movs	r2, #1
   dc0a8:	e77c      	b.n	dbfa4 <_strtod_l+0x184>
   dc0aa:	f04f 0c00 	mov.w	ip, #0
   dc0ae:	f108 0302 	add.w	r3, r8, #2
   dc0b2:	931d      	str	r3, [sp, #116]	; 0x74
   dc0b4:	f898 3002 	ldrb.w	r3, [r8, #2]
   dc0b8:	e785      	b.n	dbfc6 <_strtod_l+0x1a6>
   dc0ba:	f04f 0c01 	mov.w	ip, #1
   dc0be:	e7f6      	b.n	dc0ae <_strtod_l+0x28e>
   dc0c0:	000deb94 	.word	0x000deb94
   dc0c4:	000dea3c 	.word	0x000dea3c
   dc0c8:	7ff00000 	.word	0x7ff00000
   dc0cc:	9b1d      	ldr	r3, [sp, #116]	; 0x74
   dc0ce:	1c59      	adds	r1, r3, #1
   dc0d0:	911d      	str	r1, [sp, #116]	; 0x74
   dc0d2:	785b      	ldrb	r3, [r3, #1]
   dc0d4:	2b30      	cmp	r3, #48	; 0x30
   dc0d6:	d0f9      	beq.n	dc0cc <_strtod_l+0x2ac>
   dc0d8:	f1a3 0131 	sub.w	r1, r3, #49	; 0x31
   dc0dc:	2908      	cmp	r1, #8
   dc0de:	f63f af79 	bhi.w	dbfd4 <_strtod_l+0x1b4>
   dc0e2:	f1a3 0e30 	sub.w	lr, r3, #48	; 0x30
   dc0e6:	9b1d      	ldr	r3, [sp, #116]	; 0x74
   dc0e8:	9308      	str	r3, [sp, #32]
   dc0ea:	9b1d      	ldr	r3, [sp, #116]	; 0x74
   dc0ec:	1c59      	adds	r1, r3, #1
   dc0ee:	911d      	str	r1, [sp, #116]	; 0x74
   dc0f0:	785b      	ldrb	r3, [r3, #1]
   dc0f2:	f1a3 0630 	sub.w	r6, r3, #48	; 0x30
   dc0f6:	2e09      	cmp	r6, #9
   dc0f8:	d937      	bls.n	dc16a <_strtod_l+0x34a>
   dc0fa:	9e08      	ldr	r6, [sp, #32]
   dc0fc:	1b89      	subs	r1, r1, r6
   dc0fe:	2908      	cmp	r1, #8
   dc100:	f644 661f 	movw	r6, #19999	; 0x4e1f
   dc104:	dc02      	bgt.n	dc10c <_strtod_l+0x2ec>
   dc106:	4576      	cmp	r6, lr
   dc108:	bfa8      	it	ge
   dc10a:	4676      	movge	r6, lr
   dc10c:	f1bc 0f00 	cmp.w	ip, #0
   dc110:	d000      	beq.n	dc114 <_strtod_l+0x2f4>
   dc112:	4276      	negs	r6, r6
   dc114:	2d00      	cmp	r5, #0
   dc116:	d14f      	bne.n	dc1b8 <_strtod_l+0x398>
   dc118:	9904      	ldr	r1, [sp, #16]
   dc11a:	4301      	orrs	r1, r0
   dc11c:	f47f aec2 	bne.w	dbea4 <_strtod_l+0x84>
   dc120:	2a00      	cmp	r2, #0
   dc122:	f47f aedb 	bne.w	dbedc <_strtod_l+0xbc>
   dc126:	2b69      	cmp	r3, #105	; 0x69
   dc128:	d027      	beq.n	dc17a <_strtod_l+0x35a>
   dc12a:	dc24      	bgt.n	dc176 <_strtod_l+0x356>
   dc12c:	2b49      	cmp	r3, #73	; 0x49
   dc12e:	d024      	beq.n	dc17a <_strtod_l+0x35a>
   dc130:	2b4e      	cmp	r3, #78	; 0x4e
   dc132:	f47f aed3 	bne.w	dbedc <_strtod_l+0xbc>
   dc136:	499e      	ldr	r1, [pc, #632]	; (dc3b0 <_strtod_l+0x590>)
   dc138:	a81d      	add	r0, sp, #116	; 0x74
   dc13a:	f001 f807 	bl	dd14c <__match>
   dc13e:	2800      	cmp	r0, #0
   dc140:	f43f aecc 	beq.w	dbedc <_strtod_l+0xbc>
   dc144:	9b1d      	ldr	r3, [sp, #116]	; 0x74
   dc146:	781b      	ldrb	r3, [r3, #0]
   dc148:	2b28      	cmp	r3, #40	; 0x28
   dc14a:	d12d      	bne.n	dc1a8 <_strtod_l+0x388>
   dc14c:	4999      	ldr	r1, [pc, #612]	; (dc3b4 <_strtod_l+0x594>)
   dc14e:	aa20      	add	r2, sp, #128	; 0x80
   dc150:	a81d      	add	r0, sp, #116	; 0x74
   dc152:	f001 f80f 	bl	dd174 <__hexnan>
   dc156:	2805      	cmp	r0, #5
   dc158:	d126      	bne.n	dc1a8 <_strtod_l+0x388>
   dc15a:	9b21      	ldr	r3, [sp, #132]	; 0x84
   dc15c:	f8dd a080 	ldr.w	sl, [sp, #128]	; 0x80
   dc160:	f043 4bff 	orr.w	fp, r3, #2139095040	; 0x7f800000
   dc164:	f44b 0be0 	orr.w	fp, fp, #7340032	; 0x700000
   dc168:	e69c      	b.n	dbea4 <_strtod_l+0x84>
   dc16a:	210a      	movs	r1, #10
   dc16c:	fb01 3e0e 	mla	lr, r1, lr, r3
   dc170:	f1ae 0e30 	sub.w	lr, lr, #48	; 0x30
   dc174:	e7b9      	b.n	dc0ea <_strtod_l+0x2ca>
   dc176:	2b6e      	cmp	r3, #110	; 0x6e
   dc178:	e7db      	b.n	dc132 <_strtod_l+0x312>
   dc17a:	498f      	ldr	r1, [pc, #572]	; (dc3b8 <_strtod_l+0x598>)
   dc17c:	a81d      	add	r0, sp, #116	; 0x74
   dc17e:	f000 ffe5 	bl	dd14c <__match>
   dc182:	2800      	cmp	r0, #0
   dc184:	f43f aeaa 	beq.w	dbedc <_strtod_l+0xbc>
   dc188:	9b1d      	ldr	r3, [sp, #116]	; 0x74
   dc18a:	498c      	ldr	r1, [pc, #560]	; (dc3bc <_strtod_l+0x59c>)
   dc18c:	3b01      	subs	r3, #1
   dc18e:	a81d      	add	r0, sp, #116	; 0x74
   dc190:	931d      	str	r3, [sp, #116]	; 0x74
   dc192:	f000 ffdb 	bl	dd14c <__match>
   dc196:	b910      	cbnz	r0, dc19e <_strtod_l+0x37e>
   dc198:	9b1d      	ldr	r3, [sp, #116]	; 0x74
   dc19a:	3301      	adds	r3, #1
   dc19c:	931d      	str	r3, [sp, #116]	; 0x74
   dc19e:	f8df b22c 	ldr.w	fp, [pc, #556]	; dc3cc <_strtod_l+0x5ac>
   dc1a2:	f04f 0a00 	mov.w	sl, #0
   dc1a6:	e67d      	b.n	dbea4 <_strtod_l+0x84>
   dc1a8:	4885      	ldr	r0, [pc, #532]	; (dc3c0 <_strtod_l+0x5a0>)
   dc1aa:	f001 fce1 	bl	ddb70 <nan>
   dc1ae:	ed8d 0b04 	vstr	d0, [sp, #16]
   dc1b2:	e9dd ab04 	ldrd	sl, fp, [sp, #16]
   dc1b6:	e675      	b.n	dbea4 <_strtod_l+0x84>
   dc1b8:	9b07      	ldr	r3, [sp, #28]
   dc1ba:	9809      	ldr	r0, [sp, #36]	; 0x24
   dc1bc:	1af3      	subs	r3, r6, r3
   dc1be:	2f00      	cmp	r7, #0
   dc1c0:	bf08      	it	eq
   dc1c2:	462f      	moveq	r7, r5
   dc1c4:	2d10      	cmp	r5, #16
   dc1c6:	9308      	str	r3, [sp, #32]
   dc1c8:	46a8      	mov	r8, r5
   dc1ca:	bfa8      	it	ge
   dc1cc:	f04f 0810 	movge.w	r8, #16
   dc1d0:	f7ff f8ce 	bl	db370 <__aeabi_ui2d>
   dc1d4:	2d09      	cmp	r5, #9
   dc1d6:	4682      	mov	sl, r0
   dc1d8:	468b      	mov	fp, r1
   dc1da:	dd13      	ble.n	dc204 <_strtod_l+0x3e4>
   dc1dc:	4b79      	ldr	r3, [pc, #484]	; (dc3c4 <_strtod_l+0x5a4>)
   dc1de:	eb03 03c8 	add.w	r3, r3, r8, lsl #3
   dc1e2:	e953 2312 	ldrd	r2, r3, [r3, #-72]	; 0x48
   dc1e6:	f7ff f93d 	bl	db464 <__aeabi_dmul>
   dc1ea:	4682      	mov	sl, r0
   dc1ec:	4648      	mov	r0, r9
   dc1ee:	468b      	mov	fp, r1
   dc1f0:	f7ff f8be 	bl	db370 <__aeabi_ui2d>
   dc1f4:	4602      	mov	r2, r0
   dc1f6:	460b      	mov	r3, r1
   dc1f8:	4650      	mov	r0, sl
   dc1fa:	4659      	mov	r1, fp
   dc1fc:	f7fe ff7c 	bl	db0f8 <__adddf3>
   dc200:	4682      	mov	sl, r0
   dc202:	468b      	mov	fp, r1
   dc204:	2d0f      	cmp	r5, #15
   dc206:	dc38      	bgt.n	dc27a <_strtod_l+0x45a>
   dc208:	9b08      	ldr	r3, [sp, #32]
   dc20a:	2b00      	cmp	r3, #0
   dc20c:	f43f ae4a 	beq.w	dbea4 <_strtod_l+0x84>
   dc210:	dd24      	ble.n	dc25c <_strtod_l+0x43c>
   dc212:	2b16      	cmp	r3, #22
   dc214:	dc0b      	bgt.n	dc22e <_strtod_l+0x40e>
   dc216:	4d6b      	ldr	r5, [pc, #428]	; (dc3c4 <_strtod_l+0x5a4>)
   dc218:	eb05 05c3 	add.w	r5, r5, r3, lsl #3
   dc21c:	e9d5 0100 	ldrd	r0, r1, [r5]
   dc220:	4652      	mov	r2, sl
   dc222:	465b      	mov	r3, fp
   dc224:	f7ff f91e 	bl	db464 <__aeabi_dmul>
   dc228:	4682      	mov	sl, r0
   dc22a:	468b      	mov	fp, r1
   dc22c:	e63a      	b.n	dbea4 <_strtod_l+0x84>
   dc22e:	9a08      	ldr	r2, [sp, #32]
   dc230:	f1c5 0325 	rsb	r3, r5, #37	; 0x25
   dc234:	4293      	cmp	r3, r2
   dc236:	db20      	blt.n	dc27a <_strtod_l+0x45a>
   dc238:	4c62      	ldr	r4, [pc, #392]	; (dc3c4 <_strtod_l+0x5a4>)
   dc23a:	f1c5 050f 	rsb	r5, r5, #15
   dc23e:	eb04 01c5 	add.w	r1, r4, r5, lsl #3
   dc242:	4652      	mov	r2, sl
   dc244:	465b      	mov	r3, fp
   dc246:	e9d1 0100 	ldrd	r0, r1, [r1]
   dc24a:	f7ff f90b 	bl	db464 <__aeabi_dmul>
   dc24e:	9b08      	ldr	r3, [sp, #32]
   dc250:	1b5d      	subs	r5, r3, r5
   dc252:	eb04 04c5 	add.w	r4, r4, r5, lsl #3
   dc256:	e9d4 2300 	ldrd	r2, r3, [r4]
   dc25a:	e7e3      	b.n	dc224 <_strtod_l+0x404>
   dc25c:	9b08      	ldr	r3, [sp, #32]
   dc25e:	3316      	adds	r3, #22
   dc260:	db0b      	blt.n	dc27a <_strtod_l+0x45a>
   dc262:	9b07      	ldr	r3, [sp, #28]
   dc264:	4a57      	ldr	r2, [pc, #348]	; (dc3c4 <_strtod_l+0x5a4>)
   dc266:	1b9e      	subs	r6, r3, r6
   dc268:	eb02 06c6 	add.w	r6, r2, r6, lsl #3
   dc26c:	e9d6 2300 	ldrd	r2, r3, [r6]
   dc270:	4650      	mov	r0, sl
   dc272:	4659      	mov	r1, fp
   dc274:	f7ff fa20 	bl	db6b8 <__aeabi_ddiv>
   dc278:	e7d6      	b.n	dc228 <_strtod_l+0x408>
   dc27a:	9b08      	ldr	r3, [sp, #32]
   dc27c:	eba5 0808 	sub.w	r8, r5, r8
   dc280:	4498      	add	r8, r3
   dc282:	f1b8 0f00 	cmp.w	r8, #0
   dc286:	dd71      	ble.n	dc36c <_strtod_l+0x54c>
   dc288:	f018 030f 	ands.w	r3, r8, #15
   dc28c:	d00a      	beq.n	dc2a4 <_strtod_l+0x484>
   dc28e:	494d      	ldr	r1, [pc, #308]	; (dc3c4 <_strtod_l+0x5a4>)
   dc290:	eb01 01c3 	add.w	r1, r1, r3, lsl #3
   dc294:	4652      	mov	r2, sl
   dc296:	465b      	mov	r3, fp
   dc298:	e9d1 0100 	ldrd	r0, r1, [r1]
   dc29c:	f7ff f8e2 	bl	db464 <__aeabi_dmul>
   dc2a0:	4682      	mov	sl, r0
   dc2a2:	468b      	mov	fp, r1
   dc2a4:	f038 080f 	bics.w	r8, r8, #15
   dc2a8:	d04d      	beq.n	dc346 <_strtod_l+0x526>
   dc2aa:	f5b8 7f9a 	cmp.w	r8, #308	; 0x134
   dc2ae:	dd22      	ble.n	dc2f6 <_strtod_l+0x4d6>
   dc2b0:	2500      	movs	r5, #0
   dc2b2:	462e      	mov	r6, r5
   dc2b4:	9509      	str	r5, [sp, #36]	; 0x24
   dc2b6:	9507      	str	r5, [sp, #28]
   dc2b8:	2322      	movs	r3, #34	; 0x22
   dc2ba:	f8df b110 	ldr.w	fp, [pc, #272]	; dc3cc <_strtod_l+0x5ac>
   dc2be:	6023      	str	r3, [r4, #0]
   dc2c0:	f04f 0a00 	mov.w	sl, #0
   dc2c4:	9b09      	ldr	r3, [sp, #36]	; 0x24
   dc2c6:	2b00      	cmp	r3, #0
   dc2c8:	f43f adec 	beq.w	dbea4 <_strtod_l+0x84>
   dc2cc:	991e      	ldr	r1, [sp, #120]	; 0x78
   dc2ce:	4620      	mov	r0, r4
   dc2d0:	f001 f832 	bl	dd338 <_Bfree>
   dc2d4:	9907      	ldr	r1, [sp, #28]
   dc2d6:	4620      	mov	r0, r4
   dc2d8:	f001 f82e 	bl	dd338 <_Bfree>
   dc2dc:	4631      	mov	r1, r6
   dc2de:	4620      	mov	r0, r4
   dc2e0:	f001 f82a 	bl	dd338 <_Bfree>
   dc2e4:	9909      	ldr	r1, [sp, #36]	; 0x24
   dc2e6:	4620      	mov	r0, r4
   dc2e8:	f001 f826 	bl	dd338 <_Bfree>
   dc2ec:	4629      	mov	r1, r5
   dc2ee:	4620      	mov	r0, r4
   dc2f0:	f001 f822 	bl	dd338 <_Bfree>
   dc2f4:	e5d6      	b.n	dbea4 <_strtod_l+0x84>
   dc2f6:	2300      	movs	r3, #0
   dc2f8:	ea4f 1828 	mov.w	r8, r8, asr #4
   dc2fc:	4650      	mov	r0, sl
   dc2fe:	4659      	mov	r1, fp
   dc300:	4699      	mov	r9, r3
   dc302:	f1b8 0f01 	cmp.w	r8, #1
   dc306:	dc21      	bgt.n	dc34c <_strtod_l+0x52c>
   dc308:	b10b      	cbz	r3, dc30e <_strtod_l+0x4ee>
   dc30a:	4682      	mov	sl, r0
   dc30c:	468b      	mov	fp, r1
   dc30e:	4b2e      	ldr	r3, [pc, #184]	; (dc3c8 <_strtod_l+0x5a8>)
   dc310:	f1ab 7b54 	sub.w	fp, fp, #55574528	; 0x3500000
   dc314:	eb03 09c9 	add.w	r9, r3, r9, lsl #3
   dc318:	4652      	mov	r2, sl
   dc31a:	465b      	mov	r3, fp
   dc31c:	e9d9 0100 	ldrd	r0, r1, [r9]
   dc320:	f7ff f8a0 	bl	db464 <__aeabi_dmul>
   dc324:	4b29      	ldr	r3, [pc, #164]	; (dc3cc <_strtod_l+0x5ac>)
   dc326:	460a      	mov	r2, r1
   dc328:	400b      	ands	r3, r1
   dc32a:	4929      	ldr	r1, [pc, #164]	; (dc3d0 <_strtod_l+0x5b0>)
   dc32c:	428b      	cmp	r3, r1
   dc32e:	4682      	mov	sl, r0
   dc330:	d8be      	bhi.n	dc2b0 <_strtod_l+0x490>
   dc332:	f5a1 1180 	sub.w	r1, r1, #1048576	; 0x100000
   dc336:	428b      	cmp	r3, r1
   dc338:	bf86      	itte	hi
   dc33a:	f8df b098 	ldrhi.w	fp, [pc, #152]	; dc3d4 <_strtod_l+0x5b4>
   dc33e:	f04f 3aff 	movhi.w	sl, #4294967295	; 0xffffffff
   dc342:	f102 7b54 	addls.w	fp, r2, #55574528	; 0x3500000
   dc346:	2300      	movs	r3, #0
   dc348:	9304      	str	r3, [sp, #16]
   dc34a:	e081      	b.n	dc450 <_strtod_l+0x630>
   dc34c:	f018 0f01 	tst.w	r8, #1
   dc350:	d007      	beq.n	dc362 <_strtod_l+0x542>
   dc352:	4b1d      	ldr	r3, [pc, #116]	; (dc3c8 <_strtod_l+0x5a8>)
   dc354:	eb03 03c9 	add.w	r3, r3, r9, lsl #3
   dc358:	e9d3 2300 	ldrd	r2, r3, [r3]
   dc35c:	f7ff f882 	bl	db464 <__aeabi_dmul>
   dc360:	2301      	movs	r3, #1
   dc362:	f109 0901 	add.w	r9, r9, #1
   dc366:	ea4f 0868 	mov.w	r8, r8, asr #1
   dc36a:	e7ca      	b.n	dc302 <_strtod_l+0x4e2>
   dc36c:	d0eb      	beq.n	dc346 <_strtod_l+0x526>
   dc36e:	f1c8 0800 	rsb	r8, r8, #0
   dc372:	f018 020f 	ands.w	r2, r8, #15
   dc376:	d00a      	beq.n	dc38e <_strtod_l+0x56e>
   dc378:	4b12      	ldr	r3, [pc, #72]	; (dc3c4 <_strtod_l+0x5a4>)
   dc37a:	eb03 03c2 	add.w	r3, r3, r2, lsl #3
   dc37e:	4650      	mov	r0, sl
   dc380:	4659      	mov	r1, fp
   dc382:	e9d3 2300 	ldrd	r2, r3, [r3]
   dc386:	f7ff f997 	bl	db6b8 <__aeabi_ddiv>
   dc38a:	4682      	mov	sl, r0
   dc38c:	468b      	mov	fp, r1
   dc38e:	ea5f 1828 	movs.w	r8, r8, asr #4
   dc392:	d0d8      	beq.n	dc346 <_strtod_l+0x526>
   dc394:	f1b8 0f1f 	cmp.w	r8, #31
   dc398:	dd1e      	ble.n	dc3d8 <_strtod_l+0x5b8>
   dc39a:	2500      	movs	r5, #0
   dc39c:	462e      	mov	r6, r5
   dc39e:	9509      	str	r5, [sp, #36]	; 0x24
   dc3a0:	9507      	str	r5, [sp, #28]
   dc3a2:	2322      	movs	r3, #34	; 0x22
   dc3a4:	f04f 0a00 	mov.w	sl, #0
   dc3a8:	f04f 0b00 	mov.w	fp, #0
   dc3ac:	6023      	str	r3, [r4, #0]
   dc3ae:	e789      	b.n	dc2c4 <_strtod_l+0x4a4>
   dc3b0:	000dea37 	.word	0x000dea37
   dc3b4:	000dea50 	.word	0x000dea50
   dc3b8:	000dea2e 	.word	0x000dea2e
   dc3bc:	000dea31 	.word	0x000dea31
   dc3c0:	000de851 	.word	0x000de851
   dc3c4:	000debd0 	.word	0x000debd0
   dc3c8:	000deba8 	.word	0x000deba8
   dc3cc:	7ff00000 	.word	0x7ff00000
   dc3d0:	7ca00000 	.word	0x7ca00000
   dc3d4:	7fefffff 	.word	0x7fefffff
   dc3d8:	f018 0310 	ands.w	r3, r8, #16
   dc3dc:	bf18      	it	ne
   dc3de:	236a      	movne	r3, #106	; 0x6a
   dc3e0:	f8df 93b4 	ldr.w	r9, [pc, #948]	; dc798 <_strtod_l+0x978>
   dc3e4:	9304      	str	r3, [sp, #16]
   dc3e6:	4650      	mov	r0, sl
   dc3e8:	4659      	mov	r1, fp
   dc3ea:	2300      	movs	r3, #0
   dc3ec:	f018 0f01 	tst.w	r8, #1
   dc3f0:	d004      	beq.n	dc3fc <_strtod_l+0x5dc>
   dc3f2:	e9d9 2300 	ldrd	r2, r3, [r9]
   dc3f6:	f7ff f835 	bl	db464 <__aeabi_dmul>
   dc3fa:	2301      	movs	r3, #1
   dc3fc:	ea5f 0868 	movs.w	r8, r8, asr #1
   dc400:	f109 0908 	add.w	r9, r9, #8
   dc404:	d1f2      	bne.n	dc3ec <_strtod_l+0x5cc>
   dc406:	b10b      	cbz	r3, dc40c <_strtod_l+0x5ec>
   dc408:	4682      	mov	sl, r0
   dc40a:	468b      	mov	fp, r1
   dc40c:	9b04      	ldr	r3, [sp, #16]
   dc40e:	b1bb      	cbz	r3, dc440 <_strtod_l+0x620>
   dc410:	f3cb 530a 	ubfx	r3, fp, #20, #11
   dc414:	f1c3 036b 	rsb	r3, r3, #107	; 0x6b
   dc418:	2b00      	cmp	r3, #0
   dc41a:	4659      	mov	r1, fp
   dc41c:	dd10      	ble.n	dc440 <_strtod_l+0x620>
   dc41e:	2b1f      	cmp	r3, #31
   dc420:	f340 8128 	ble.w	dc674 <_strtod_l+0x854>
   dc424:	2b34      	cmp	r3, #52	; 0x34
   dc426:	bfde      	ittt	le
   dc428:	3b20      	suble	r3, #32
   dc42a:	f04f 32ff 	movle.w	r2, #4294967295	; 0xffffffff
   dc42e:	fa02 f303 	lslle.w	r3, r2, r3
   dc432:	f04f 0a00 	mov.w	sl, #0
   dc436:	bfcc      	ite	gt
   dc438:	f04f 7b5c 	movgt.w	fp, #57671680	; 0x3700000
   dc43c:	ea03 0b01 	andle.w	fp, r3, r1
   dc440:	2200      	movs	r2, #0
   dc442:	2300      	movs	r3, #0
   dc444:	4650      	mov	r0, sl
   dc446:	4659      	mov	r1, fp
   dc448:	f7ff fa74 	bl	db934 <__aeabi_dcmpeq>
   dc44c:	2800      	cmp	r0, #0
   dc44e:	d1a4      	bne.n	dc39a <_strtod_l+0x57a>
   dc450:	9b09      	ldr	r3, [sp, #36]	; 0x24
   dc452:	9300      	str	r3, [sp, #0]
   dc454:	990a      	ldr	r1, [sp, #40]	; 0x28
   dc456:	462b      	mov	r3, r5
   dc458:	463a      	mov	r2, r7
   dc45a:	4620      	mov	r0, r4
   dc45c:	f000 ffc1 	bl	dd3e2 <__s2b>
   dc460:	9009      	str	r0, [sp, #36]	; 0x24
   dc462:	2800      	cmp	r0, #0
   dc464:	f43f af24 	beq.w	dc2b0 <_strtod_l+0x490>
   dc468:	9b07      	ldr	r3, [sp, #28]
   dc46a:	1b9e      	subs	r6, r3, r6
   dc46c:	9b08      	ldr	r3, [sp, #32]
   dc46e:	2b00      	cmp	r3, #0
   dc470:	bfb4      	ite	lt
   dc472:	4633      	movlt	r3, r6
   dc474:	2300      	movge	r3, #0
   dc476:	9310      	str	r3, [sp, #64]	; 0x40
   dc478:	9b08      	ldr	r3, [sp, #32]
   dc47a:	2500      	movs	r5, #0
   dc47c:	ea23 73e3 	bic.w	r3, r3, r3, asr #31
   dc480:	9318      	str	r3, [sp, #96]	; 0x60
   dc482:	462e      	mov	r6, r5
   dc484:	9b09      	ldr	r3, [sp, #36]	; 0x24
   dc486:	4620      	mov	r0, r4
   dc488:	6859      	ldr	r1, [r3, #4]
   dc48a:	f000 ff21 	bl	dd2d0 <_Balloc>
   dc48e:	9007      	str	r0, [sp, #28]
   dc490:	2800      	cmp	r0, #0
   dc492:	f43f af11 	beq.w	dc2b8 <_strtod_l+0x498>
   dc496:	9b09      	ldr	r3, [sp, #36]	; 0x24
   dc498:	691a      	ldr	r2, [r3, #16]
   dc49a:	3202      	adds	r2, #2
   dc49c:	f103 010c 	add.w	r1, r3, #12
   dc4a0:	0092      	lsls	r2, r2, #2
   dc4a2:	300c      	adds	r0, #12
   dc4a4:	f7ff fbc2 	bl	dbc2c <memcpy>
   dc4a8:	ec4b ab10 	vmov	d0, sl, fp
   dc4ac:	aa20      	add	r2, sp, #128	; 0x80
   dc4ae:	a91f      	add	r1, sp, #124	; 0x7c
   dc4b0:	4620      	mov	r0, r4
   dc4b2:	e9cd ab0a 	strd	sl, fp, [sp, #40]	; 0x28
   dc4b6:	f001 fa83 	bl	dd9c0 <__d2b>
   dc4ba:	901e      	str	r0, [sp, #120]	; 0x78
   dc4bc:	2800      	cmp	r0, #0
   dc4be:	f43f aefb 	beq.w	dc2b8 <_strtod_l+0x498>
   dc4c2:	2101      	movs	r1, #1
   dc4c4:	4620      	mov	r0, r4
   dc4c6:	f001 f81a 	bl	dd4fe <__i2b>
   dc4ca:	4606      	mov	r6, r0
   dc4cc:	2800      	cmp	r0, #0
   dc4ce:	f43f aef3 	beq.w	dc2b8 <_strtod_l+0x498>
   dc4d2:	9b1f      	ldr	r3, [sp, #124]	; 0x7c
   dc4d4:	9904      	ldr	r1, [sp, #16]
   dc4d6:	2b00      	cmp	r3, #0
   dc4d8:	bfab      	itete	ge
   dc4da:	9a10      	ldrge	r2, [sp, #64]	; 0x40
   dc4dc:	9a18      	ldrlt	r2, [sp, #96]	; 0x60
   dc4de:	9f18      	ldrge	r7, [sp, #96]	; 0x60
   dc4e0:	f8dd 9040 	ldrlt.w	r9, [sp, #64]	; 0x40
   dc4e4:	bfac      	ite	ge
   dc4e6:	eb03 0902 	addge.w	r9, r3, r2
   dc4ea:	1ad7      	sublt	r7, r2, r3
   dc4ec:	9a20      	ldr	r2, [sp, #128]	; 0x80
   dc4ee:	eba3 0801 	sub.w	r8, r3, r1
   dc4f2:	4490      	add	r8, r2
   dc4f4:	4ba3      	ldr	r3, [pc, #652]	; (dc784 <_strtod_l+0x964>)
   dc4f6:	f108 38ff 	add.w	r8, r8, #4294967295	; 0xffffffff
   dc4fa:	4598      	cmp	r8, r3
   dc4fc:	f1c2 0236 	rsb	r2, r2, #54	; 0x36
   dc500:	f280 80cc 	bge.w	dc69c <_strtod_l+0x87c>
   dc504:	eba3 0308 	sub.w	r3, r3, r8
   dc508:	2b1f      	cmp	r3, #31
   dc50a:	eba2 0203 	sub.w	r2, r2, r3
   dc50e:	f04f 0101 	mov.w	r1, #1
   dc512:	f300 80b6 	bgt.w	dc682 <_strtod_l+0x862>
   dc516:	fa01 f303 	lsl.w	r3, r1, r3
   dc51a:	9311      	str	r3, [sp, #68]	; 0x44
   dc51c:	2300      	movs	r3, #0
   dc51e:	930c      	str	r3, [sp, #48]	; 0x30
   dc520:	eb09 0802 	add.w	r8, r9, r2
   dc524:	9b04      	ldr	r3, [sp, #16]
   dc526:	45c1      	cmp	r9, r8
   dc528:	4417      	add	r7, r2
   dc52a:	441f      	add	r7, r3
   dc52c:	464b      	mov	r3, r9
   dc52e:	bfa8      	it	ge
   dc530:	4643      	movge	r3, r8
   dc532:	42bb      	cmp	r3, r7
   dc534:	bfa8      	it	ge
   dc536:	463b      	movge	r3, r7
   dc538:	2b00      	cmp	r3, #0
   dc53a:	bfc2      	ittt	gt
   dc53c:	eba8 0803 	subgt.w	r8, r8, r3
   dc540:	1aff      	subgt	r7, r7, r3
   dc542:	eba9 0903 	subgt.w	r9, r9, r3
   dc546:	9b10      	ldr	r3, [sp, #64]	; 0x40
   dc548:	2b00      	cmp	r3, #0
   dc54a:	dd17      	ble.n	dc57c <_strtod_l+0x75c>
   dc54c:	4631      	mov	r1, r6
   dc54e:	461a      	mov	r2, r3
   dc550:	4620      	mov	r0, r4
   dc552:	f001 f879 	bl	dd648 <__pow5mult>
   dc556:	4606      	mov	r6, r0
   dc558:	2800      	cmp	r0, #0
   dc55a:	f43f aead 	beq.w	dc2b8 <_strtod_l+0x498>
   dc55e:	4601      	mov	r1, r0
   dc560:	9a1e      	ldr	r2, [sp, #120]	; 0x78
   dc562:	4620      	mov	r0, r4
   dc564:	f000 ffd4 	bl	dd510 <__multiply>
   dc568:	900f      	str	r0, [sp, #60]	; 0x3c
   dc56a:	2800      	cmp	r0, #0
   dc56c:	f43f aea4 	beq.w	dc2b8 <_strtod_l+0x498>
   dc570:	991e      	ldr	r1, [sp, #120]	; 0x78
   dc572:	4620      	mov	r0, r4
   dc574:	f000 fee0 	bl	dd338 <_Bfree>
   dc578:	9b0f      	ldr	r3, [sp, #60]	; 0x3c
   dc57a:	931e      	str	r3, [sp, #120]	; 0x78
   dc57c:	f1b8 0f00 	cmp.w	r8, #0
   dc580:	f300 8091 	bgt.w	dc6a6 <_strtod_l+0x886>
   dc584:	9b08      	ldr	r3, [sp, #32]
   dc586:	2b00      	cmp	r3, #0
   dc588:	dd08      	ble.n	dc59c <_strtod_l+0x77c>
   dc58a:	9a18      	ldr	r2, [sp, #96]	; 0x60
   dc58c:	9907      	ldr	r1, [sp, #28]
   dc58e:	4620      	mov	r0, r4
   dc590:	f001 f85a 	bl	dd648 <__pow5mult>
   dc594:	9007      	str	r0, [sp, #28]
   dc596:	2800      	cmp	r0, #0
   dc598:	f43f ae8e 	beq.w	dc2b8 <_strtod_l+0x498>
   dc59c:	2f00      	cmp	r7, #0
   dc59e:	dd08      	ble.n	dc5b2 <_strtod_l+0x792>
   dc5a0:	9907      	ldr	r1, [sp, #28]
   dc5a2:	463a      	mov	r2, r7
   dc5a4:	4620      	mov	r0, r4
   dc5a6:	f001 f89d 	bl	dd6e4 <__lshift>
   dc5aa:	9007      	str	r0, [sp, #28]
   dc5ac:	2800      	cmp	r0, #0
   dc5ae:	f43f ae83 	beq.w	dc2b8 <_strtod_l+0x498>
   dc5b2:	f1b9 0f00 	cmp.w	r9, #0
   dc5b6:	dd08      	ble.n	dc5ca <_strtod_l+0x7aa>
   dc5b8:	4631      	mov	r1, r6
   dc5ba:	464a      	mov	r2, r9
   dc5bc:	4620      	mov	r0, r4
   dc5be:	f001 f891 	bl	dd6e4 <__lshift>
   dc5c2:	4606      	mov	r6, r0
   dc5c4:	2800      	cmp	r0, #0
   dc5c6:	f43f ae77 	beq.w	dc2b8 <_strtod_l+0x498>
   dc5ca:	9a07      	ldr	r2, [sp, #28]
   dc5cc:	991e      	ldr	r1, [sp, #120]	; 0x78
   dc5ce:	4620      	mov	r0, r4
   dc5d0:	f001 f903 	bl	dd7da <__mdiff>
   dc5d4:	4605      	mov	r5, r0
   dc5d6:	2800      	cmp	r0, #0
   dc5d8:	f43f ae6e 	beq.w	dc2b8 <_strtod_l+0x498>
   dc5dc:	68c3      	ldr	r3, [r0, #12]
   dc5de:	930f      	str	r3, [sp, #60]	; 0x3c
   dc5e0:	2300      	movs	r3, #0
   dc5e2:	60c3      	str	r3, [r0, #12]
   dc5e4:	4631      	mov	r1, r6
   dc5e6:	f001 f8dc 	bl	dd7a2 <__mcmp>
   dc5ea:	2800      	cmp	r0, #0
   dc5ec:	da65      	bge.n	dc6ba <_strtod_l+0x89a>
   dc5ee:	9b0f      	ldr	r3, [sp, #60]	; 0x3c
   dc5f0:	ea53 030a 	orrs.w	r3, r3, sl
   dc5f4:	f040 8087 	bne.w	dc706 <_strtod_l+0x8e6>
   dc5f8:	f3cb 0313 	ubfx	r3, fp, #0, #20
   dc5fc:	2b00      	cmp	r3, #0
   dc5fe:	f040 8082 	bne.w	dc706 <_strtod_l+0x8e6>
   dc602:	f02b 4300 	bic.w	r3, fp, #2147483648	; 0x80000000
   dc606:	0d1b      	lsrs	r3, r3, #20
   dc608:	051b      	lsls	r3, r3, #20
   dc60a:	f1b3 6fd6 	cmp.w	r3, #112197632	; 0x6b00000
   dc60e:	d97a      	bls.n	dc706 <_strtod_l+0x8e6>
   dc610:	696b      	ldr	r3, [r5, #20]
   dc612:	b913      	cbnz	r3, dc61a <_strtod_l+0x7fa>
   dc614:	692b      	ldr	r3, [r5, #16]
   dc616:	2b01      	cmp	r3, #1
   dc618:	dd75      	ble.n	dc706 <_strtod_l+0x8e6>
   dc61a:	4629      	mov	r1, r5
   dc61c:	2201      	movs	r2, #1
   dc61e:	4620      	mov	r0, r4
   dc620:	f001 f860 	bl	dd6e4 <__lshift>
   dc624:	4631      	mov	r1, r6
   dc626:	4605      	mov	r5, r0
   dc628:	f001 f8bb 	bl	dd7a2 <__mcmp>
   dc62c:	2800      	cmp	r0, #0
   dc62e:	dd6a      	ble.n	dc706 <_strtod_l+0x8e6>
   dc630:	9904      	ldr	r1, [sp, #16]
   dc632:	4a55      	ldr	r2, [pc, #340]	; (dc788 <_strtod_l+0x968>)
   dc634:	465b      	mov	r3, fp
   dc636:	2900      	cmp	r1, #0
   dc638:	f000 8085 	beq.w	dc746 <_strtod_l+0x926>
   dc63c:	ea02 010b 	and.w	r1, r2, fp
   dc640:	f1b1 6fd6 	cmp.w	r1, #112197632	; 0x6b00000
   dc644:	dc7f      	bgt.n	dc746 <_strtod_l+0x926>
   dc646:	f1b1 7f5c 	cmp.w	r1, #57671680	; 0x3700000
   dc64a:	f77f aeaa 	ble.w	dc3a2 <_strtod_l+0x582>
   dc64e:	4a4f      	ldr	r2, [pc, #316]	; (dc78c <_strtod_l+0x96c>)
   dc650:	2300      	movs	r3, #0
   dc652:	e9cd 3216 	strd	r3, r2, [sp, #88]	; 0x58
   dc656:	4650      	mov	r0, sl
   dc658:	e9dd 2316 	ldrd	r2, r3, [sp, #88]	; 0x58
   dc65c:	4659      	mov	r1, fp
   dc65e:	f7fe ff01 	bl	db464 <__aeabi_dmul>
   dc662:	460b      	mov	r3, r1
   dc664:	4303      	orrs	r3, r0
   dc666:	bf08      	it	eq
   dc668:	2322      	moveq	r3, #34	; 0x22
   dc66a:	4682      	mov	sl, r0
   dc66c:	468b      	mov	fp, r1
   dc66e:	bf08      	it	eq
   dc670:	6023      	streq	r3, [r4, #0]
   dc672:	e62b      	b.n	dc2cc <_strtod_l+0x4ac>
   dc674:	f04f 32ff 	mov.w	r2, #4294967295	; 0xffffffff
   dc678:	fa02 f303 	lsl.w	r3, r2, r3
   dc67c:	ea03 0a0a 	and.w	sl, r3, sl
   dc680:	e6de      	b.n	dc440 <_strtod_l+0x620>
   dc682:	f1c8 487f 	rsb	r8, r8, #4278190080	; 0xff000000
   dc686:	f508 087f 	add.w	r8, r8, #16711680	; 0xff0000
   dc68a:	f508 487b 	add.w	r8, r8, #64256	; 0xfb00
   dc68e:	f108 08e2 	add.w	r8, r8, #226	; 0xe2
   dc692:	fa01 f308 	lsl.w	r3, r1, r8
   dc696:	930c      	str	r3, [sp, #48]	; 0x30
   dc698:	9111      	str	r1, [sp, #68]	; 0x44
   dc69a:	e741      	b.n	dc520 <_strtod_l+0x700>
   dc69c:	2300      	movs	r3, #0
   dc69e:	930c      	str	r3, [sp, #48]	; 0x30
   dc6a0:	2301      	movs	r3, #1
   dc6a2:	9311      	str	r3, [sp, #68]	; 0x44
   dc6a4:	e73c      	b.n	dc520 <_strtod_l+0x700>
   dc6a6:	991e      	ldr	r1, [sp, #120]	; 0x78
   dc6a8:	4642      	mov	r2, r8
   dc6aa:	4620      	mov	r0, r4
   dc6ac:	f001 f81a 	bl	dd6e4 <__lshift>
   dc6b0:	901e      	str	r0, [sp, #120]	; 0x78
   dc6b2:	2800      	cmp	r0, #0
   dc6b4:	f47f af66 	bne.w	dc584 <_strtod_l+0x764>
   dc6b8:	e5fe      	b.n	dc2b8 <_strtod_l+0x498>
   dc6ba:	465f      	mov	r7, fp
   dc6bc:	d16e      	bne.n	dc79c <_strtod_l+0x97c>
   dc6be:	9a0f      	ldr	r2, [sp, #60]	; 0x3c
   dc6c0:	f3cb 0313 	ubfx	r3, fp, #0, #20
   dc6c4:	b342      	cbz	r2, dc718 <_strtod_l+0x8f8>
   dc6c6:	4a32      	ldr	r2, [pc, #200]	; (dc790 <_strtod_l+0x970>)
   dc6c8:	4293      	cmp	r3, r2
   dc6ca:	d128      	bne.n	dc71e <_strtod_l+0x8fe>
   dc6cc:	9b04      	ldr	r3, [sp, #16]
   dc6ce:	4650      	mov	r0, sl
   dc6d0:	b1eb      	cbz	r3, dc70e <_strtod_l+0x8ee>
   dc6d2:	4a2d      	ldr	r2, [pc, #180]	; (dc788 <_strtod_l+0x968>)
   dc6d4:	403a      	ands	r2, r7
   dc6d6:	f1b2 6fd4 	cmp.w	r2, #111149056	; 0x6a00000
   dc6da:	f04f 31ff 	mov.w	r1, #4294967295	; 0xffffffff
   dc6de:	d819      	bhi.n	dc714 <_strtod_l+0x8f4>
   dc6e0:	0d12      	lsrs	r2, r2, #20
   dc6e2:	f1c2 036b 	rsb	r3, r2, #107	; 0x6b
   dc6e6:	fa01 f303 	lsl.w	r3, r1, r3
   dc6ea:	4298      	cmp	r0, r3
   dc6ec:	d117      	bne.n	dc71e <_strtod_l+0x8fe>
   dc6ee:	4b29      	ldr	r3, [pc, #164]	; (dc794 <_strtod_l+0x974>)
   dc6f0:	429f      	cmp	r7, r3
   dc6f2:	d102      	bne.n	dc6fa <_strtod_l+0x8da>
   dc6f4:	3001      	adds	r0, #1
   dc6f6:	f43f addf 	beq.w	dc2b8 <_strtod_l+0x498>
   dc6fa:	4b23      	ldr	r3, [pc, #140]	; (dc788 <_strtod_l+0x968>)
   dc6fc:	403b      	ands	r3, r7
   dc6fe:	f503 1b80 	add.w	fp, r3, #1048576	; 0x100000
   dc702:	f04f 0a00 	mov.w	sl, #0
   dc706:	9b04      	ldr	r3, [sp, #16]
   dc708:	2b00      	cmp	r3, #0
   dc70a:	d1a0      	bne.n	dc64e <_strtod_l+0x82e>
   dc70c:	e5de      	b.n	dc2cc <_strtod_l+0x4ac>
   dc70e:	f04f 33ff 	mov.w	r3, #4294967295	; 0xffffffff
   dc712:	e7ea      	b.n	dc6ea <_strtod_l+0x8ca>
   dc714:	460b      	mov	r3, r1
   dc716:	e7e8      	b.n	dc6ea <_strtod_l+0x8ca>
   dc718:	ea53 030a 	orrs.w	r3, r3, sl
   dc71c:	d088      	beq.n	dc630 <_strtod_l+0x810>
   dc71e:	9b0c      	ldr	r3, [sp, #48]	; 0x30
   dc720:	b1db      	cbz	r3, dc75a <_strtod_l+0x93a>
   dc722:	423b      	tst	r3, r7
   dc724:	d0ef      	beq.n	dc706 <_strtod_l+0x8e6>
   dc726:	9b0f      	ldr	r3, [sp, #60]	; 0x3c
   dc728:	9a04      	ldr	r2, [sp, #16]
   dc72a:	4650      	mov	r0, sl
   dc72c:	4659      	mov	r1, fp
   dc72e:	b1c3      	cbz	r3, dc762 <_strtod_l+0x942>
   dc730:	f7ff fb58 	bl	dbde4 <sulp>
   dc734:	4602      	mov	r2, r0
   dc736:	460b      	mov	r3, r1
   dc738:	e9dd 010a 	ldrd	r0, r1, [sp, #40]	; 0x28
   dc73c:	f7fe fcdc 	bl	db0f8 <__adddf3>
   dc740:	4682      	mov	sl, r0
   dc742:	468b      	mov	fp, r1
   dc744:	e7df      	b.n	dc706 <_strtod_l+0x8e6>
   dc746:	4013      	ands	r3, r2
   dc748:	f5a3 1380 	sub.w	r3, r3, #1048576	; 0x100000
   dc74c:	ea6f 5b13 	mvn.w	fp, r3, lsr #20
   dc750:	ea6f 5b0b 	mvn.w	fp, fp, lsl #20
   dc754:	f04f 3aff 	mov.w	sl, #4294967295	; 0xffffffff
   dc758:	e7d5      	b.n	dc706 <_strtod_l+0x8e6>
   dc75a:	9b11      	ldr	r3, [sp, #68]	; 0x44
   dc75c:	ea13 0f0a 	tst.w	r3, sl
   dc760:	e7e0      	b.n	dc724 <_strtod_l+0x904>
   dc762:	f7ff fb3f 	bl	dbde4 <sulp>
   dc766:	4602      	mov	r2, r0
   dc768:	460b      	mov	r3, r1
   dc76a:	e9dd 010a 	ldrd	r0, r1, [sp, #40]	; 0x28
   dc76e:	f7fe fcc1 	bl	db0f4 <__aeabi_dsub>
   dc772:	2200      	movs	r2, #0
   dc774:	2300      	movs	r3, #0
   dc776:	4682      	mov	sl, r0
   dc778:	468b      	mov	fp, r1
   dc77a:	f7ff f8db 	bl	db934 <__aeabi_dcmpeq>
   dc77e:	2800      	cmp	r0, #0
   dc780:	d0c1      	beq.n	dc706 <_strtod_l+0x8e6>
   dc782:	e60e      	b.n	dc3a2 <_strtod_l+0x582>
   dc784:	fffffc02 	.word	0xfffffc02
   dc788:	7ff00000 	.word	0x7ff00000
   dc78c:	39500000 	.word	0x39500000
   dc790:	000fffff 	.word	0x000fffff
   dc794:	7fefffff 	.word	0x7fefffff
   dc798:	000dea68 	.word	0x000dea68
   dc79c:	4631      	mov	r1, r6
   dc79e:	4628      	mov	r0, r5
   dc7a0:	f001 f95e 	bl	dda60 <__ratio>
   dc7a4:	ec59 8b10 	vmov	r8, r9, d0
   dc7a8:	ee10 0a10 	vmov	r0, s0
   dc7ac:	2200      	movs	r2, #0
   dc7ae:	f04f 4380 	mov.w	r3, #1073741824	; 0x40000000
   dc7b2:	4649      	mov	r1, r9
   dc7b4:	f7ff f8d2 	bl	db95c <__aeabi_dcmple>
   dc7b8:	2800      	cmp	r0, #0
   dc7ba:	d07c      	beq.n	dc8b6 <_strtod_l+0xa96>
   dc7bc:	9b0f      	ldr	r3, [sp, #60]	; 0x3c
   dc7be:	2b00      	cmp	r3, #0
   dc7c0:	d04c      	beq.n	dc85c <_strtod_l+0xa3c>
   dc7c2:	4b95      	ldr	r3, [pc, #596]	; (dca18 <_strtod_l+0xbf8>)
   dc7c4:	2200      	movs	r2, #0
   dc7c6:	e9cd 230c 	strd	r2, r3, [sp, #48]	; 0x30
   dc7ca:	f8df 924c 	ldr.w	r9, [pc, #588]	; dca18 <_strtod_l+0xbf8>
   dc7ce:	f04f 0800 	mov.w	r8, #0
   dc7d2:	4b92      	ldr	r3, [pc, #584]	; (dca1c <_strtod_l+0xbfc>)
   dc7d4:	403b      	ands	r3, r7
   dc7d6:	9311      	str	r3, [sp, #68]	; 0x44
   dc7d8:	9a11      	ldr	r2, [sp, #68]	; 0x44
   dc7da:	4b91      	ldr	r3, [pc, #580]	; (dca20 <_strtod_l+0xc00>)
   dc7dc:	429a      	cmp	r2, r3
   dc7de:	f040 80b2 	bne.w	dc946 <_strtod_l+0xb26>
   dc7e2:	e9dd 230a 	ldrd	r2, r3, [sp, #40]	; 0x28
   dc7e6:	e9dd 010c 	ldrd	r0, r1, [sp, #48]	; 0x30
   dc7ea:	f1a7 7b54 	sub.w	fp, r7, #55574528	; 0x3500000
   dc7ee:	ec4b ab10 	vmov	d0, sl, fp
   dc7f2:	e9cd 2316 	strd	r2, r3, [sp, #88]	; 0x58
   dc7f6:	e9cd 010c 	strd	r0, r1, [sp, #48]	; 0x30
   dc7fa:	f001 f865 	bl	dd8c8 <__ulp>
   dc7fe:	e9dd 010c 	ldrd	r0, r1, [sp, #48]	; 0x30
   dc802:	ec53 2b10 	vmov	r2, r3, d0
   dc806:	f7fe fe2d 	bl	db464 <__aeabi_dmul>
   dc80a:	4652      	mov	r2, sl
   dc80c:	465b      	mov	r3, fp
   dc80e:	f7fe fc73 	bl	db0f8 <__adddf3>
   dc812:	460b      	mov	r3, r1
   dc814:	4981      	ldr	r1, [pc, #516]	; (dca1c <_strtod_l+0xbfc>)
   dc816:	4a83      	ldr	r2, [pc, #524]	; (dca24 <_strtod_l+0xc04>)
   dc818:	4019      	ands	r1, r3
   dc81a:	4291      	cmp	r1, r2
   dc81c:	4682      	mov	sl, r0
   dc81e:	d95e      	bls.n	dc8de <_strtod_l+0xabe>
   dc820:	9b0b      	ldr	r3, [sp, #44]	; 0x2c
   dc822:	f102 7254 	add.w	r2, r2, #55574528	; 0x3500000
   dc826:	4293      	cmp	r3, r2
   dc828:	d103      	bne.n	dc832 <_strtod_l+0xa12>
   dc82a:	9b0a      	ldr	r3, [sp, #40]	; 0x28
   dc82c:	3301      	adds	r3, #1
   dc82e:	f43f ad43 	beq.w	dc2b8 <_strtod_l+0x498>
   dc832:	f8df b1fc 	ldr.w	fp, [pc, #508]	; dca30 <_strtod_l+0xc10>
   dc836:	f04f 3aff 	mov.w	sl, #4294967295	; 0xffffffff
   dc83a:	991e      	ldr	r1, [sp, #120]	; 0x78
   dc83c:	4620      	mov	r0, r4
   dc83e:	f000 fd7b 	bl	dd338 <_Bfree>
   dc842:	9907      	ldr	r1, [sp, #28]
   dc844:	4620      	mov	r0, r4
   dc846:	f000 fd77 	bl	dd338 <_Bfree>
   dc84a:	4631      	mov	r1, r6
   dc84c:	4620      	mov	r0, r4
   dc84e:	f000 fd73 	bl	dd338 <_Bfree>
   dc852:	4629      	mov	r1, r5
   dc854:	4620      	mov	r0, r4
   dc856:	f000 fd6f 	bl	dd338 <_Bfree>
   dc85a:	e613      	b.n	dc484 <_strtod_l+0x664>
   dc85c:	f1ba 0f00 	cmp.w	sl, #0
   dc860:	d11b      	bne.n	dc89a <_strtod_l+0xa7a>
   dc862:	f3cb 0313 	ubfx	r3, fp, #0, #20
   dc866:	b9f3      	cbnz	r3, dc8a6 <_strtod_l+0xa86>
   dc868:	4b6b      	ldr	r3, [pc, #428]	; (dca18 <_strtod_l+0xbf8>)
   dc86a:	2200      	movs	r2, #0
   dc86c:	4640      	mov	r0, r8
   dc86e:	4649      	mov	r1, r9
   dc870:	f7ff f86a 	bl	db948 <__aeabi_dcmplt>
   dc874:	b9d0      	cbnz	r0, dc8ac <_strtod_l+0xa8c>
   dc876:	4640      	mov	r0, r8
   dc878:	4649      	mov	r1, r9
   dc87a:	4b6b      	ldr	r3, [pc, #428]	; (dca28 <_strtod_l+0xc08>)
   dc87c:	2200      	movs	r2, #0
   dc87e:	f7fe fdf1 	bl	db464 <__aeabi_dmul>
   dc882:	4680      	mov	r8, r0
   dc884:	4689      	mov	r9, r1
   dc886:	f109 4300 	add.w	r3, r9, #2147483648	; 0x80000000
   dc88a:	f8cd 8068 	str.w	r8, [sp, #104]	; 0x68
   dc88e:	931b      	str	r3, [sp, #108]	; 0x6c
   dc890:	e9dd 231a 	ldrd	r2, r3, [sp, #104]	; 0x68
   dc894:	e9cd 230c 	strd	r2, r3, [sp, #48]	; 0x30
   dc898:	e79b      	b.n	dc7d2 <_strtod_l+0x9b2>
   dc89a:	f1ba 0f01 	cmp.w	sl, #1
   dc89e:	d102      	bne.n	dc8a6 <_strtod_l+0xa86>
   dc8a0:	2f00      	cmp	r7, #0
   dc8a2:	f43f ad7e 	beq.w	dc3a2 <_strtod_l+0x582>
   dc8a6:	4b61      	ldr	r3, [pc, #388]	; (dca2c <_strtod_l+0xc0c>)
   dc8a8:	2200      	movs	r2, #0
   dc8aa:	e78c      	b.n	dc7c6 <_strtod_l+0x9a6>
   dc8ac:	f8df 9178 	ldr.w	r9, [pc, #376]	; dca28 <_strtod_l+0xc08>
   dc8b0:	f04f 0800 	mov.w	r8, #0
   dc8b4:	e7e7      	b.n	dc886 <_strtod_l+0xa66>
   dc8b6:	4b5c      	ldr	r3, [pc, #368]	; (dca28 <_strtod_l+0xc08>)
   dc8b8:	4640      	mov	r0, r8
   dc8ba:	4649      	mov	r1, r9
   dc8bc:	2200      	movs	r2, #0
   dc8be:	f7fe fdd1 	bl	db464 <__aeabi_dmul>
   dc8c2:	9b0f      	ldr	r3, [sp, #60]	; 0x3c
   dc8c4:	4680      	mov	r8, r0
   dc8c6:	4689      	mov	r9, r1
   dc8c8:	b933      	cbnz	r3, dc8d8 <_strtod_l+0xab8>
   dc8ca:	f101 4300 	add.w	r3, r1, #2147483648	; 0x80000000
   dc8ce:	9012      	str	r0, [sp, #72]	; 0x48
   dc8d0:	9313      	str	r3, [sp, #76]	; 0x4c
   dc8d2:	e9dd 2312 	ldrd	r2, r3, [sp, #72]	; 0x48
   dc8d6:	e7dd      	b.n	dc894 <_strtod_l+0xa74>
   dc8d8:	e9cd 8912 	strd	r8, r9, [sp, #72]	; 0x48
   dc8dc:	e7f9      	b.n	dc8d2 <_strtod_l+0xab2>
   dc8de:	f103 7b54 	add.w	fp, r3, #55574528	; 0x3500000
   dc8e2:	9b04      	ldr	r3, [sp, #16]
   dc8e4:	2b00      	cmp	r3, #0
   dc8e6:	d1a8      	bne.n	dc83a <_strtod_l+0xa1a>
   dc8e8:	f02b 4300 	bic.w	r3, fp, #2147483648	; 0x80000000
   dc8ec:	9a11      	ldr	r2, [sp, #68]	; 0x44
   dc8ee:	0d1b      	lsrs	r3, r3, #20
   dc8f0:	051b      	lsls	r3, r3, #20
   dc8f2:	429a      	cmp	r2, r3
   dc8f4:	d1a1      	bne.n	dc83a <_strtod_l+0xa1a>
   dc8f6:	4640      	mov	r0, r8
   dc8f8:	4649      	mov	r1, r9
   dc8fa:	f001 f955 	bl	ddba8 <__aeabi_d2lz>
   dc8fe:	f7fe fd83 	bl	db408 <__aeabi_l2d>
   dc902:	4602      	mov	r2, r0
   dc904:	460b      	mov	r3, r1
   dc906:	4640      	mov	r0, r8
   dc908:	4649      	mov	r1, r9
   dc90a:	f7fe fbf3 	bl	db0f4 <__aeabi_dsub>
   dc90e:	9a0f      	ldr	r2, [sp, #60]	; 0x3c
   dc910:	f3cb 0313 	ubfx	r3, fp, #0, #20
   dc914:	ea43 030a 	orr.w	r3, r3, sl
   dc918:	4313      	orrs	r3, r2
   dc91a:	4680      	mov	r8, r0
   dc91c:	4689      	mov	r9, r1
   dc91e:	d053      	beq.n	dc9c8 <_strtod_l+0xba8>
   dc920:	a335      	add	r3, pc, #212	; (adr r3, dc9f8 <_strtod_l+0xbd8>)
   dc922:	e9d3 2300 	ldrd	r2, r3, [r3]
   dc926:	f7ff f80f 	bl	db948 <__aeabi_dcmplt>
   dc92a:	2800      	cmp	r0, #0
   dc92c:	f47f acce 	bne.w	dc2cc <_strtod_l+0x4ac>
   dc930:	a333      	add	r3, pc, #204	; (adr r3, dca00 <_strtod_l+0xbe0>)
   dc932:	e9d3 2300 	ldrd	r2, r3, [r3]
   dc936:	4640      	mov	r0, r8
   dc938:	4649      	mov	r1, r9
   dc93a:	f7ff f823 	bl	db984 <__aeabi_dcmpgt>
   dc93e:	2800      	cmp	r0, #0
   dc940:	f43f af7b 	beq.w	dc83a <_strtod_l+0xa1a>
   dc944:	e4c2      	b.n	dc2cc <_strtod_l+0x4ac>
   dc946:	9b04      	ldr	r3, [sp, #16]
   dc948:	b333      	cbz	r3, dc998 <_strtod_l+0xb78>
   dc94a:	9b11      	ldr	r3, [sp, #68]	; 0x44
   dc94c:	f1b3 6fd4 	cmp.w	r3, #111149056	; 0x6a00000
   dc950:	d822      	bhi.n	dc998 <_strtod_l+0xb78>
   dc952:	a32d      	add	r3, pc, #180	; (adr r3, dca08 <_strtod_l+0xbe8>)
   dc954:	e9d3 2300 	ldrd	r2, r3, [r3]
   dc958:	4640      	mov	r0, r8
   dc95a:	4649      	mov	r1, r9
   dc95c:	f7fe fffe 	bl	db95c <__aeabi_dcmple>
   dc960:	b1a0      	cbz	r0, dc98c <_strtod_l+0xb6c>
   dc962:	4649      	mov	r1, r9
   dc964:	4640      	mov	r0, r8
   dc966:	f7ff f855 	bl	dba14 <__aeabi_d2uiz>
   dc96a:	2801      	cmp	r0, #1
   dc96c:	bf38      	it	cc
   dc96e:	2001      	movcc	r0, #1
   dc970:	f7fe fcfe 	bl	db370 <__aeabi_ui2d>
   dc974:	9b0f      	ldr	r3, [sp, #60]	; 0x3c
   dc976:	4680      	mov	r8, r0
   dc978:	4689      	mov	r9, r1
   dc97a:	bb13      	cbnz	r3, dc9c2 <_strtod_l+0xba2>
   dc97c:	f101 4300 	add.w	r3, r1, #2147483648	; 0x80000000
   dc980:	9014      	str	r0, [sp, #80]	; 0x50
   dc982:	9315      	str	r3, [sp, #84]	; 0x54
   dc984:	e9dd 2314 	ldrd	r2, r3, [sp, #80]	; 0x50
   dc988:	e9cd 230c 	strd	r2, r3, [sp, #48]	; 0x30
   dc98c:	9b0d      	ldr	r3, [sp, #52]	; 0x34
   dc98e:	9a11      	ldr	r2, [sp, #68]	; 0x44
   dc990:	f103 63d6 	add.w	r3, r3, #112197632	; 0x6b00000
   dc994:	1a9b      	subs	r3, r3, r2
   dc996:	930d      	str	r3, [sp, #52]	; 0x34
   dc998:	e9dd 010c 	ldrd	r0, r1, [sp, #48]	; 0x30
   dc99c:	ed9d 0b0a 	vldr	d0, [sp, #40]	; 0x28
   dc9a0:	e9cd 010c 	strd	r0, r1, [sp, #48]	; 0x30
   dc9a4:	f000 ff90 	bl	dd8c8 <__ulp>
   dc9a8:	e9dd 010c 	ldrd	r0, r1, [sp, #48]	; 0x30
   dc9ac:	ec53 2b10 	vmov	r2, r3, d0
   dc9b0:	f7fe fd58 	bl	db464 <__aeabi_dmul>
   dc9b4:	e9dd 230a 	ldrd	r2, r3, [sp, #40]	; 0x28
   dc9b8:	f7fe fb9e 	bl	db0f8 <__adddf3>
   dc9bc:	4682      	mov	sl, r0
   dc9be:	468b      	mov	fp, r1
   dc9c0:	e78f      	b.n	dc8e2 <_strtod_l+0xac2>
   dc9c2:	e9cd 8914 	strd	r8, r9, [sp, #80]	; 0x50
   dc9c6:	e7dd      	b.n	dc984 <_strtod_l+0xb64>
   dc9c8:	a311      	add	r3, pc, #68	; (adr r3, dca10 <_strtod_l+0xbf0>)
   dc9ca:	e9d3 2300 	ldrd	r2, r3, [r3]
   dc9ce:	f7fe ffbb 	bl	db948 <__aeabi_dcmplt>
   dc9d2:	e7b4      	b.n	dc93e <_strtod_l+0xb1e>
   dc9d4:	2300      	movs	r3, #0
   dc9d6:	930e      	str	r3, [sp, #56]	; 0x38
   dc9d8:	9a19      	ldr	r2, [sp, #100]	; 0x64
   dc9da:	9b1d      	ldr	r3, [sp, #116]	; 0x74
   dc9dc:	6013      	str	r3, [r2, #0]
   dc9de:	f7ff ba65 	b.w	dbeac <_strtod_l+0x8c>
   dc9e2:	2b65      	cmp	r3, #101	; 0x65
   dc9e4:	f43f ab5d 	beq.w	dc0a2 <_strtod_l+0x282>
   dc9e8:	2b45      	cmp	r3, #69	; 0x45
   dc9ea:	f43f ab5a 	beq.w	dc0a2 <_strtod_l+0x282>
   dc9ee:	2201      	movs	r2, #1
   dc9f0:	f7ff bb92 	b.w	dc118 <_strtod_l+0x2f8>
   dc9f4:	f3af 8000 	nop.w
   dc9f8:	94a03595 	.word	0x94a03595
   dc9fc:	3fdfffff 	.word	0x3fdfffff
   dca00:	35afe535 	.word	0x35afe535
   dca04:	3fe00000 	.word	0x3fe00000
   dca08:	ffc00000 	.word	0xffc00000
   dca0c:	41dfffff 	.word	0x41dfffff
   dca10:	94a03595 	.word	0x94a03595
   dca14:	3fcfffff 	.word	0x3fcfffff
   dca18:	3ff00000 	.word	0x3ff00000
   dca1c:	7ff00000 	.word	0x7ff00000
   dca20:	7fe00000 	.word	0x7fe00000
   dca24:	7c9fffff 	.word	0x7c9fffff
   dca28:	3fe00000 	.word	0x3fe00000
   dca2c:	bff00000 	.word	0xbff00000
   dca30:	7fefffff 	.word	0x7fefffff

000dca34 <strtof>:
   dca34:	e92d 4370 	stmdb	sp!, {r4, r5, r6, r8, r9, lr}
   dca38:	4e26      	ldr	r6, [pc, #152]	; (dcad4 <strtof+0xa0>)
   dca3a:	4b27      	ldr	r3, [pc, #156]	; (dcad8 <strtof+0xa4>)
   dca3c:	460a      	mov	r2, r1
   dca3e:	ed2d 8b02 	vpush	{d8}
   dca42:	4601      	mov	r1, r0
   dca44:	6830      	ldr	r0, [r6, #0]
   dca46:	f7ff f9eb 	bl	dbe20 <_strtod_l>
   dca4a:	ec55 4b10 	vmov	r4, r5, d0
   dca4e:	ee10 2a10 	vmov	r2, s0
   dca52:	ee10 0a10 	vmov	r0, s0
   dca56:	462b      	mov	r3, r5
   dca58:	4629      	mov	r1, r5
   dca5a:	f7fe ff9d 	bl	db998 <__aeabi_dcmpun>
   dca5e:	b190      	cbz	r0, dca86 <strtof+0x52>
   dca60:	2d00      	cmp	r5, #0
   dca62:	481e      	ldr	r0, [pc, #120]	; (dcadc <strtof+0xa8>)
   dca64:	da09      	bge.n	dca7a <strtof+0x46>
   dca66:	f001 f88b 	bl	ddb80 <nanf>
   dca6a:	eeb1 8a40 	vneg.f32	s16, s0
   dca6e:	eeb0 0a48 	vmov.f32	s0, s16
   dca72:	ecbd 8b02 	vpop	{d8}
   dca76:	e8bd 8370 	ldmia.w	sp!, {r4, r5, r6, r8, r9, pc}
   dca7a:	ecbd 8b02 	vpop	{d8}
   dca7e:	e8bd 4370 	ldmia.w	sp!, {r4, r5, r6, r8, r9, lr}
   dca82:	f001 b87d 	b.w	ddb80 <nanf>
   dca86:	4620      	mov	r0, r4
   dca88:	4629      	mov	r1, r5
   dca8a:	f7fe ffe3 	bl	dba54 <__aeabi_d2f>
   dca8e:	ee08 0a10 	vmov	s16, r0
   dca92:	eddf 7a13 	vldr	s15, [pc, #76]	; dcae0 <strtof+0xac>
   dca96:	eeb0 7ac8 	vabs.f32	s14, s16
   dca9a:	eeb4 7a67 	vcmp.f32	s14, s15
   dca9e:	eef1 fa10 	vmrs	APSR_nzcv, fpscr
   dcaa2:	dde4      	ble.n	dca6e <strtof+0x3a>
   dcaa4:	f025 4900 	bic.w	r9, r5, #2147483648	; 0x80000000
   dcaa8:	4b0e      	ldr	r3, [pc, #56]	; (dcae4 <strtof+0xb0>)
   dcaaa:	f04f 32ff 	mov.w	r2, #4294967295	; 0xffffffff
   dcaae:	4620      	mov	r0, r4
   dcab0:	4649      	mov	r1, r9
   dcab2:	f7fe ff71 	bl	db998 <__aeabi_dcmpun>
   dcab6:	b940      	cbnz	r0, dcaca <strtof+0x96>
   dcab8:	4b0a      	ldr	r3, [pc, #40]	; (dcae4 <strtof+0xb0>)
   dcaba:	f04f 32ff 	mov.w	r2, #4294967295	; 0xffffffff
   dcabe:	4620      	mov	r0, r4
   dcac0:	4649      	mov	r1, r9
   dcac2:	f7fe ff4b 	bl	db95c <__aeabi_dcmple>
   dcac6:	2800      	cmp	r0, #0
   dcac8:	d0d1      	beq.n	dca6e <strtof+0x3a>
   dcaca:	6833      	ldr	r3, [r6, #0]
   dcacc:	2222      	movs	r2, #34	; 0x22
   dcace:	601a      	str	r2, [r3, #0]
   dcad0:	e7cd      	b.n	dca6e <strtof+0x3a>
   dcad2:	bf00      	nop
   dcad4:	2003e1e8 	.word	0x2003e1e8
   dcad8:	2003e250 	.word	0x2003e250
   dcadc:	000de851 	.word	0x000de851
   dcae0:	7f7fffff 	.word	0x7f7fffff
   dcae4:	7fefffff 	.word	0x7fefffff

000dcae8 <_strtol_l.isra.0>:
   dcae8:	e92d 47f0 	stmdb	sp!, {r4, r5, r6, r7, r8, r9, sl, lr}
   dcaec:	4e3a      	ldr	r6, [pc, #232]	; (dcbd8 <_strtol_l.isra.0+0xf0>)
   dcaee:	4686      	mov	lr, r0
   dcaf0:	468c      	mov	ip, r1
   dcaf2:	4660      	mov	r0, ip
   dcaf4:	f81c 4b01 	ldrb.w	r4, [ip], #1
   dcaf8:	5da5      	ldrb	r5, [r4, r6]
   dcafa:	f015 0508 	ands.w	r5, r5, #8
   dcafe:	d1f8      	bne.n	dcaf2 <_strtol_l.isra.0+0xa>
   dcb00:	2c2d      	cmp	r4, #45	; 0x2d
   dcb02:	d133      	bne.n	dcb6c <_strtol_l.isra.0+0x84>
   dcb04:	f89c 4000 	ldrb.w	r4, [ip]
   dcb08:	f04f 0801 	mov.w	r8, #1
   dcb0c:	f100 0c02 	add.w	ip, r0, #2
   dcb10:	2b00      	cmp	r3, #0
   dcb12:	d05c      	beq.n	dcbce <_strtol_l.isra.0+0xe6>
   dcb14:	2b10      	cmp	r3, #16
   dcb16:	d10c      	bne.n	dcb32 <_strtol_l.isra.0+0x4a>
   dcb18:	2c30      	cmp	r4, #48	; 0x30
   dcb1a:	d10a      	bne.n	dcb32 <_strtol_l.isra.0+0x4a>
   dcb1c:	f89c 0000 	ldrb.w	r0, [ip]
   dcb20:	f000 00df 	and.w	r0, r0, #223	; 0xdf
   dcb24:	2858      	cmp	r0, #88	; 0x58
   dcb26:	d14d      	bne.n	dcbc4 <_strtol_l.isra.0+0xdc>
   dcb28:	f89c 4001 	ldrb.w	r4, [ip, #1]
   dcb2c:	2310      	movs	r3, #16
   dcb2e:	f10c 0c02 	add.w	ip, ip, #2
   dcb32:	f108 4700 	add.w	r7, r8, #2147483648	; 0x80000000
   dcb36:	3f01      	subs	r7, #1
   dcb38:	2600      	movs	r6, #0
   dcb3a:	fbb7 f9f3 	udiv	r9, r7, r3
   dcb3e:	4630      	mov	r0, r6
   dcb40:	fb03 7a19 	mls	sl, r3, r9, r7
   dcb44:	f1a4 0530 	sub.w	r5, r4, #48	; 0x30
   dcb48:	2d09      	cmp	r5, #9
   dcb4a:	d818      	bhi.n	dcb7e <_strtol_l.isra.0+0x96>
   dcb4c:	462c      	mov	r4, r5
   dcb4e:	42a3      	cmp	r3, r4
   dcb50:	dd24      	ble.n	dcb9c <_strtol_l.isra.0+0xb4>
   dcb52:	1c75      	adds	r5, r6, #1
   dcb54:	d007      	beq.n	dcb66 <_strtol_l.isra.0+0x7e>
   dcb56:	4581      	cmp	r9, r0
   dcb58:	d31d      	bcc.n	dcb96 <_strtol_l.isra.0+0xae>
   dcb5a:	d101      	bne.n	dcb60 <_strtol_l.isra.0+0x78>
   dcb5c:	45a2      	cmp	sl, r4
   dcb5e:	db1a      	blt.n	dcb96 <_strtol_l.isra.0+0xae>
   dcb60:	fb00 4003 	mla	r0, r0, r3, r4
   dcb64:	2601      	movs	r6, #1
   dcb66:	f81c 4b01 	ldrb.w	r4, [ip], #1
   dcb6a:	e7eb      	b.n	dcb44 <_strtol_l.isra.0+0x5c>
   dcb6c:	2c2b      	cmp	r4, #43	; 0x2b
   dcb6e:	bf08      	it	eq
   dcb70:	f89c 4000 	ldrbeq.w	r4, [ip]
   dcb74:	46a8      	mov	r8, r5
   dcb76:	bf08      	it	eq
   dcb78:	f100 0c02 	addeq.w	ip, r0, #2
   dcb7c:	e7c8      	b.n	dcb10 <_strtol_l.isra.0+0x28>
   dcb7e:	f1a4 0541 	sub.w	r5, r4, #65	; 0x41
   dcb82:	2d19      	cmp	r5, #25
   dcb84:	d801      	bhi.n	dcb8a <_strtol_l.isra.0+0xa2>
   dcb86:	3c37      	subs	r4, #55	; 0x37
   dcb88:	e7e1      	b.n	dcb4e <_strtol_l.isra.0+0x66>
   dcb8a:	f1a4 0561 	sub.w	r5, r4, #97	; 0x61
   dcb8e:	2d19      	cmp	r5, #25
   dcb90:	d804      	bhi.n	dcb9c <_strtol_l.isra.0+0xb4>
   dcb92:	3c57      	subs	r4, #87	; 0x57
   dcb94:	e7db      	b.n	dcb4e <_strtol_l.isra.0+0x66>
   dcb96:	f04f 36ff 	mov.w	r6, #4294967295	; 0xffffffff
   dcb9a:	e7e4      	b.n	dcb66 <_strtol_l.isra.0+0x7e>
   dcb9c:	1c73      	adds	r3, r6, #1
   dcb9e:	d106      	bne.n	dcbae <_strtol_l.isra.0+0xc6>
   dcba0:	2322      	movs	r3, #34	; 0x22
   dcba2:	f8ce 3000 	str.w	r3, [lr]
   dcba6:	4638      	mov	r0, r7
   dcba8:	b942      	cbnz	r2, dcbbc <_strtol_l.isra.0+0xd4>
   dcbaa:	e8bd 87f0 	ldmia.w	sp!, {r4, r5, r6, r7, r8, r9, sl, pc}
   dcbae:	f1b8 0f00 	cmp.w	r8, #0
   dcbb2:	d000      	beq.n	dcbb6 <_strtol_l.isra.0+0xce>
   dcbb4:	4240      	negs	r0, r0
   dcbb6:	2a00      	cmp	r2, #0
   dcbb8:	d0f7      	beq.n	dcbaa <_strtol_l.isra.0+0xc2>
   dcbba:	b10e      	cbz	r6, dcbc0 <_strtol_l.isra.0+0xd8>
   dcbbc:	f10c 31ff 	add.w	r1, ip, #4294967295	; 0xffffffff
   dcbc0:	6011      	str	r1, [r2, #0]
   dcbc2:	e7f2      	b.n	dcbaa <_strtol_l.isra.0+0xc2>
   dcbc4:	2430      	movs	r4, #48	; 0x30
   dcbc6:	2b00      	cmp	r3, #0
   dcbc8:	d1b3      	bne.n	dcb32 <_strtol_l.isra.0+0x4a>
   dcbca:	2308      	movs	r3, #8
   dcbcc:	e7b1      	b.n	dcb32 <_strtol_l.isra.0+0x4a>
   dcbce:	2c30      	cmp	r4, #48	; 0x30
   dcbd0:	d0a4      	beq.n	dcb1c <_strtol_l.isra.0+0x34>
   dcbd2:	230a      	movs	r3, #10
   dcbd4:	e7ad      	b.n	dcb32 <_strtol_l.isra.0+0x4a>
   dcbd6:	bf00      	nop
   dcbd8:	000dea91 	.word	0x000dea91

000dcbdc <strtol>:
   dcbdc:	4613      	mov	r3, r2
   dcbde:	460a      	mov	r2, r1
   dcbe0:	4601      	mov	r1, r0
   dcbe2:	4802      	ldr	r0, [pc, #8]	; (dcbec <strtol+0x10>)
   dcbe4:	6800      	ldr	r0, [r0, #0]
   dcbe6:	f7ff bf7f 	b.w	dcae8 <_strtol_l.isra.0>
   dcbea:	bf00      	nop
   dcbec:	2003e1e8 	.word	0x2003e1e8

000dcbf0 <rshift>:
   dcbf0:	6903      	ldr	r3, [r0, #16]
   dcbf2:	ebb3 1f61 	cmp.w	r3, r1, asr #5
   dcbf6:	e92d 43f0 	stmdb	sp!, {r4, r5, r6, r7, r8, r9, lr}
   dcbfa:	ea4f 1261 	mov.w	r2, r1, asr #5
   dcbfe:	f100 0414 	add.w	r4, r0, #20
   dcc02:	dd45      	ble.n	dcc90 <rshift+0xa0>
   dcc04:	f011 011f 	ands.w	r1, r1, #31
   dcc08:	eb04 0683 	add.w	r6, r4, r3, lsl #2
   dcc0c:	eb04 0582 	add.w	r5, r4, r2, lsl #2
   dcc10:	d10c      	bne.n	dcc2c <rshift+0x3c>
   dcc12:	f100 0710 	add.w	r7, r0, #16
   dcc16:	4629      	mov	r1, r5
   dcc18:	42b1      	cmp	r1, r6
   dcc1a:	d334      	bcc.n	dcc86 <rshift+0x96>
   dcc1c:	1a9b      	subs	r3, r3, r2
   dcc1e:	009b      	lsls	r3, r3, #2
   dcc20:	1eea      	subs	r2, r5, #3
   dcc22:	4296      	cmp	r6, r2
   dcc24:	bf38      	it	cc
   dcc26:	2300      	movcc	r3, #0
   dcc28:	4423      	add	r3, r4
   dcc2a:	e015      	b.n	dcc58 <rshift+0x68>
   dcc2c:	f854 7022 	ldr.w	r7, [r4, r2, lsl #2]
   dcc30:	f1c1 0820 	rsb	r8, r1, #32
   dcc34:	40cf      	lsrs	r7, r1
   dcc36:	f105 0e04 	add.w	lr, r5, #4
   dcc3a:	46a1      	mov	r9, r4
   dcc3c:	4576      	cmp	r6, lr
   dcc3e:	46f4      	mov	ip, lr
   dcc40:	d815      	bhi.n	dcc6e <rshift+0x7e>
   dcc42:	1a9b      	subs	r3, r3, r2
   dcc44:	009a      	lsls	r2, r3, #2
   dcc46:	3a04      	subs	r2, #4
   dcc48:	3501      	adds	r5, #1
   dcc4a:	42ae      	cmp	r6, r5
   dcc4c:	bf38      	it	cc
   dcc4e:	2200      	movcc	r2, #0
   dcc50:	18a3      	adds	r3, r4, r2
   dcc52:	50a7      	str	r7, [r4, r2]
   dcc54:	b107      	cbz	r7, dcc58 <rshift+0x68>
   dcc56:	3304      	adds	r3, #4
   dcc58:	1b1a      	subs	r2, r3, r4
   dcc5a:	42a3      	cmp	r3, r4
   dcc5c:	ea4f 02a2 	mov.w	r2, r2, asr #2
   dcc60:	bf08      	it	eq
   dcc62:	2300      	moveq	r3, #0
   dcc64:	6102      	str	r2, [r0, #16]
   dcc66:	bf08      	it	eq
   dcc68:	6143      	streq	r3, [r0, #20]
   dcc6a:	e8bd 83f0 	ldmia.w	sp!, {r4, r5, r6, r7, r8, r9, pc}
   dcc6e:	f8dc c000 	ldr.w	ip, [ip]
   dcc72:	fa0c fc08 	lsl.w	ip, ip, r8
   dcc76:	ea4c 0707 	orr.w	r7, ip, r7
   dcc7a:	f849 7b04 	str.w	r7, [r9], #4
   dcc7e:	f85e 7b04 	ldr.w	r7, [lr], #4
   dcc82:	40cf      	lsrs	r7, r1
   dcc84:	e7da      	b.n	dcc3c <rshift+0x4c>
   dcc86:	f851 cb04 	ldr.w	ip, [r1], #4
   dcc8a:	f847 cf04 	str.w	ip, [r7, #4]!
   dcc8e:	e7c3      	b.n	dcc18 <rshift+0x28>
   dcc90:	4623      	mov	r3, r4
   dcc92:	e7e1      	b.n	dcc58 <rshift+0x68>

000dcc94 <__hexdig_fun>:
   dcc94:	f1a0 0330 	sub.w	r3, r0, #48	; 0x30
   dcc98:	2b09      	cmp	r3, #9
   dcc9a:	d802      	bhi.n	dcca2 <__hexdig_fun+0xe>
   dcc9c:	3820      	subs	r0, #32
   dcc9e:	b2c0      	uxtb	r0, r0
   dcca0:	4770      	bx	lr
   dcca2:	f1a0 0361 	sub.w	r3, r0, #97	; 0x61
   dcca6:	2b05      	cmp	r3, #5
   dcca8:	d801      	bhi.n	dccae <__hexdig_fun+0x1a>
   dccaa:	3847      	subs	r0, #71	; 0x47
   dccac:	e7f7      	b.n	dcc9e <__hexdig_fun+0xa>
   dccae:	f1a0 0341 	sub.w	r3, r0, #65	; 0x41
   dccb2:	2b05      	cmp	r3, #5
   dccb4:	d801      	bhi.n	dccba <__hexdig_fun+0x26>
   dccb6:	3827      	subs	r0, #39	; 0x27
   dccb8:	e7f1      	b.n	dcc9e <__hexdig_fun+0xa>
   dccba:	2000      	movs	r0, #0
   dccbc:	4770      	bx	lr
	...

000dccc0 <__gethex>:
   dccc0:	e92d 4ff0 	stmdb	sp!, {r4, r5, r6, r7, r8, r9, sl, fp, lr}
   dccc4:	ed2d 8b02 	vpush	{d8}
   dccc8:	b089      	sub	sp, #36	; 0x24
   dccca:	ee08 0a10 	vmov	s16, r0
   dccce:	9304      	str	r3, [sp, #16]
   dccd0:	4bbc      	ldr	r3, [pc, #752]	; (dcfc4 <__gethex+0x304>)
   dccd2:	681b      	ldr	r3, [r3, #0]
   dccd4:	9301      	str	r3, [sp, #4]
   dccd6:	4618      	mov	r0, r3
   dccd8:	468b      	mov	fp, r1
   dccda:	4690      	mov	r8, r2
   dccdc:	f7ff f841 	bl	dbd62 <strlen>
   dcce0:	9b01      	ldr	r3, [sp, #4]
   dcce2:	f8db 2000 	ldr.w	r2, [fp]
   dcce6:	4403      	add	r3, r0
   dcce8:	4682      	mov	sl, r0
   dccea:	f813 3c01 	ldrb.w	r3, [r3, #-1]
   dccee:	9305      	str	r3, [sp, #20]
   dccf0:	1c93      	adds	r3, r2, #2
   dccf2:	f1c2 22ff 	rsb	r2, r2, #4278255360	; 0xff00ff00
   dccf6:	f502 027f 	add.w	r2, r2, #16711680	; 0xff0000
   dccfa:	32fe      	adds	r2, #254	; 0xfe
   dccfc:	18d1      	adds	r1, r2, r3
   dccfe:	461f      	mov	r7, r3
   dcd00:	f813 0b01 	ldrb.w	r0, [r3], #1
   dcd04:	9100      	str	r1, [sp, #0]
   dcd06:	2830      	cmp	r0, #48	; 0x30
   dcd08:	d0f8      	beq.n	dccfc <__gethex+0x3c>
   dcd0a:	f7ff ffc3 	bl	dcc94 <__hexdig_fun>
   dcd0e:	4604      	mov	r4, r0
   dcd10:	2800      	cmp	r0, #0
   dcd12:	d13a      	bne.n	dcd8a <__gethex+0xca>
   dcd14:	9901      	ldr	r1, [sp, #4]
   dcd16:	4652      	mov	r2, sl
   dcd18:	4638      	mov	r0, r7
   dcd1a:	f7ff f82a 	bl	dbd72 <strncmp>
   dcd1e:	4605      	mov	r5, r0
   dcd20:	2800      	cmp	r0, #0
   dcd22:	d168      	bne.n	dcdf6 <__gethex+0x136>
   dcd24:	f817 000a 	ldrb.w	r0, [r7, sl]
   dcd28:	eb07 060a 	add.w	r6, r7, sl
   dcd2c:	f7ff ffb2 	bl	dcc94 <__hexdig_fun>
   dcd30:	2800      	cmp	r0, #0
   dcd32:	d062      	beq.n	dcdfa <__gethex+0x13a>
   dcd34:	4633      	mov	r3, r6
   dcd36:	7818      	ldrb	r0, [r3, #0]
   dcd38:	2830      	cmp	r0, #48	; 0x30
   dcd3a:	461f      	mov	r7, r3
   dcd3c:	f103 0301 	add.w	r3, r3, #1
   dcd40:	d0f9      	beq.n	dcd36 <__gethex+0x76>
   dcd42:	f7ff ffa7 	bl	dcc94 <__hexdig_fun>
   dcd46:	2301      	movs	r3, #1
   dcd48:	fab0 f480 	clz	r4, r0
   dcd4c:	0964      	lsrs	r4, r4, #5
   dcd4e:	4635      	mov	r5, r6
   dcd50:	9300      	str	r3, [sp, #0]
   dcd52:	463a      	mov	r2, r7
   dcd54:	4616      	mov	r6, r2
   dcd56:	3201      	adds	r2, #1
   dcd58:	7830      	ldrb	r0, [r6, #0]
   dcd5a:	f7ff ff9b 	bl	dcc94 <__hexdig_fun>
   dcd5e:	2800      	cmp	r0, #0
   dcd60:	d1f8      	bne.n	dcd54 <__gethex+0x94>
   dcd62:	9901      	ldr	r1, [sp, #4]
   dcd64:	4652      	mov	r2, sl
   dcd66:	4630      	mov	r0, r6
   dcd68:	f7ff f803 	bl	dbd72 <strncmp>
   dcd6c:	b980      	cbnz	r0, dcd90 <__gethex+0xd0>
   dcd6e:	b94d      	cbnz	r5, dcd84 <__gethex+0xc4>
   dcd70:	eb06 050a 	add.w	r5, r6, sl
   dcd74:	462a      	mov	r2, r5
   dcd76:	4616      	mov	r6, r2
   dcd78:	3201      	adds	r2, #1
   dcd7a:	7830      	ldrb	r0, [r6, #0]
   dcd7c:	f7ff ff8a 	bl	dcc94 <__hexdig_fun>
   dcd80:	2800      	cmp	r0, #0
   dcd82:	d1f8      	bne.n	dcd76 <__gethex+0xb6>
   dcd84:	1bad      	subs	r5, r5, r6
   dcd86:	00ad      	lsls	r5, r5, #2
   dcd88:	e004      	b.n	dcd94 <__gethex+0xd4>
   dcd8a:	2400      	movs	r4, #0
   dcd8c:	4625      	mov	r5, r4
   dcd8e:	e7e0      	b.n	dcd52 <__gethex+0x92>
   dcd90:	2d00      	cmp	r5, #0
   dcd92:	d1f7      	bne.n	dcd84 <__gethex+0xc4>
   dcd94:	7833      	ldrb	r3, [r6, #0]
   dcd96:	f003 03df 	and.w	r3, r3, #223	; 0xdf
   dcd9a:	2b50      	cmp	r3, #80	; 0x50
   dcd9c:	d13b      	bne.n	dce16 <__gethex+0x156>
   dcd9e:	7873      	ldrb	r3, [r6, #1]
   dcda0:	2b2b      	cmp	r3, #43	; 0x2b
   dcda2:	d02c      	beq.n	dcdfe <__gethex+0x13e>
   dcda4:	2b2d      	cmp	r3, #45	; 0x2d
   dcda6:	d02e      	beq.n	dce06 <__gethex+0x146>
   dcda8:	1c71      	adds	r1, r6, #1
   dcdaa:	f04f 0900 	mov.w	r9, #0
   dcdae:	7808      	ldrb	r0, [r1, #0]
   dcdb0:	f7ff ff70 	bl	dcc94 <__hexdig_fun>
   dcdb4:	1e43      	subs	r3, r0, #1
   dcdb6:	b2db      	uxtb	r3, r3
   dcdb8:	2b18      	cmp	r3, #24
   dcdba:	d82c      	bhi.n	dce16 <__gethex+0x156>
   dcdbc:	f1a0 0210 	sub.w	r2, r0, #16
   dcdc0:	f811 0f01 	ldrb.w	r0, [r1, #1]!
   dcdc4:	f7ff ff66 	bl	dcc94 <__hexdig_fun>
   dcdc8:	1e43      	subs	r3, r0, #1
   dcdca:	b2db      	uxtb	r3, r3
   dcdcc:	2b18      	cmp	r3, #24
   dcdce:	d91d      	bls.n	dce0c <__gethex+0x14c>
   dcdd0:	f1b9 0f00 	cmp.w	r9, #0
   dcdd4:	d000      	beq.n	dcdd8 <__gethex+0x118>
   dcdd6:	4252      	negs	r2, r2
   dcdd8:	4415      	add	r5, r2
   dcdda:	f8cb 1000 	str.w	r1, [fp]
   dcdde:	b1e4      	cbz	r4, dce1a <__gethex+0x15a>
   dcde0:	9b00      	ldr	r3, [sp, #0]
   dcde2:	2b00      	cmp	r3, #0
   dcde4:	bf14      	ite	ne
   dcde6:	2700      	movne	r7, #0
   dcde8:	2706      	moveq	r7, #6
   dcdea:	4638      	mov	r0, r7
   dcdec:	b009      	add	sp, #36	; 0x24
   dcdee:	ecbd 8b02 	vpop	{d8}
   dcdf2:	e8bd 8ff0 	ldmia.w	sp!, {r4, r5, r6, r7, r8, r9, sl, fp, pc}
   dcdf6:	463e      	mov	r6, r7
   dcdf8:	4625      	mov	r5, r4
   dcdfa:	2401      	movs	r4, #1
   dcdfc:	e7ca      	b.n	dcd94 <__gethex+0xd4>
   dcdfe:	f04f 0900 	mov.w	r9, #0
   dce02:	1cb1      	adds	r1, r6, #2
   dce04:	e7d3      	b.n	dcdae <__gethex+0xee>
   dce06:	f04f 0901 	mov.w	r9, #1
   dce0a:	e7fa      	b.n	dce02 <__gethex+0x142>
   dce0c:	230a      	movs	r3, #10
   dce0e:	fb03 0202 	mla	r2, r3, r2, r0
   dce12:	3a10      	subs	r2, #16
   dce14:	e7d4      	b.n	dcdc0 <__gethex+0x100>
   dce16:	4631      	mov	r1, r6
   dce18:	e7df      	b.n	dcdda <__gethex+0x11a>
   dce1a:	1bf3      	subs	r3, r6, r7
   dce1c:	3b01      	subs	r3, #1
   dce1e:	4621      	mov	r1, r4
   dce20:	2b07      	cmp	r3, #7
   dce22:	dc52      	bgt.n	dceca <__gethex+0x20a>
   dce24:	ee18 0a10 	vmov	r0, s16
   dce28:	f000 fa52 	bl	dd2d0 <_Balloc>
   dce2c:	f04f 0b00 	mov.w	fp, #0
   dce30:	f100 0914 	add.w	r9, r0, #20
   dce34:	f1ca 0301 	rsb	r3, sl, #1
   dce38:	4604      	mov	r4, r0
   dce3a:	f8cd 9008 	str.w	r9, [sp, #8]
   dce3e:	f8cd b000 	str.w	fp, [sp]
   dce42:	9306      	str	r3, [sp, #24]
   dce44:	42b7      	cmp	r7, r6
   dce46:	d343      	bcc.n	dced0 <__gethex+0x210>
   dce48:	9802      	ldr	r0, [sp, #8]
   dce4a:	9b00      	ldr	r3, [sp, #0]
   dce4c:	f840 3b04 	str.w	r3, [r0], #4
   dce50:	eba0 0009 	sub.w	r0, r0, r9
   dce54:	1080      	asrs	r0, r0, #2
   dce56:	0146      	lsls	r6, r0, #5
   dce58:	6120      	str	r0, [r4, #16]
   dce5a:	4618      	mov	r0, r3
   dce5c:	f000 faff 	bl	dd45e <__hi0bits>
   dce60:	1a30      	subs	r0, r6, r0
   dce62:	f8d8 6000 	ldr.w	r6, [r8]
   dce66:	42b0      	cmp	r0, r6
   dce68:	dd66      	ble.n	dcf38 <__gethex+0x278>
   dce6a:	1b87      	subs	r7, r0, r6
   dce6c:	4639      	mov	r1, r7
   dce6e:	4620      	mov	r0, r4
   dce70:	f000 fe4c 	bl	ddb0c <__any_on>
   dce74:	4682      	mov	sl, r0
   dce76:	b1a8      	cbz	r0, dcea4 <__gethex+0x1e4>
   dce78:	1e7b      	subs	r3, r7, #1
   dce7a:	1159      	asrs	r1, r3, #5
   dce7c:	f003 021f 	and.w	r2, r3, #31
   dce80:	f859 1021 	ldr.w	r1, [r9, r1, lsl #2]
   dce84:	f04f 0a01 	mov.w	sl, #1
   dce88:	fa0a f202 	lsl.w	r2, sl, r2
   dce8c:	420a      	tst	r2, r1
   dce8e:	d009      	beq.n	dcea4 <__gethex+0x1e4>
   dce90:	4553      	cmp	r3, sl
   dce92:	dd05      	ble.n	dcea0 <__gethex+0x1e0>
   dce94:	1eb9      	subs	r1, r7, #2
   dce96:	4620      	mov	r0, r4
   dce98:	f000 fe38 	bl	ddb0c <__any_on>
   dce9c:	2800      	cmp	r0, #0
   dce9e:	d148      	bne.n	dcf32 <__gethex+0x272>
   dcea0:	f04f 0a02 	mov.w	sl, #2
   dcea4:	4639      	mov	r1, r7
   dcea6:	4620      	mov	r0, r4
   dcea8:	f7ff fea2 	bl	dcbf0 <rshift>
   dceac:	443d      	add	r5, r7
   dceae:	f8d8 3008 	ldr.w	r3, [r8, #8]
   dceb2:	42ab      	cmp	r3, r5
   dceb4:	da4f      	bge.n	dcf56 <__gethex+0x296>
   dceb6:	ee18 0a10 	vmov	r0, s16
   dceba:	4621      	mov	r1, r4
   dcebc:	f000 fa3c 	bl	dd338 <_Bfree>
   dcec0:	9a14      	ldr	r2, [sp, #80]	; 0x50
   dcec2:	2300      	movs	r3, #0
   dcec4:	6013      	str	r3, [r2, #0]
   dcec6:	27a3      	movs	r7, #163	; 0xa3
   dcec8:	e78f      	b.n	dcdea <__gethex+0x12a>
   dceca:	3101      	adds	r1, #1
   dcecc:	105b      	asrs	r3, r3, #1
   dcece:	e7a7      	b.n	dce20 <__gethex+0x160>
   dced0:	1e73      	subs	r3, r6, #1
   dced2:	9a05      	ldr	r2, [sp, #20]
   dced4:	9303      	str	r3, [sp, #12]
   dced6:	f816 3c01 	ldrb.w	r3, [r6, #-1]
   dceda:	4293      	cmp	r3, r2
   dcedc:	d019      	beq.n	dcf12 <__gethex+0x252>
   dcede:	f1bb 0f20 	cmp.w	fp, #32
   dcee2:	d107      	bne.n	dcef4 <__gethex+0x234>
   dcee4:	9b02      	ldr	r3, [sp, #8]
   dcee6:	9a00      	ldr	r2, [sp, #0]
   dcee8:	f843 2b04 	str.w	r2, [r3], #4
   dceec:	9302      	str	r3, [sp, #8]
   dceee:	2300      	movs	r3, #0
   dcef0:	9300      	str	r3, [sp, #0]
   dcef2:	469b      	mov	fp, r3
   dcef4:	f816 0c01 	ldrb.w	r0, [r6, #-1]
   dcef8:	f7ff fecc 	bl	dcc94 <__hexdig_fun>
   dcefc:	9b00      	ldr	r3, [sp, #0]
   dcefe:	f000 000f 	and.w	r0, r0, #15
   dcf02:	fa00 f00b 	lsl.w	r0, r0, fp
   dcf06:	4303      	orrs	r3, r0
   dcf08:	9300      	str	r3, [sp, #0]
   dcf0a:	f10b 0b04 	add.w	fp, fp, #4
   dcf0e:	9b03      	ldr	r3, [sp, #12]
   dcf10:	e00d      	b.n	dcf2e <__gethex+0x26e>
   dcf12:	9b03      	ldr	r3, [sp, #12]
   dcf14:	9a06      	ldr	r2, [sp, #24]
   dcf16:	4413      	add	r3, r2
   dcf18:	42bb      	cmp	r3, r7
   dcf1a:	d3e0      	bcc.n	dcede <__gethex+0x21e>
   dcf1c:	4618      	mov	r0, r3
   dcf1e:	9901      	ldr	r1, [sp, #4]
   dcf20:	9307      	str	r3, [sp, #28]
   dcf22:	4652      	mov	r2, sl
   dcf24:	f7fe ff25 	bl	dbd72 <strncmp>
   dcf28:	9b07      	ldr	r3, [sp, #28]
   dcf2a:	2800      	cmp	r0, #0
   dcf2c:	d1d7      	bne.n	dcede <__gethex+0x21e>
   dcf2e:	461e      	mov	r6, r3
   dcf30:	e788      	b.n	dce44 <__gethex+0x184>
   dcf32:	f04f 0a03 	mov.w	sl, #3
   dcf36:	e7b5      	b.n	dcea4 <__gethex+0x1e4>
   dcf38:	da0a      	bge.n	dcf50 <__gethex+0x290>
   dcf3a:	1a37      	subs	r7, r6, r0
   dcf3c:	4621      	mov	r1, r4
   dcf3e:	ee18 0a10 	vmov	r0, s16
   dcf42:	463a      	mov	r2, r7
   dcf44:	f000 fbce 	bl	dd6e4 <__lshift>
   dcf48:	1bed      	subs	r5, r5, r7
   dcf4a:	4604      	mov	r4, r0
   dcf4c:	f100 0914 	add.w	r9, r0, #20
   dcf50:	f04f 0a00 	mov.w	sl, #0
   dcf54:	e7ab      	b.n	dceae <__gethex+0x1ee>
   dcf56:	f8d8 0004 	ldr.w	r0, [r8, #4]
   dcf5a:	42a8      	cmp	r0, r5
   dcf5c:	dd6d      	ble.n	dd03a <__gethex+0x37a>
   dcf5e:	1b45      	subs	r5, r0, r5
   dcf60:	42ae      	cmp	r6, r5
   dcf62:	dc31      	bgt.n	dcfc8 <__gethex+0x308>
   dcf64:	f8d8 300c 	ldr.w	r3, [r8, #12]
   dcf68:	2b02      	cmp	r3, #2
   dcf6a:	d023      	beq.n	dcfb4 <__gethex+0x2f4>
   dcf6c:	2b03      	cmp	r3, #3
   dcf6e:	d025      	beq.n	dcfbc <__gethex+0x2fc>
   dcf70:	2b01      	cmp	r3, #1
   dcf72:	d115      	bne.n	dcfa0 <__gethex+0x2e0>
   dcf74:	42ae      	cmp	r6, r5
   dcf76:	d113      	bne.n	dcfa0 <__gethex+0x2e0>
   dcf78:	2e01      	cmp	r6, #1
   dcf7a:	d10b      	bne.n	dcf94 <__gethex+0x2d4>
   dcf7c:	9a04      	ldr	r2, [sp, #16]
   dcf7e:	f8d8 3004 	ldr.w	r3, [r8, #4]
   dcf82:	6013      	str	r3, [r2, #0]
   dcf84:	2301      	movs	r3, #1
   dcf86:	6123      	str	r3, [r4, #16]
   dcf88:	f8c9 3000 	str.w	r3, [r9]
   dcf8c:	9b14      	ldr	r3, [sp, #80]	; 0x50
   dcf8e:	2762      	movs	r7, #98	; 0x62
   dcf90:	601c      	str	r4, [r3, #0]
   dcf92:	e72a      	b.n	dcdea <__gethex+0x12a>
   dcf94:	1e71      	subs	r1, r6, #1
   dcf96:	4620      	mov	r0, r4
   dcf98:	f000 fdb8 	bl	ddb0c <__any_on>
   dcf9c:	2800      	cmp	r0, #0
   dcf9e:	d1ed      	bne.n	dcf7c <__gethex+0x2bc>
   dcfa0:	ee18 0a10 	vmov	r0, s16
   dcfa4:	4621      	mov	r1, r4
   dcfa6:	f000 f9c7 	bl	dd338 <_Bfree>
   dcfaa:	9a14      	ldr	r2, [sp, #80]	; 0x50
   dcfac:	2300      	movs	r3, #0
   dcfae:	6013      	str	r3, [r2, #0]
   dcfb0:	2750      	movs	r7, #80	; 0x50
   dcfb2:	e71a      	b.n	dcdea <__gethex+0x12a>
   dcfb4:	9b15      	ldr	r3, [sp, #84]	; 0x54
   dcfb6:	2b00      	cmp	r3, #0
   dcfb8:	d1f2      	bne.n	dcfa0 <__gethex+0x2e0>
   dcfba:	e7df      	b.n	dcf7c <__gethex+0x2bc>
   dcfbc:	9b15      	ldr	r3, [sp, #84]	; 0x54
   dcfbe:	2b00      	cmp	r3, #0
   dcfc0:	d1dc      	bne.n	dcf7c <__gethex+0x2bc>
   dcfc2:	e7ed      	b.n	dcfa0 <__gethex+0x2e0>
   dcfc4:	000deb94 	.word	0x000deb94
   dcfc8:	1e6f      	subs	r7, r5, #1
   dcfca:	f1ba 0f00 	cmp.w	sl, #0
   dcfce:	d131      	bne.n	dd034 <__gethex+0x374>
   dcfd0:	b127      	cbz	r7, dcfdc <__gethex+0x31c>
   dcfd2:	4639      	mov	r1, r7
   dcfd4:	4620      	mov	r0, r4
   dcfd6:	f000 fd99 	bl	ddb0c <__any_on>
   dcfda:	4682      	mov	sl, r0
   dcfdc:	117b      	asrs	r3, r7, #5
   dcfde:	2101      	movs	r1, #1
   dcfe0:	f859 3023 	ldr.w	r3, [r9, r3, lsl #2]
   dcfe4:	f007 071f 	and.w	r7, r7, #31
   dcfe8:	fa01 f707 	lsl.w	r7, r1, r7
   dcfec:	421f      	tst	r7, r3
   dcfee:	4629      	mov	r1, r5
   dcff0:	4620      	mov	r0, r4
   dcff2:	bf18      	it	ne
   dcff4:	f04a 0a02 	orrne.w	sl, sl, #2
   dcff8:	1b76      	subs	r6, r6, r5
   dcffa:	f7ff fdf9 	bl	dcbf0 <rshift>
   dcffe:	f8d8 5004 	ldr.w	r5, [r8, #4]
   dd002:	2702      	movs	r7, #2
   dd004:	f1ba 0f00 	cmp.w	sl, #0
   dd008:	d048      	beq.n	dd09c <__gethex+0x3dc>
   dd00a:	f8d8 300c 	ldr.w	r3, [r8, #12]
   dd00e:	2b02      	cmp	r3, #2
   dd010:	d015      	beq.n	dd03e <__gethex+0x37e>
   dd012:	2b03      	cmp	r3, #3
   dd014:	d017      	beq.n	dd046 <__gethex+0x386>
   dd016:	2b01      	cmp	r3, #1
   dd018:	d109      	bne.n	dd02e <__gethex+0x36e>
   dd01a:	f01a 0f02 	tst.w	sl, #2
   dd01e:	d006      	beq.n	dd02e <__gethex+0x36e>
   dd020:	f8d9 0000 	ldr.w	r0, [r9]
   dd024:	ea4a 0a00 	orr.w	sl, sl, r0
   dd028:	f01a 0f01 	tst.w	sl, #1
   dd02c:	d10e      	bne.n	dd04c <__gethex+0x38c>
   dd02e:	f047 0710 	orr.w	r7, r7, #16
   dd032:	e033      	b.n	dd09c <__gethex+0x3dc>
   dd034:	f04f 0a01 	mov.w	sl, #1
   dd038:	e7d0      	b.n	dcfdc <__gethex+0x31c>
   dd03a:	2701      	movs	r7, #1
   dd03c:	e7e2      	b.n	dd004 <__gethex+0x344>
   dd03e:	9b15      	ldr	r3, [sp, #84]	; 0x54
   dd040:	f1c3 0301 	rsb	r3, r3, #1
   dd044:	9315      	str	r3, [sp, #84]	; 0x54
   dd046:	9b15      	ldr	r3, [sp, #84]	; 0x54
   dd048:	2b00      	cmp	r3, #0
   dd04a:	d0f0      	beq.n	dd02e <__gethex+0x36e>
   dd04c:	f8d4 9010 	ldr.w	r9, [r4, #16]
   dd050:	f104 0314 	add.w	r3, r4, #20
   dd054:	ea4f 0b89 	mov.w	fp, r9, lsl #2
   dd058:	eb03 0189 	add.w	r1, r3, r9, lsl #2
   dd05c:	f04f 0c00 	mov.w	ip, #0
   dd060:	4618      	mov	r0, r3
   dd062:	f853 2b04 	ldr.w	r2, [r3], #4
   dd066:	f1b2 3fff 	cmp.w	r2, #4294967295	; 0xffffffff
   dd06a:	d01c      	beq.n	dd0a6 <__gethex+0x3e6>
   dd06c:	3201      	adds	r2, #1
   dd06e:	6002      	str	r2, [r0, #0]
   dd070:	2f02      	cmp	r7, #2
   dd072:	f104 0314 	add.w	r3, r4, #20
   dd076:	d13a      	bne.n	dd0ee <__gethex+0x42e>
   dd078:	f8d8 2000 	ldr.w	r2, [r8]
   dd07c:	3a01      	subs	r2, #1
   dd07e:	42b2      	cmp	r2, r6
   dd080:	d10a      	bne.n	dd098 <__gethex+0x3d8>
   dd082:	1171      	asrs	r1, r6, #5
   dd084:	2201      	movs	r2, #1
   dd086:	f853 3021 	ldr.w	r3, [r3, r1, lsl #2]
   dd08a:	f006 061f 	and.w	r6, r6, #31
   dd08e:	fa02 f606 	lsl.w	r6, r2, r6
   dd092:	421e      	tst	r6, r3
   dd094:	bf18      	it	ne
   dd096:	4617      	movne	r7, r2
   dd098:	f047 0720 	orr.w	r7, r7, #32
   dd09c:	9b14      	ldr	r3, [sp, #80]	; 0x50
   dd09e:	601c      	str	r4, [r3, #0]
   dd0a0:	9b04      	ldr	r3, [sp, #16]
   dd0a2:	601d      	str	r5, [r3, #0]
   dd0a4:	e6a1      	b.n	dcdea <__gethex+0x12a>
   dd0a6:	4299      	cmp	r1, r3
   dd0a8:	f843 cc04 	str.w	ip, [r3, #-4]
   dd0ac:	d8d8      	bhi.n	dd060 <__gethex+0x3a0>
   dd0ae:	68a3      	ldr	r3, [r4, #8]
   dd0b0:	4599      	cmp	r9, r3
   dd0b2:	db14      	blt.n	dd0de <__gethex+0x41e>
   dd0b4:	6861      	ldr	r1, [r4, #4]
   dd0b6:	ee18 0a10 	vmov	r0, s16
   dd0ba:	3101      	adds	r1, #1
   dd0bc:	f000 f908 	bl	dd2d0 <_Balloc>
   dd0c0:	6922      	ldr	r2, [r4, #16]
   dd0c2:	3202      	adds	r2, #2
   dd0c4:	f104 010c 	add.w	r1, r4, #12
   dd0c8:	4682      	mov	sl, r0
   dd0ca:	0092      	lsls	r2, r2, #2
   dd0cc:	300c      	adds	r0, #12
   dd0ce:	f7fe fdad 	bl	dbc2c <memcpy>
   dd0d2:	4621      	mov	r1, r4
   dd0d4:	ee18 0a10 	vmov	r0, s16
   dd0d8:	f000 f92e 	bl	dd338 <_Bfree>
   dd0dc:	4654      	mov	r4, sl
   dd0de:	6923      	ldr	r3, [r4, #16]
   dd0e0:	1c5a      	adds	r2, r3, #1
   dd0e2:	eb04 0383 	add.w	r3, r4, r3, lsl #2
   dd0e6:	6122      	str	r2, [r4, #16]
   dd0e8:	2201      	movs	r2, #1
   dd0ea:	615a      	str	r2, [r3, #20]
   dd0ec:	e7c0      	b.n	dd070 <__gethex+0x3b0>
   dd0ee:	6922      	ldr	r2, [r4, #16]
   dd0f0:	454a      	cmp	r2, r9
   dd0f2:	dd0b      	ble.n	dd10c <__gethex+0x44c>
   dd0f4:	2101      	movs	r1, #1
   dd0f6:	4620      	mov	r0, r4
   dd0f8:	f7ff fd7a 	bl	dcbf0 <rshift>
   dd0fc:	f8d8 3008 	ldr.w	r3, [r8, #8]
   dd100:	3501      	adds	r5, #1
   dd102:	42ab      	cmp	r3, r5
   dd104:	f6ff aed7 	blt.w	dceb6 <__gethex+0x1f6>
   dd108:	2701      	movs	r7, #1
   dd10a:	e7c5      	b.n	dd098 <__gethex+0x3d8>
   dd10c:	f016 061f 	ands.w	r6, r6, #31
   dd110:	d0fa      	beq.n	dd108 <__gethex+0x448>
   dd112:	449b      	add	fp, r3
   dd114:	f1c6 0620 	rsb	r6, r6, #32
   dd118:	f85b 0c04 	ldr.w	r0, [fp, #-4]
   dd11c:	f000 f99f 	bl	dd45e <__hi0bits>
   dd120:	42b0      	cmp	r0, r6
   dd122:	dbe7      	blt.n	dd0f4 <__gethex+0x434>
   dd124:	e7f0      	b.n	dd108 <__gethex+0x448>
   dd126:	bf00      	nop

000dd128 <L_shift>:
   dd128:	f1c2 0208 	rsb	r2, r2, #8
   dd12c:	0092      	lsls	r2, r2, #2
   dd12e:	b570      	push	{r4, r5, r6, lr}
   dd130:	f1c2 0620 	rsb	r6, r2, #32
   dd134:	6843      	ldr	r3, [r0, #4]
   dd136:	6804      	ldr	r4, [r0, #0]
   dd138:	fa03 f506 	lsl.w	r5, r3, r6
   dd13c:	432c      	orrs	r4, r5
   dd13e:	40d3      	lsrs	r3, r2
   dd140:	6004      	str	r4, [r0, #0]
   dd142:	f840 3f04 	str.w	r3, [r0, #4]!
   dd146:	4288      	cmp	r0, r1
   dd148:	d3f4      	bcc.n	dd134 <L_shift+0xc>
   dd14a:	bd70      	pop	{r4, r5, r6, pc}

000dd14c <__match>:
   dd14c:	b530      	push	{r4, r5, lr}
   dd14e:	6803      	ldr	r3, [r0, #0]
   dd150:	3301      	adds	r3, #1
   dd152:	f811 4b01 	ldrb.w	r4, [r1], #1
   dd156:	b914      	cbnz	r4, dd15e <__match+0x12>
   dd158:	6003      	str	r3, [r0, #0]
   dd15a:	2001      	movs	r0, #1
   dd15c:	bd30      	pop	{r4, r5, pc}
   dd15e:	f813 2b01 	ldrb.w	r2, [r3], #1
   dd162:	f1a2 0541 	sub.w	r5, r2, #65	; 0x41
   dd166:	2d19      	cmp	r5, #25
   dd168:	bf98      	it	ls
   dd16a:	3220      	addls	r2, #32
   dd16c:	42a2      	cmp	r2, r4
   dd16e:	d0f0      	beq.n	dd152 <__match+0x6>
   dd170:	2000      	movs	r0, #0
   dd172:	e7f3      	b.n	dd15c <__match+0x10>

000dd174 <__hexnan>:
   dd174:	e92d 4ff0 	stmdb	sp!, {r4, r5, r6, r7, r8, r9, sl, fp, lr}
   dd178:	680b      	ldr	r3, [r1, #0]
   dd17a:	6801      	ldr	r1, [r0, #0]
   dd17c:	115e      	asrs	r6, r3, #5
   dd17e:	eb02 0686 	add.w	r6, r2, r6, lsl #2
   dd182:	f013 031f 	ands.w	r3, r3, #31
   dd186:	b087      	sub	sp, #28
   dd188:	bf18      	it	ne
   dd18a:	3604      	addne	r6, #4
   dd18c:	2500      	movs	r5, #0
   dd18e:	1f37      	subs	r7, r6, #4
   dd190:	4682      	mov	sl, r0
   dd192:	4690      	mov	r8, r2
   dd194:	9301      	str	r3, [sp, #4]
   dd196:	f846 5c04 	str.w	r5, [r6, #-4]
   dd19a:	46b9      	mov	r9, r7
   dd19c:	463c      	mov	r4, r7
   dd19e:	9502      	str	r5, [sp, #8]
   dd1a0:	46ab      	mov	fp, r5
   dd1a2:	784a      	ldrb	r2, [r1, #1]
   dd1a4:	1c4b      	adds	r3, r1, #1
   dd1a6:	9303      	str	r3, [sp, #12]
   dd1a8:	b342      	cbz	r2, dd1fc <__hexnan+0x88>
   dd1aa:	4610      	mov	r0, r2
   dd1ac:	9105      	str	r1, [sp, #20]
   dd1ae:	9204      	str	r2, [sp, #16]
   dd1b0:	f7ff fd70 	bl	dcc94 <__hexdig_fun>
   dd1b4:	2800      	cmp	r0, #0
   dd1b6:	d14f      	bne.n	dd258 <__hexnan+0xe4>
   dd1b8:	9a04      	ldr	r2, [sp, #16]
   dd1ba:	9905      	ldr	r1, [sp, #20]
   dd1bc:	2a20      	cmp	r2, #32
   dd1be:	d818      	bhi.n	dd1f2 <__hexnan+0x7e>
   dd1c0:	9b02      	ldr	r3, [sp, #8]
   dd1c2:	459b      	cmp	fp, r3
   dd1c4:	dd13      	ble.n	dd1ee <__hexnan+0x7a>
   dd1c6:	454c      	cmp	r4, r9
   dd1c8:	d206      	bcs.n	dd1d8 <__hexnan+0x64>
   dd1ca:	2d07      	cmp	r5, #7
   dd1cc:	dc04      	bgt.n	dd1d8 <__hexnan+0x64>
   dd1ce:	462a      	mov	r2, r5
   dd1d0:	4649      	mov	r1, r9
   dd1d2:	4620      	mov	r0, r4
   dd1d4:	f7ff ffa8 	bl	dd128 <L_shift>
   dd1d8:	4544      	cmp	r4, r8
   dd1da:	d950      	bls.n	dd27e <__hexnan+0x10a>
   dd1dc:	2300      	movs	r3, #0
   dd1de:	f1a4 0904 	sub.w	r9, r4, #4
   dd1e2:	f844 3c04 	str.w	r3, [r4, #-4]
   dd1e6:	f8cd b008 	str.w	fp, [sp, #8]
   dd1ea:	464c      	mov	r4, r9
   dd1ec:	461d      	mov	r5, r3
   dd1ee:	9903      	ldr	r1, [sp, #12]
   dd1f0:	e7d7      	b.n	dd1a2 <__hexnan+0x2e>
   dd1f2:	2a29      	cmp	r2, #41	; 0x29
   dd1f4:	d156      	bne.n	dd2a4 <__hexnan+0x130>
   dd1f6:	3102      	adds	r1, #2
   dd1f8:	f8ca 1000 	str.w	r1, [sl]
   dd1fc:	f1bb 0f00 	cmp.w	fp, #0
   dd200:	d050      	beq.n	dd2a4 <__hexnan+0x130>
   dd202:	454c      	cmp	r4, r9
   dd204:	d206      	bcs.n	dd214 <__hexnan+0xa0>
   dd206:	2d07      	cmp	r5, #7
   dd208:	dc04      	bgt.n	dd214 <__hexnan+0xa0>
   dd20a:	462a      	mov	r2, r5
   dd20c:	4649      	mov	r1, r9
   dd20e:	4620      	mov	r0, r4
   dd210:	f7ff ff8a 	bl	dd128 <L_shift>
   dd214:	4544      	cmp	r4, r8
   dd216:	d934      	bls.n	dd282 <__hexnan+0x10e>
   dd218:	f1a8 0204 	sub.w	r2, r8, #4
   dd21c:	4623      	mov	r3, r4
   dd21e:	f853 1b04 	ldr.w	r1, [r3], #4
   dd222:	f842 1f04 	str.w	r1, [r2, #4]!
   dd226:	429f      	cmp	r7, r3
   dd228:	d2f9      	bcs.n	dd21e <__hexnan+0xaa>
   dd22a:	1b3b      	subs	r3, r7, r4
   dd22c:	f023 0303 	bic.w	r3, r3, #3
   dd230:	3304      	adds	r3, #4
   dd232:	3401      	adds	r4, #1
   dd234:	3e03      	subs	r6, #3
   dd236:	42b4      	cmp	r4, r6
   dd238:	bf88      	it	hi
   dd23a:	2304      	movhi	r3, #4
   dd23c:	4443      	add	r3, r8
   dd23e:	2200      	movs	r2, #0
   dd240:	f843 2b04 	str.w	r2, [r3], #4
   dd244:	429f      	cmp	r7, r3
   dd246:	d2fb      	bcs.n	dd240 <__hexnan+0xcc>
   dd248:	683b      	ldr	r3, [r7, #0]
   dd24a:	b91b      	cbnz	r3, dd254 <__hexnan+0xe0>
   dd24c:	4547      	cmp	r7, r8
   dd24e:	d127      	bne.n	dd2a0 <__hexnan+0x12c>
   dd250:	2301      	movs	r3, #1
   dd252:	603b      	str	r3, [r7, #0]
   dd254:	2005      	movs	r0, #5
   dd256:	e026      	b.n	dd2a6 <__hexnan+0x132>
   dd258:	3501      	adds	r5, #1
   dd25a:	2d08      	cmp	r5, #8
   dd25c:	f10b 0b01 	add.w	fp, fp, #1
   dd260:	dd06      	ble.n	dd270 <__hexnan+0xfc>
   dd262:	4544      	cmp	r4, r8
   dd264:	d9c3      	bls.n	dd1ee <__hexnan+0x7a>
   dd266:	2300      	movs	r3, #0
   dd268:	f844 3c04 	str.w	r3, [r4, #-4]
   dd26c:	2501      	movs	r5, #1
   dd26e:	3c04      	subs	r4, #4
   dd270:	6822      	ldr	r2, [r4, #0]
   dd272:	f000 000f 	and.w	r0, r0, #15
   dd276:	ea40 1202 	orr.w	r2, r0, r2, lsl #4
   dd27a:	6022      	str	r2, [r4, #0]
   dd27c:	e7b7      	b.n	dd1ee <__hexnan+0x7a>
   dd27e:	2508      	movs	r5, #8
   dd280:	e7b5      	b.n	dd1ee <__hexnan+0x7a>
   dd282:	9b01      	ldr	r3, [sp, #4]
   dd284:	2b00      	cmp	r3, #0
   dd286:	d0df      	beq.n	dd248 <__hexnan+0xd4>
   dd288:	f04f 32ff 	mov.w	r2, #4294967295	; 0xffffffff
   dd28c:	f1c3 0320 	rsb	r3, r3, #32
   dd290:	fa22 f303 	lsr.w	r3, r2, r3
   dd294:	f856 2c04 	ldr.w	r2, [r6, #-4]
   dd298:	401a      	ands	r2, r3
   dd29a:	f846 2c04 	str.w	r2, [r6, #-4]
   dd29e:	e7d3      	b.n	dd248 <__hexnan+0xd4>
   dd2a0:	3f04      	subs	r7, #4
   dd2a2:	e7d1      	b.n	dd248 <__hexnan+0xd4>
   dd2a4:	2004      	movs	r0, #4
   dd2a6:	b007      	add	sp, #28
   dd2a8:	e8bd 8ff0 	ldmia.w	sp!, {r4, r5, r6, r7, r8, r9, sl, fp, pc}

000dd2ac <__ascii_mbtowc>:
   dd2ac:	b082      	sub	sp, #8
   dd2ae:	b901      	cbnz	r1, dd2b2 <__ascii_mbtowc+0x6>
   dd2b0:	a901      	add	r1, sp, #4
   dd2b2:	b142      	cbz	r2, dd2c6 <__ascii_mbtowc+0x1a>
   dd2b4:	b14b      	cbz	r3, dd2ca <__ascii_mbtowc+0x1e>
   dd2b6:	7813      	ldrb	r3, [r2, #0]
   dd2b8:	600b      	str	r3, [r1, #0]
   dd2ba:	7812      	ldrb	r2, [r2, #0]
   dd2bc:	1e10      	subs	r0, r2, #0
   dd2be:	bf18      	it	ne
   dd2c0:	2001      	movne	r0, #1
   dd2c2:	b002      	add	sp, #8
   dd2c4:	4770      	bx	lr
   dd2c6:	4610      	mov	r0, r2
   dd2c8:	e7fb      	b.n	dd2c2 <__ascii_mbtowc+0x16>
   dd2ca:	f06f 0001 	mvn.w	r0, #1
   dd2ce:	e7f8      	b.n	dd2c2 <__ascii_mbtowc+0x16>

000dd2d0 <_Balloc>:
   dd2d0:	b570      	push	{r4, r5, r6, lr}
   dd2d2:	6a46      	ldr	r6, [r0, #36]	; 0x24
   dd2d4:	4604      	mov	r4, r0
   dd2d6:	460d      	mov	r5, r1
   dd2d8:	b93e      	cbnz	r6, dd2ea <_Balloc+0x1a>
   dd2da:	2010      	movs	r0, #16
   dd2dc:	f7fa fdae 	bl	d7e3c <malloc>
   dd2e0:	e9c0 6601 	strd	r6, r6, [r0, #4]
   dd2e4:	6260      	str	r0, [r4, #36]	; 0x24
   dd2e6:	6006      	str	r6, [r0, #0]
   dd2e8:	60c6      	str	r6, [r0, #12]
   dd2ea:	6a66      	ldr	r6, [r4, #36]	; 0x24
   dd2ec:	68f3      	ldr	r3, [r6, #12]
   dd2ee:	b183      	cbz	r3, dd312 <_Balloc+0x42>
   dd2f0:	6a63      	ldr	r3, [r4, #36]	; 0x24
   dd2f2:	68db      	ldr	r3, [r3, #12]
   dd2f4:	f853 0025 	ldr.w	r0, [r3, r5, lsl #2]
   dd2f8:	b9b8      	cbnz	r0, dd32a <_Balloc+0x5a>
   dd2fa:	2101      	movs	r1, #1
   dd2fc:	fa01 f605 	lsl.w	r6, r1, r5
   dd300:	1d72      	adds	r2, r6, #5
   dd302:	0092      	lsls	r2, r2, #2
   dd304:	4620      	mov	r0, r4
   dd306:	f000 fc22 	bl	ddb4e <_calloc_r>
   dd30a:	b160      	cbz	r0, dd326 <_Balloc+0x56>
   dd30c:	e9c0 5601 	strd	r5, r6, [r0, #4]
   dd310:	e00e      	b.n	dd330 <_Balloc+0x60>
   dd312:	2221      	movs	r2, #33	; 0x21
   dd314:	2104      	movs	r1, #4
   dd316:	4620      	mov	r0, r4
   dd318:	f000 fc19 	bl	ddb4e <_calloc_r>
   dd31c:	6a63      	ldr	r3, [r4, #36]	; 0x24
   dd31e:	60f0      	str	r0, [r6, #12]
   dd320:	68db      	ldr	r3, [r3, #12]
   dd322:	2b00      	cmp	r3, #0
   dd324:	d1e4      	bne.n	dd2f0 <_Balloc+0x20>
   dd326:	2000      	movs	r0, #0
   dd328:	bd70      	pop	{r4, r5, r6, pc}
   dd32a:	6802      	ldr	r2, [r0, #0]
   dd32c:	f843 2025 	str.w	r2, [r3, r5, lsl #2]
   dd330:	2300      	movs	r3, #0
   dd332:	e9c0 3303 	strd	r3, r3, [r0, #12]
   dd336:	e7f7      	b.n	dd328 <_Balloc+0x58>

000dd338 <_Bfree>:
   dd338:	b570      	push	{r4, r5, r6, lr}
   dd33a:	6a46      	ldr	r6, [r0, #36]	; 0x24
   dd33c:	4605      	mov	r5, r0
   dd33e:	460c      	mov	r4, r1
   dd340:	b93e      	cbnz	r6, dd352 <_Bfree+0x1a>
   dd342:	2010      	movs	r0, #16
   dd344:	f7fa fd7a 	bl	d7e3c <malloc>
   dd348:	e9c0 6601 	strd	r6, r6, [r0, #4]
   dd34c:	6268      	str	r0, [r5, #36]	; 0x24
   dd34e:	6006      	str	r6, [r0, #0]
   dd350:	60c6      	str	r6, [r0, #12]
   dd352:	b13c      	cbz	r4, dd364 <_Bfree+0x2c>
   dd354:	6a6b      	ldr	r3, [r5, #36]	; 0x24
   dd356:	6862      	ldr	r2, [r4, #4]
   dd358:	68db      	ldr	r3, [r3, #12]
   dd35a:	f853 1022 	ldr.w	r1, [r3, r2, lsl #2]
   dd35e:	6021      	str	r1, [r4, #0]
   dd360:	f843 4022 	str.w	r4, [r3, r2, lsl #2]
   dd364:	bd70      	pop	{r4, r5, r6, pc}

000dd366 <__multadd>:
   dd366:	e92d 41f0 	stmdb	sp!, {r4, r5, r6, r7, r8, lr}
   dd36a:	690e      	ldr	r6, [r1, #16]
   dd36c:	4607      	mov	r7, r0
   dd36e:	4698      	mov	r8, r3
   dd370:	460c      	mov	r4, r1
   dd372:	f101 0014 	add.w	r0, r1, #20
   dd376:	2300      	movs	r3, #0
   dd378:	6805      	ldr	r5, [r0, #0]
   dd37a:	b2a9      	uxth	r1, r5
   dd37c:	fb02 8101 	mla	r1, r2, r1, r8
   dd380:	ea4f 4c11 	mov.w	ip, r1, lsr #16
   dd384:	0c2d      	lsrs	r5, r5, #16
   dd386:	fb02 c505 	mla	r5, r2, r5, ip
   dd38a:	b289      	uxth	r1, r1
   dd38c:	3301      	adds	r3, #1
   dd38e:	eb01 4105 	add.w	r1, r1, r5, lsl #16
   dd392:	429e      	cmp	r6, r3
   dd394:	f840 1b04 	str.w	r1, [r0], #4
   dd398:	ea4f 4815 	mov.w	r8, r5, lsr #16
   dd39c:	dcec      	bgt.n	dd378 <__multadd+0x12>
   dd39e:	f1b8 0f00 	cmp.w	r8, #0
   dd3a2:	d01b      	beq.n	dd3dc <__multadd+0x76>
   dd3a4:	68a3      	ldr	r3, [r4, #8]
   dd3a6:	42b3      	cmp	r3, r6
   dd3a8:	dc12      	bgt.n	dd3d0 <__multadd+0x6a>
   dd3aa:	6861      	ldr	r1, [r4, #4]
   dd3ac:	4638      	mov	r0, r7
   dd3ae:	3101      	adds	r1, #1
   dd3b0:	f7ff ff8e 	bl	dd2d0 <_Balloc>
   dd3b4:	6922      	ldr	r2, [r4, #16]
   dd3b6:	3202      	adds	r2, #2
   dd3b8:	f104 010c 	add.w	r1, r4, #12
   dd3bc:	4605      	mov	r5, r0
   dd3be:	0092      	lsls	r2, r2, #2
   dd3c0:	300c      	adds	r0, #12
   dd3c2:	f7fe fc33 	bl	dbc2c <memcpy>
   dd3c6:	4621      	mov	r1, r4
   dd3c8:	4638      	mov	r0, r7
   dd3ca:	f7ff ffb5 	bl	dd338 <_Bfree>
   dd3ce:	462c      	mov	r4, r5
   dd3d0:	eb04 0386 	add.w	r3, r4, r6, lsl #2
   dd3d4:	3601      	adds	r6, #1
   dd3d6:	f8c3 8014 	str.w	r8, [r3, #20]
   dd3da:	6126      	str	r6, [r4, #16]
   dd3dc:	4620      	mov	r0, r4
   dd3de:	e8bd 81f0 	ldmia.w	sp!, {r4, r5, r6, r7, r8, pc}

000dd3e2 <__s2b>:
   dd3e2:	e92d 43f8 	stmdb	sp!, {r3, r4, r5, r6, r7, r8, r9, lr}
   dd3e6:	460c      	mov	r4, r1
   dd3e8:	4615      	mov	r5, r2
   dd3ea:	461f      	mov	r7, r3
   dd3ec:	2209      	movs	r2, #9
   dd3ee:	3308      	adds	r3, #8
   dd3f0:	4606      	mov	r6, r0
   dd3f2:	fb93 f3f2 	sdiv	r3, r3, r2
   dd3f6:	2100      	movs	r1, #0
   dd3f8:	2201      	movs	r2, #1
   dd3fa:	429a      	cmp	r2, r3
   dd3fc:	db20      	blt.n	dd440 <__s2b+0x5e>
   dd3fe:	4630      	mov	r0, r6
   dd400:	f7ff ff66 	bl	dd2d0 <_Balloc>
   dd404:	9b08      	ldr	r3, [sp, #32]
   dd406:	6143      	str	r3, [r0, #20]
   dd408:	2d09      	cmp	r5, #9
   dd40a:	f04f 0301 	mov.w	r3, #1
   dd40e:	6103      	str	r3, [r0, #16]
   dd410:	dd19      	ble.n	dd446 <__s2b+0x64>
   dd412:	f104 0909 	add.w	r9, r4, #9
   dd416:	46c8      	mov	r8, r9
   dd418:	442c      	add	r4, r5
   dd41a:	f818 3b01 	ldrb.w	r3, [r8], #1
   dd41e:	4601      	mov	r1, r0
   dd420:	3b30      	subs	r3, #48	; 0x30
   dd422:	220a      	movs	r2, #10
   dd424:	4630      	mov	r0, r6
   dd426:	f7ff ff9e 	bl	dd366 <__multadd>
   dd42a:	45a0      	cmp	r8, r4
   dd42c:	d1f5      	bne.n	dd41a <__s2b+0x38>
   dd42e:	f1a5 0408 	sub.w	r4, r5, #8
   dd432:	444c      	add	r4, r9
   dd434:	1b2d      	subs	r5, r5, r4
   dd436:	1963      	adds	r3, r4, r5
   dd438:	42bb      	cmp	r3, r7
   dd43a:	db07      	blt.n	dd44c <__s2b+0x6a>
   dd43c:	e8bd 83f8 	ldmia.w	sp!, {r3, r4, r5, r6, r7, r8, r9, pc}
   dd440:	0052      	lsls	r2, r2, #1
   dd442:	3101      	adds	r1, #1
   dd444:	e7d9      	b.n	dd3fa <__s2b+0x18>
   dd446:	340a      	adds	r4, #10
   dd448:	2509      	movs	r5, #9
   dd44a:	e7f3      	b.n	dd434 <__s2b+0x52>
   dd44c:	f814 3b01 	ldrb.w	r3, [r4], #1
   dd450:	4601      	mov	r1, r0
   dd452:	3b30      	subs	r3, #48	; 0x30
   dd454:	220a      	movs	r2, #10
   dd456:	4630      	mov	r0, r6
   dd458:	f7ff ff85 	bl	dd366 <__multadd>
   dd45c:	e7eb      	b.n	dd436 <__s2b+0x54>

000dd45e <__hi0bits>:
   dd45e:	0c03      	lsrs	r3, r0, #16
   dd460:	041b      	lsls	r3, r3, #16
   dd462:	b9d3      	cbnz	r3, dd49a <__hi0bits+0x3c>
   dd464:	0400      	lsls	r0, r0, #16
   dd466:	2310      	movs	r3, #16
   dd468:	f010 4f7f 	tst.w	r0, #4278190080	; 0xff000000
   dd46c:	bf04      	itt	eq
   dd46e:	0200      	lsleq	r0, r0, #8
   dd470:	3308      	addeq	r3, #8
   dd472:	f010 4f70 	tst.w	r0, #4026531840	; 0xf0000000
   dd476:	bf04      	itt	eq
   dd478:	0100      	lsleq	r0, r0, #4
   dd47a:	3304      	addeq	r3, #4
   dd47c:	f010 4f40 	tst.w	r0, #3221225472	; 0xc0000000
   dd480:	bf04      	itt	eq
   dd482:	0080      	lsleq	r0, r0, #2
   dd484:	3302      	addeq	r3, #2
   dd486:	2800      	cmp	r0, #0
   dd488:	db05      	blt.n	dd496 <__hi0bits+0x38>
   dd48a:	f010 4f80 	tst.w	r0, #1073741824	; 0x40000000
   dd48e:	f103 0301 	add.w	r3, r3, #1
   dd492:	bf08      	it	eq
   dd494:	2320      	moveq	r3, #32
   dd496:	4618      	mov	r0, r3
   dd498:	4770      	bx	lr
   dd49a:	2300      	movs	r3, #0
   dd49c:	e7e4      	b.n	dd468 <__hi0bits+0xa>

000dd49e <__lo0bits>:
   dd49e:	6803      	ldr	r3, [r0, #0]
   dd4a0:	f013 0207 	ands.w	r2, r3, #7
   dd4a4:	4601      	mov	r1, r0
   dd4a6:	d00b      	beq.n	dd4c0 <__lo0bits+0x22>
   dd4a8:	07da      	lsls	r2, r3, #31
   dd4aa:	d424      	bmi.n	dd4f6 <__lo0bits+0x58>
   dd4ac:	0798      	lsls	r0, r3, #30
   dd4ae:	bf49      	itett	mi
   dd4b0:	085b      	lsrmi	r3, r3, #1
   dd4b2:	089b      	lsrpl	r3, r3, #2
   dd4b4:	2001      	movmi	r0, #1
   dd4b6:	600b      	strmi	r3, [r1, #0]
   dd4b8:	bf5c      	itt	pl
   dd4ba:	600b      	strpl	r3, [r1, #0]
   dd4bc:	2002      	movpl	r0, #2
   dd4be:	4770      	bx	lr
   dd4c0:	b298      	uxth	r0, r3
   dd4c2:	b9b0      	cbnz	r0, dd4f2 <__lo0bits+0x54>
   dd4c4:	0c1b      	lsrs	r3, r3, #16
   dd4c6:	2010      	movs	r0, #16
   dd4c8:	f013 0fff 	tst.w	r3, #255	; 0xff
   dd4cc:	bf04      	itt	eq
   dd4ce:	0a1b      	lsreq	r3, r3, #8
   dd4d0:	3008      	addeq	r0, #8
   dd4d2:	071a      	lsls	r2, r3, #28
   dd4d4:	bf04      	itt	eq
   dd4d6:	091b      	lsreq	r3, r3, #4
   dd4d8:	3004      	addeq	r0, #4
   dd4da:	079a      	lsls	r2, r3, #30
   dd4dc:	bf04      	itt	eq
   dd4de:	089b      	lsreq	r3, r3, #2
   dd4e0:	3002      	addeq	r0, #2
   dd4e2:	07da      	lsls	r2, r3, #31
   dd4e4:	d403      	bmi.n	dd4ee <__lo0bits+0x50>
   dd4e6:	085b      	lsrs	r3, r3, #1
   dd4e8:	f100 0001 	add.w	r0, r0, #1
   dd4ec:	d005      	beq.n	dd4fa <__lo0bits+0x5c>
   dd4ee:	600b      	str	r3, [r1, #0]
   dd4f0:	4770      	bx	lr
   dd4f2:	4610      	mov	r0, r2
   dd4f4:	e7e8      	b.n	dd4c8 <__lo0bits+0x2a>
   dd4f6:	2000      	movs	r0, #0
   dd4f8:	4770      	bx	lr
   dd4fa:	2020      	movs	r0, #32
   dd4fc:	4770      	bx	lr

000dd4fe <__i2b>:
   dd4fe:	b510      	push	{r4, lr}
   dd500:	460c      	mov	r4, r1
   dd502:	2101      	movs	r1, #1
   dd504:	f7ff fee4 	bl	dd2d0 <_Balloc>
   dd508:	2201      	movs	r2, #1
   dd50a:	6144      	str	r4, [r0, #20]
   dd50c:	6102      	str	r2, [r0, #16]
   dd50e:	bd10      	pop	{r4, pc}

000dd510 <__multiply>:
   dd510:	e92d 4ff0 	stmdb	sp!, {r4, r5, r6, r7, r8, r9, sl, fp, lr}
   dd514:	4615      	mov	r5, r2
   dd516:	690a      	ldr	r2, [r1, #16]
   dd518:	692b      	ldr	r3, [r5, #16]
   dd51a:	429a      	cmp	r2, r3
   dd51c:	bfb8      	it	lt
   dd51e:	460b      	movlt	r3, r1
   dd520:	460c      	mov	r4, r1
   dd522:	bfbc      	itt	lt
   dd524:	462c      	movlt	r4, r5
   dd526:	461d      	movlt	r5, r3
   dd528:	6927      	ldr	r7, [r4, #16]
   dd52a:	f8d5 9010 	ldr.w	r9, [r5, #16]
   dd52e:	68a3      	ldr	r3, [r4, #8]
   dd530:	6861      	ldr	r1, [r4, #4]
   dd532:	eb07 0609 	add.w	r6, r7, r9
   dd536:	42b3      	cmp	r3, r6
   dd538:	bfb8      	it	lt
   dd53a:	3101      	addlt	r1, #1
   dd53c:	b085      	sub	sp, #20
   dd53e:	f7ff fec7 	bl	dd2d0 <_Balloc>
   dd542:	f100 0114 	add.w	r1, r0, #20
   dd546:	eb01 0886 	add.w	r8, r1, r6, lsl #2
   dd54a:	460b      	mov	r3, r1
   dd54c:	2200      	movs	r2, #0
   dd54e:	4543      	cmp	r3, r8
   dd550:	d31d      	bcc.n	dd58e <__multiply+0x7e>
   dd552:	f104 0314 	add.w	r3, r4, #20
   dd556:	f105 0214 	add.w	r2, r5, #20
   dd55a:	eb03 0787 	add.w	r7, r3, r7, lsl #2
   dd55e:	eb02 0389 	add.w	r3, r2, r9, lsl #2
   dd562:	9302      	str	r3, [sp, #8]
   dd564:	1b3b      	subs	r3, r7, r4
   dd566:	3b15      	subs	r3, #21
   dd568:	f023 0303 	bic.w	r3, r3, #3
   dd56c:	3304      	adds	r3, #4
   dd56e:	f104 0515 	add.w	r5, r4, #21
   dd572:	42af      	cmp	r7, r5
   dd574:	bf38      	it	cc
   dd576:	2304      	movcc	r3, #4
   dd578:	9301      	str	r3, [sp, #4]
   dd57a:	9b02      	ldr	r3, [sp, #8]
   dd57c:	9203      	str	r2, [sp, #12]
   dd57e:	4293      	cmp	r3, r2
   dd580:	d808      	bhi.n	dd594 <__multiply+0x84>
   dd582:	2e00      	cmp	r6, #0
   dd584:	dc5a      	bgt.n	dd63c <__multiply+0x12c>
   dd586:	6106      	str	r6, [r0, #16]
   dd588:	b005      	add	sp, #20
   dd58a:	e8bd 8ff0 	ldmia.w	sp!, {r4, r5, r6, r7, r8, r9, sl, fp, pc}
   dd58e:	f843 2b04 	str.w	r2, [r3], #4
   dd592:	e7dc      	b.n	dd54e <__multiply+0x3e>
   dd594:	f8b2 a000 	ldrh.w	sl, [r2]
   dd598:	f1ba 0f00 	cmp.w	sl, #0
   dd59c:	d024      	beq.n	dd5e8 <__multiply+0xd8>
   dd59e:	f104 0e14 	add.w	lr, r4, #20
   dd5a2:	4689      	mov	r9, r1
   dd5a4:	f04f 0c00 	mov.w	ip, #0
   dd5a8:	f85e 5b04 	ldr.w	r5, [lr], #4
   dd5ac:	f8d9 b000 	ldr.w	fp, [r9]
   dd5b0:	b2ab      	uxth	r3, r5
   dd5b2:	fa1f fb8b 	uxth.w	fp, fp
   dd5b6:	fb0a b303 	mla	r3, sl, r3, fp
   dd5ba:	ea4f 4b15 	mov.w	fp, r5, lsr #16
   dd5be:	f8d9 5000 	ldr.w	r5, [r9]
   dd5c2:	4463      	add	r3, ip
   dd5c4:	ea4f 4c15 	mov.w	ip, r5, lsr #16
   dd5c8:	fb0a c50b 	mla	r5, sl, fp, ip
   dd5cc:	eb05 4513 	add.w	r5, r5, r3, lsr #16
   dd5d0:	b29b      	uxth	r3, r3
   dd5d2:	ea43 4305 	orr.w	r3, r3, r5, lsl #16
   dd5d6:	4577      	cmp	r7, lr
   dd5d8:	f849 3b04 	str.w	r3, [r9], #4
   dd5dc:	ea4f 4c15 	mov.w	ip, r5, lsr #16
   dd5e0:	d8e2      	bhi.n	dd5a8 <__multiply+0x98>
   dd5e2:	9b01      	ldr	r3, [sp, #4]
   dd5e4:	f841 c003 	str.w	ip, [r1, r3]
   dd5e8:	9b03      	ldr	r3, [sp, #12]
   dd5ea:	f8b3 9002 	ldrh.w	r9, [r3, #2]
   dd5ee:	3204      	adds	r2, #4
   dd5f0:	f1b9 0f00 	cmp.w	r9, #0
   dd5f4:	d020      	beq.n	dd638 <__multiply+0x128>
   dd5f6:	680b      	ldr	r3, [r1, #0]
   dd5f8:	f104 0c14 	add.w	ip, r4, #20
   dd5fc:	468e      	mov	lr, r1
   dd5fe:	f04f 0a00 	mov.w	sl, #0
   dd602:	f8bc 5000 	ldrh.w	r5, [ip]
   dd606:	f8be b002 	ldrh.w	fp, [lr, #2]
   dd60a:	fb09 b505 	mla	r5, r9, r5, fp
   dd60e:	44aa      	add	sl, r5
   dd610:	b29b      	uxth	r3, r3
   dd612:	ea43 430a 	orr.w	r3, r3, sl, lsl #16
   dd616:	f84e 3b04 	str.w	r3, [lr], #4
   dd61a:	f85c 3b04 	ldr.w	r3, [ip], #4
   dd61e:	f8be 5000 	ldrh.w	r5, [lr]
   dd622:	0c1b      	lsrs	r3, r3, #16
   dd624:	fb09 5303 	mla	r3, r9, r3, r5
   dd628:	eb03 431a 	add.w	r3, r3, sl, lsr #16
   dd62c:	4567      	cmp	r7, ip
   dd62e:	ea4f 4a13 	mov.w	sl, r3, lsr #16
   dd632:	d8e6      	bhi.n	dd602 <__multiply+0xf2>
   dd634:	9d01      	ldr	r5, [sp, #4]
   dd636:	514b      	str	r3, [r1, r5]
   dd638:	3104      	adds	r1, #4
   dd63a:	e79e      	b.n	dd57a <__multiply+0x6a>
   dd63c:	f858 3d04 	ldr.w	r3, [r8, #-4]!
   dd640:	2b00      	cmp	r3, #0
   dd642:	d1a0      	bne.n	dd586 <__multiply+0x76>
   dd644:	3e01      	subs	r6, #1
   dd646:	e79c      	b.n	dd582 <__multiply+0x72>

000dd648 <__pow5mult>:
   dd648:	e92d 43f8 	stmdb	sp!, {r3, r4, r5, r6, r7, r8, r9, lr}
   dd64c:	4615      	mov	r5, r2
   dd64e:	f012 0203 	ands.w	r2, r2, #3
   dd652:	4606      	mov	r6, r0
   dd654:	460f      	mov	r7, r1
   dd656:	d007      	beq.n	dd668 <__pow5mult+0x20>
   dd658:	4c21      	ldr	r4, [pc, #132]	; (dd6e0 <__pow5mult+0x98>)
   dd65a:	3a01      	subs	r2, #1
   dd65c:	2300      	movs	r3, #0
   dd65e:	f854 2022 	ldr.w	r2, [r4, r2, lsl #2]
   dd662:	f7ff fe80 	bl	dd366 <__multadd>
   dd666:	4607      	mov	r7, r0
   dd668:	10ad      	asrs	r5, r5, #2
   dd66a:	d035      	beq.n	dd6d8 <__pow5mult+0x90>
   dd66c:	6a74      	ldr	r4, [r6, #36]	; 0x24
   dd66e:	b93c      	cbnz	r4, dd680 <__pow5mult+0x38>
   dd670:	2010      	movs	r0, #16
   dd672:	f7fa fbe3 	bl	d7e3c <malloc>
   dd676:	e9c0 4401 	strd	r4, r4, [r0, #4]
   dd67a:	6270      	str	r0, [r6, #36]	; 0x24
   dd67c:	6004      	str	r4, [r0, #0]
   dd67e:	60c4      	str	r4, [r0, #12]
   dd680:	f8d6 8024 	ldr.w	r8, [r6, #36]	; 0x24
   dd684:	f8d8 4008 	ldr.w	r4, [r8, #8]
   dd688:	b94c      	cbnz	r4, dd69e <__pow5mult+0x56>
   dd68a:	f240 2171 	movw	r1, #625	; 0x271
   dd68e:	4630      	mov	r0, r6
   dd690:	f7ff ff35 	bl	dd4fe <__i2b>
   dd694:	2300      	movs	r3, #0
   dd696:	f8c8 0008 	str.w	r0, [r8, #8]
   dd69a:	4604      	mov	r4, r0
   dd69c:	6003      	str	r3, [r0, #0]
   dd69e:	f04f 0900 	mov.w	r9, #0
   dd6a2:	07eb      	lsls	r3, r5, #31
   dd6a4:	d50a      	bpl.n	dd6bc <__pow5mult+0x74>
   dd6a6:	4639      	mov	r1, r7
   dd6a8:	4622      	mov	r2, r4
   dd6aa:	4630      	mov	r0, r6
   dd6ac:	f7ff ff30 	bl	dd510 <__multiply>
   dd6b0:	4639      	mov	r1, r7
   dd6b2:	4680      	mov	r8, r0
   dd6b4:	4630      	mov	r0, r6
   dd6b6:	f7ff fe3f 	bl	dd338 <_Bfree>
   dd6ba:	4647      	mov	r7, r8
   dd6bc:	106d      	asrs	r5, r5, #1
   dd6be:	d00b      	beq.n	dd6d8 <__pow5mult+0x90>
   dd6c0:	6820      	ldr	r0, [r4, #0]
   dd6c2:	b938      	cbnz	r0, dd6d4 <__pow5mult+0x8c>
   dd6c4:	4622      	mov	r2, r4
   dd6c6:	4621      	mov	r1, r4
   dd6c8:	4630      	mov	r0, r6
   dd6ca:	f7ff ff21 	bl	dd510 <__multiply>
   dd6ce:	6020      	str	r0, [r4, #0]
   dd6d0:	f8c0 9000 	str.w	r9, [r0]
   dd6d4:	4604      	mov	r4, r0
   dd6d6:	e7e4      	b.n	dd6a2 <__pow5mult+0x5a>
   dd6d8:	4638      	mov	r0, r7
   dd6da:	e8bd 83f8 	ldmia.w	sp!, {r3, r4, r5, r6, r7, r8, r9, pc}
   dd6de:	bf00      	nop
   dd6e0:	000dec98 	.word	0x000dec98

000dd6e4 <__lshift>:
   dd6e4:	e92d 47f0 	stmdb	sp!, {r4, r5, r6, r7, r8, r9, sl, lr}
   dd6e8:	460c      	mov	r4, r1
   dd6ea:	6849      	ldr	r1, [r1, #4]
   dd6ec:	6923      	ldr	r3, [r4, #16]
   dd6ee:	eb03 1862 	add.w	r8, r3, r2, asr #5
   dd6f2:	68a3      	ldr	r3, [r4, #8]
   dd6f4:	4607      	mov	r7, r0
   dd6f6:	4691      	mov	r9, r2
   dd6f8:	ea4f 1a62 	mov.w	sl, r2, asr #5
   dd6fc:	f108 0601 	add.w	r6, r8, #1
   dd700:	42b3      	cmp	r3, r6
   dd702:	db3f      	blt.n	dd784 <__lshift+0xa0>
   dd704:	4638      	mov	r0, r7
   dd706:	f7ff fde3 	bl	dd2d0 <_Balloc>
   dd70a:	2300      	movs	r3, #0
   dd70c:	4605      	mov	r5, r0
   dd70e:	f100 0114 	add.w	r1, r0, #20
   dd712:	f100 0210 	add.w	r2, r0, #16
   dd716:	4618      	mov	r0, r3
   dd718:	4553      	cmp	r3, sl
   dd71a:	db36      	blt.n	dd78a <__lshift+0xa6>
   dd71c:	6920      	ldr	r0, [r4, #16]
   dd71e:	ea2a 7aea 	bic.w	sl, sl, sl, asr #31
   dd722:	f104 0314 	add.w	r3, r4, #20
   dd726:	f019 091f 	ands.w	r9, r9, #31
   dd72a:	eb01 018a 	add.w	r1, r1, sl, lsl #2
   dd72e:	eb03 0c80 	add.w	ip, r3, r0, lsl #2
   dd732:	d02e      	beq.n	dd792 <__lshift+0xae>
   dd734:	f1c9 0e20 	rsb	lr, r9, #32
   dd738:	468a      	mov	sl, r1
   dd73a:	2200      	movs	r2, #0
   dd73c:	6818      	ldr	r0, [r3, #0]
   dd73e:	fa00 f009 	lsl.w	r0, r0, r9
   dd742:	4302      	orrs	r2, r0
   dd744:	f84a 2b04 	str.w	r2, [sl], #4
   dd748:	f853 2b04 	ldr.w	r2, [r3], #4
   dd74c:	459c      	cmp	ip, r3
   dd74e:	fa22 f20e 	lsr.w	r2, r2, lr
   dd752:	d8f3      	bhi.n	dd73c <__lshift+0x58>
   dd754:	ebac 0304 	sub.w	r3, ip, r4
   dd758:	3b15      	subs	r3, #21
   dd75a:	f023 0303 	bic.w	r3, r3, #3
   dd75e:	3304      	adds	r3, #4
   dd760:	f104 0015 	add.w	r0, r4, #21
   dd764:	4560      	cmp	r0, ip
   dd766:	bf88      	it	hi
   dd768:	2304      	movhi	r3, #4
   dd76a:	50ca      	str	r2, [r1, r3]
   dd76c:	b10a      	cbz	r2, dd772 <__lshift+0x8e>
   dd76e:	f108 0602 	add.w	r6, r8, #2
   dd772:	3e01      	subs	r6, #1
   dd774:	4638      	mov	r0, r7
   dd776:	612e      	str	r6, [r5, #16]
   dd778:	4621      	mov	r1, r4
   dd77a:	f7ff fddd 	bl	dd338 <_Bfree>
   dd77e:	4628      	mov	r0, r5
   dd780:	e8bd 87f0 	ldmia.w	sp!, {r4, r5, r6, r7, r8, r9, sl, pc}
   dd784:	3101      	adds	r1, #1
   dd786:	005b      	lsls	r3, r3, #1
   dd788:	e7ba      	b.n	dd700 <__lshift+0x1c>
   dd78a:	f842 0f04 	str.w	r0, [r2, #4]!
   dd78e:	3301      	adds	r3, #1
   dd790:	e7c2      	b.n	dd718 <__lshift+0x34>
   dd792:	3904      	subs	r1, #4
   dd794:	f853 2b04 	ldr.w	r2, [r3], #4
   dd798:	f841 2f04 	str.w	r2, [r1, #4]!
   dd79c:	459c      	cmp	ip, r3
   dd79e:	d8f9      	bhi.n	dd794 <__lshift+0xb0>
   dd7a0:	e7e7      	b.n	dd772 <__lshift+0x8e>

000dd7a2 <__mcmp>:
   dd7a2:	b530      	push	{r4, r5, lr}
   dd7a4:	6902      	ldr	r2, [r0, #16]
   dd7a6:	690c      	ldr	r4, [r1, #16]
   dd7a8:	1b12      	subs	r2, r2, r4
   dd7aa:	d10e      	bne.n	dd7ca <__mcmp+0x28>
   dd7ac:	f100 0314 	add.w	r3, r0, #20
   dd7b0:	3114      	adds	r1, #20
   dd7b2:	eb03 0084 	add.w	r0, r3, r4, lsl #2
   dd7b6:	eb01 0184 	add.w	r1, r1, r4, lsl #2
   dd7ba:	f850 5d04 	ldr.w	r5, [r0, #-4]!
   dd7be:	f851 4d04 	ldr.w	r4, [r1, #-4]!
   dd7c2:	42a5      	cmp	r5, r4
   dd7c4:	d003      	beq.n	dd7ce <__mcmp+0x2c>
   dd7c6:	d305      	bcc.n	dd7d4 <__mcmp+0x32>
   dd7c8:	2201      	movs	r2, #1
   dd7ca:	4610      	mov	r0, r2
   dd7cc:	bd30      	pop	{r4, r5, pc}
   dd7ce:	4283      	cmp	r3, r0
   dd7d0:	d3f3      	bcc.n	dd7ba <__mcmp+0x18>
   dd7d2:	e7fa      	b.n	dd7ca <__mcmp+0x28>
   dd7d4:	f04f 32ff 	mov.w	r2, #4294967295	; 0xffffffff
   dd7d8:	e7f7      	b.n	dd7ca <__mcmp+0x28>

000dd7da <__mdiff>:
   dd7da:	e92d 4ff8 	stmdb	sp!, {r3, r4, r5, r6, r7, r8, r9, sl, fp, lr}
   dd7de:	460c      	mov	r4, r1
   dd7e0:	4606      	mov	r6, r0
   dd7e2:	4611      	mov	r1, r2
   dd7e4:	4620      	mov	r0, r4
   dd7e6:	4617      	mov	r7, r2
   dd7e8:	f7ff ffdb 	bl	dd7a2 <__mcmp>
   dd7ec:	1e05      	subs	r5, r0, #0
   dd7ee:	d108      	bne.n	dd802 <__mdiff+0x28>
   dd7f0:	4629      	mov	r1, r5
   dd7f2:	4630      	mov	r0, r6
   dd7f4:	f7ff fd6c 	bl	dd2d0 <_Balloc>
   dd7f8:	2301      	movs	r3, #1
   dd7fa:	e9c0 3504 	strd	r3, r5, [r0, #16]
   dd7fe:	e8bd 8ff8 	ldmia.w	sp!, {r3, r4, r5, r6, r7, r8, r9, sl, fp, pc}
   dd802:	bfa4      	itt	ge
   dd804:	463b      	movge	r3, r7
   dd806:	4627      	movge	r7, r4
   dd808:	4630      	mov	r0, r6
   dd80a:	6879      	ldr	r1, [r7, #4]
   dd80c:	bfa6      	itte	ge
   dd80e:	461c      	movge	r4, r3
   dd810:	2500      	movge	r5, #0
   dd812:	2501      	movlt	r5, #1
   dd814:	f7ff fd5c 	bl	dd2d0 <_Balloc>
   dd818:	693e      	ldr	r6, [r7, #16]
   dd81a:	60c5      	str	r5, [r0, #12]
   dd81c:	6925      	ldr	r5, [r4, #16]
   dd81e:	f107 0114 	add.w	r1, r7, #20
   dd822:	f104 0914 	add.w	r9, r4, #20
   dd826:	f100 0e14 	add.w	lr, r0, #20
   dd82a:	f107 0210 	add.w	r2, r7, #16
   dd82e:	eb01 0c86 	add.w	ip, r1, r6, lsl #2
   dd832:	eb09 0585 	add.w	r5, r9, r5, lsl #2
   dd836:	46f2      	mov	sl, lr
   dd838:	2700      	movs	r7, #0
   dd83a:	f859 3b04 	ldr.w	r3, [r9], #4
   dd83e:	f852 bf04 	ldr.w	fp, [r2, #4]!
   dd842:	fa1f f883 	uxth.w	r8, r3
   dd846:	fa17 f78b 	uxtah	r7, r7, fp
   dd84a:	0c1b      	lsrs	r3, r3, #16
   dd84c:	eba7 0808 	sub.w	r8, r7, r8
   dd850:	ebc3 431b 	rsb	r3, r3, fp, lsr #16
   dd854:	eb03 4328 	add.w	r3, r3, r8, asr #16
   dd858:	fa1f f888 	uxth.w	r8, r8
   dd85c:	141f      	asrs	r7, r3, #16
   dd85e:	454d      	cmp	r5, r9
   dd860:	ea48 4303 	orr.w	r3, r8, r3, lsl #16
   dd864:	f84a 3b04 	str.w	r3, [sl], #4
   dd868:	d8e7      	bhi.n	dd83a <__mdiff+0x60>
   dd86a:	1b2b      	subs	r3, r5, r4
   dd86c:	3b15      	subs	r3, #21
   dd86e:	f023 0303 	bic.w	r3, r3, #3
   dd872:	3304      	adds	r3, #4
   dd874:	3415      	adds	r4, #21
   dd876:	42a5      	cmp	r5, r4
   dd878:	bf38      	it	cc
   dd87a:	2304      	movcc	r3, #4
   dd87c:	4419      	add	r1, r3
   dd87e:	4473      	add	r3, lr
   dd880:	469e      	mov	lr, r3
   dd882:	460d      	mov	r5, r1
   dd884:	4565      	cmp	r5, ip
   dd886:	d30e      	bcc.n	dd8a6 <__mdiff+0xcc>
   dd888:	f10c 0203 	add.w	r2, ip, #3
   dd88c:	1a52      	subs	r2, r2, r1
   dd88e:	f022 0203 	bic.w	r2, r2, #3
   dd892:	3903      	subs	r1, #3
   dd894:	458c      	cmp	ip, r1
   dd896:	bf38      	it	cc
   dd898:	2200      	movcc	r2, #0
   dd89a:	441a      	add	r2, r3
   dd89c:	f852 3d04 	ldr.w	r3, [r2, #-4]!
   dd8a0:	b17b      	cbz	r3, dd8c2 <__mdiff+0xe8>
   dd8a2:	6106      	str	r6, [r0, #16]
   dd8a4:	e7ab      	b.n	dd7fe <__mdiff+0x24>
   dd8a6:	f855 8b04 	ldr.w	r8, [r5], #4
   dd8aa:	fa17 f488 	uxtah	r4, r7, r8
   dd8ae:	1422      	asrs	r2, r4, #16
   dd8b0:	eb02 4218 	add.w	r2, r2, r8, lsr #16
   dd8b4:	b2a4      	uxth	r4, r4
   dd8b6:	ea44 4402 	orr.w	r4, r4, r2, lsl #16
   dd8ba:	f84e 4b04 	str.w	r4, [lr], #4
   dd8be:	1417      	asrs	r7, r2, #16
   dd8c0:	e7e0      	b.n	dd884 <__mdiff+0xaa>
   dd8c2:	3e01      	subs	r6, #1
   dd8c4:	e7ea      	b.n	dd89c <__mdiff+0xc2>
	...

000dd8c8 <__ulp>:
   dd8c8:	b082      	sub	sp, #8
   dd8ca:	ed8d 0b00 	vstr	d0, [sp]
   dd8ce:	9b01      	ldr	r3, [sp, #4]
   dd8d0:	4912      	ldr	r1, [pc, #72]	; (dd91c <__ulp+0x54>)
   dd8d2:	4019      	ands	r1, r3
   dd8d4:	f1a1 7150 	sub.w	r1, r1, #54525952	; 0x3400000
   dd8d8:	2900      	cmp	r1, #0
   dd8da:	dd05      	ble.n	dd8e8 <__ulp+0x20>
   dd8dc:	2200      	movs	r2, #0
   dd8de:	460b      	mov	r3, r1
   dd8e0:	ec43 2b10 	vmov	d0, r2, r3
   dd8e4:	b002      	add	sp, #8
   dd8e6:	4770      	bx	lr
   dd8e8:	4249      	negs	r1, r1
   dd8ea:	f1b1 7fa0 	cmp.w	r1, #20971520	; 0x1400000
   dd8ee:	ea4f 5021 	mov.w	r0, r1, asr #20
   dd8f2:	f04f 0200 	mov.w	r2, #0
   dd8f6:	f04f 0300 	mov.w	r3, #0
   dd8fa:	da04      	bge.n	dd906 <__ulp+0x3e>
   dd8fc:	f44f 2100 	mov.w	r1, #524288	; 0x80000
   dd900:	fa41 f300 	asr.w	r3, r1, r0
   dd904:	e7ec      	b.n	dd8e0 <__ulp+0x18>
   dd906:	f1a0 0114 	sub.w	r1, r0, #20
   dd90a:	291e      	cmp	r1, #30
   dd90c:	bfda      	itte	le
   dd90e:	f04f 4000 	movle.w	r0, #2147483648	; 0x80000000
   dd912:	fa20 f101 	lsrle.w	r1, r0, r1
   dd916:	2101      	movgt	r1, #1
   dd918:	460a      	mov	r2, r1
   dd91a:	e7e1      	b.n	dd8e0 <__ulp+0x18>
   dd91c:	7ff00000 	.word	0x7ff00000

000dd920 <__b2d>:
   dd920:	b5f8      	push	{r3, r4, r5, r6, r7, lr}
   dd922:	6905      	ldr	r5, [r0, #16]
   dd924:	f100 0714 	add.w	r7, r0, #20
   dd928:	eb07 0585 	add.w	r5, r7, r5, lsl #2
   dd92c:	1f2e      	subs	r6, r5, #4
   dd92e:	f855 4c04 	ldr.w	r4, [r5, #-4]
   dd932:	4620      	mov	r0, r4
   dd934:	f7ff fd93 	bl	dd45e <__hi0bits>
   dd938:	f1c0 0320 	rsb	r3, r0, #32
   dd93c:	280a      	cmp	r0, #10
   dd93e:	f8df c07c 	ldr.w	ip, [pc, #124]	; dd9bc <__b2d+0x9c>
   dd942:	600b      	str	r3, [r1, #0]
   dd944:	dc14      	bgt.n	dd970 <__b2d+0x50>
   dd946:	f1c0 0e0b 	rsb	lr, r0, #11
   dd94a:	fa24 f10e 	lsr.w	r1, r4, lr
   dd94e:	42b7      	cmp	r7, r6
   dd950:	ea41 030c 	orr.w	r3, r1, ip
   dd954:	bf34      	ite	cc
   dd956:	f855 1c08 	ldrcc.w	r1, [r5, #-8]
   dd95a:	2100      	movcs	r1, #0
   dd95c:	3015      	adds	r0, #21
   dd95e:	fa04 f000 	lsl.w	r0, r4, r0
   dd962:	fa21 f10e 	lsr.w	r1, r1, lr
   dd966:	ea40 0201 	orr.w	r2, r0, r1
   dd96a:	ec43 2b10 	vmov	d0, r2, r3
   dd96e:	bdf8      	pop	{r3, r4, r5, r6, r7, pc}
   dd970:	42b7      	cmp	r7, r6
   dd972:	bf3a      	itte	cc
   dd974:	f855 1c08 	ldrcc.w	r1, [r5, #-8]
   dd978:	f1a5 0608 	subcc.w	r6, r5, #8
   dd97c:	2100      	movcs	r1, #0
   dd97e:	380b      	subs	r0, #11
   dd980:	d017      	beq.n	dd9b2 <__b2d+0x92>
   dd982:	f1c0 0c20 	rsb	ip, r0, #32
   dd986:	fa04 f500 	lsl.w	r5, r4, r0
   dd98a:	42be      	cmp	r6, r7
   dd98c:	fa21 f40c 	lsr.w	r4, r1, ip
   dd990:	ea45 0504 	orr.w	r5, r5, r4
   dd994:	bf8c      	ite	hi
   dd996:	f856 4c04 	ldrhi.w	r4, [r6, #-4]
   dd99a:	2400      	movls	r4, #0
   dd99c:	f045 537f 	orr.w	r3, r5, #1069547520	; 0x3fc00000
   dd9a0:	fa01 f000 	lsl.w	r0, r1, r0
   dd9a4:	fa24 f40c 	lsr.w	r4, r4, ip
   dd9a8:	f443 1340 	orr.w	r3, r3, #3145728	; 0x300000
   dd9ac:	ea40 0204 	orr.w	r2, r0, r4
   dd9b0:	e7db      	b.n	dd96a <__b2d+0x4a>
   dd9b2:	ea44 030c 	orr.w	r3, r4, ip
   dd9b6:	460a      	mov	r2, r1
   dd9b8:	e7d7      	b.n	dd96a <__b2d+0x4a>
   dd9ba:	bf00      	nop
   dd9bc:	3ff00000 	.word	0x3ff00000

000dd9c0 <__d2b>:
   dd9c0:	e92d 43f7 	stmdb	sp!, {r0, r1, r2, r4, r5, r6, r7, r8, r9, lr}
   dd9c4:	4689      	mov	r9, r1
   dd9c6:	2101      	movs	r1, #1
   dd9c8:	ec57 6b10 	vmov	r6, r7, d0
   dd9cc:	4690      	mov	r8, r2
   dd9ce:	f7ff fc7f 	bl	dd2d0 <_Balloc>
   dd9d2:	f3c7 550a 	ubfx	r5, r7, #20, #11
   dd9d6:	4604      	mov	r4, r0
   dd9d8:	f3c7 0313 	ubfx	r3, r7, #0, #20
   dd9dc:	bb35      	cbnz	r5, dda2c <__d2b+0x6c>
   dd9de:	2e00      	cmp	r6, #0
   dd9e0:	9301      	str	r3, [sp, #4]
   dd9e2:	d028      	beq.n	dda36 <__d2b+0x76>
   dd9e4:	4668      	mov	r0, sp
   dd9e6:	9600      	str	r6, [sp, #0]
   dd9e8:	f7ff fd59 	bl	dd49e <__lo0bits>
   dd9ec:	9900      	ldr	r1, [sp, #0]
   dd9ee:	b300      	cbz	r0, dda32 <__d2b+0x72>
   dd9f0:	9a01      	ldr	r2, [sp, #4]
   dd9f2:	f1c0 0320 	rsb	r3, r0, #32
   dd9f6:	fa02 f303 	lsl.w	r3, r2, r3
   dd9fa:	430b      	orrs	r3, r1
   dd9fc:	40c2      	lsrs	r2, r0
   dd9fe:	6163      	str	r3, [r4, #20]
   dda00:	9201      	str	r2, [sp, #4]
   dda02:	9b01      	ldr	r3, [sp, #4]
   dda04:	61a3      	str	r3, [r4, #24]
   dda06:	2b00      	cmp	r3, #0
   dda08:	bf14      	ite	ne
   dda0a:	2202      	movne	r2, #2
   dda0c:	2201      	moveq	r2, #1
   dda0e:	6122      	str	r2, [r4, #16]
   dda10:	b1d5      	cbz	r5, dda48 <__d2b+0x88>
   dda12:	f2a5 4533 	subw	r5, r5, #1075	; 0x433
   dda16:	4405      	add	r5, r0
   dda18:	f8c9 5000 	str.w	r5, [r9]
   dda1c:	f1c0 0035 	rsb	r0, r0, #53	; 0x35
   dda20:	f8c8 0000 	str.w	r0, [r8]
   dda24:	4620      	mov	r0, r4
   dda26:	b003      	add	sp, #12
   dda28:	e8bd 83f0 	ldmia.w	sp!, {r4, r5, r6, r7, r8, r9, pc}
   dda2c:	f443 1380 	orr.w	r3, r3, #1048576	; 0x100000
   dda30:	e7d5      	b.n	dd9de <__d2b+0x1e>
   dda32:	6161      	str	r1, [r4, #20]
   dda34:	e7e5      	b.n	dda02 <__d2b+0x42>
   dda36:	a801      	add	r0, sp, #4
   dda38:	f7ff fd31 	bl	dd49e <__lo0bits>
   dda3c:	9b01      	ldr	r3, [sp, #4]
   dda3e:	6163      	str	r3, [r4, #20]
   dda40:	2201      	movs	r2, #1
   dda42:	6122      	str	r2, [r4, #16]
   dda44:	3020      	adds	r0, #32
   dda46:	e7e3      	b.n	dda10 <__d2b+0x50>
   dda48:	eb04 0382 	add.w	r3, r4, r2, lsl #2
   dda4c:	f2a0 4032 	subw	r0, r0, #1074	; 0x432
   dda50:	f8c9 0000 	str.w	r0, [r9]
   dda54:	6918      	ldr	r0, [r3, #16]
   dda56:	f7ff fd02 	bl	dd45e <__hi0bits>
   dda5a:	ebc0 1042 	rsb	r0, r0, r2, lsl #5
   dda5e:	e7df      	b.n	dda20 <__d2b+0x60>

000dda60 <__ratio>:
   dda60:	e92d 4ff7 	stmdb	sp!, {r0, r1, r2, r4, r5, r6, r7, r8, r9, sl, fp, lr}
   dda64:	4688      	mov	r8, r1
   dda66:	4669      	mov	r1, sp
   dda68:	4681      	mov	r9, r0
   dda6a:	f7ff ff59 	bl	dd920 <__b2d>
   dda6e:	a901      	add	r1, sp, #4
   dda70:	4640      	mov	r0, r8
   dda72:	ec55 4b10 	vmov	r4, r5, d0
   dda76:	f7ff ff53 	bl	dd920 <__b2d>
   dda7a:	f8d9 3010 	ldr.w	r3, [r9, #16]
   dda7e:	f8d8 2010 	ldr.w	r2, [r8, #16]
   dda82:	eba3 0c02 	sub.w	ip, r3, r2
   dda86:	e9dd 3200 	ldrd	r3, r2, [sp]
   dda8a:	1a9b      	subs	r3, r3, r2
   dda8c:	eb03 134c 	add.w	r3, r3, ip, lsl #5
   dda90:	ec51 0b10 	vmov	r0, r1, d0
   dda94:	2b00      	cmp	r3, #0
   dda96:	bfd6      	itet	le
   dda98:	460a      	movle	r2, r1
   dda9a:	462a      	movgt	r2, r5
   dda9c:	ebc3 3303 	rsble	r3, r3, r3, lsl #12
   ddaa0:	468b      	mov	fp, r1
   ddaa2:	462f      	mov	r7, r5
   ddaa4:	bfd4      	ite	le
   ddaa6:	eb02 5b03 	addle.w	fp, r2, r3, lsl #20
   ddaaa:	eb02 5703 	addgt.w	r7, r2, r3, lsl #20
   ddaae:	4620      	mov	r0, r4
   ddab0:	ee10 2a10 	vmov	r2, s0
   ddab4:	465b      	mov	r3, fp
   ddab6:	4639      	mov	r1, r7
   ddab8:	f7fd fdfe 	bl	db6b8 <__aeabi_ddiv>
   ddabc:	ec41 0b10 	vmov	d0, r0, r1
   ddac0:	b003      	add	sp, #12
   ddac2:	e8bd 8ff0 	ldmia.w	sp!, {r4, r5, r6, r7, r8, r9, sl, fp, pc}

000ddac6 <__copybits>:
   ddac6:	3901      	subs	r1, #1
   ddac8:	b570      	push	{r4, r5, r6, lr}
   ddaca:	1149      	asrs	r1, r1, #5
   ddacc:	6914      	ldr	r4, [r2, #16]
   ddace:	3101      	adds	r1, #1
   ddad0:	f102 0314 	add.w	r3, r2, #20
   ddad4:	eb00 0181 	add.w	r1, r0, r1, lsl #2
   ddad8:	eb03 0484 	add.w	r4, r3, r4, lsl #2
   ddadc:	1f05      	subs	r5, r0, #4
   ddade:	42a3      	cmp	r3, r4
   ddae0:	d30c      	bcc.n	ddafc <__copybits+0x36>
   ddae2:	1aa3      	subs	r3, r4, r2
   ddae4:	3b11      	subs	r3, #17
   ddae6:	f023 0303 	bic.w	r3, r3, #3
   ddaea:	3211      	adds	r2, #17
   ddaec:	42a2      	cmp	r2, r4
   ddaee:	bf88      	it	hi
   ddaf0:	2300      	movhi	r3, #0
   ddaf2:	4418      	add	r0, r3
   ddaf4:	2300      	movs	r3, #0
   ddaf6:	4288      	cmp	r0, r1
   ddaf8:	d305      	bcc.n	ddb06 <__copybits+0x40>
   ddafa:	bd70      	pop	{r4, r5, r6, pc}
   ddafc:	f853 6b04 	ldr.w	r6, [r3], #4
   ddb00:	f845 6f04 	str.w	r6, [r5, #4]!
   ddb04:	e7eb      	b.n	ddade <__copybits+0x18>
   ddb06:	f840 3b04 	str.w	r3, [r0], #4
   ddb0a:	e7f4      	b.n	ddaf6 <__copybits+0x30>

000ddb0c <__any_on>:
   ddb0c:	f100 0214 	add.w	r2, r0, #20
   ddb10:	6900      	ldr	r0, [r0, #16]
   ddb12:	114b      	asrs	r3, r1, #5
   ddb14:	4298      	cmp	r0, r3
   ddb16:	b510      	push	{r4, lr}
   ddb18:	db11      	blt.n	ddb3e <__any_on+0x32>
   ddb1a:	dd0a      	ble.n	ddb32 <__any_on+0x26>
   ddb1c:	f011 011f 	ands.w	r1, r1, #31
   ddb20:	d007      	beq.n	ddb32 <__any_on+0x26>
   ddb22:	f852 4023 	ldr.w	r4, [r2, r3, lsl #2]
   ddb26:	fa24 f001 	lsr.w	r0, r4, r1
   ddb2a:	fa00 f101 	lsl.w	r1, r0, r1
   ddb2e:	428c      	cmp	r4, r1
   ddb30:	d10b      	bne.n	ddb4a <__any_on+0x3e>
   ddb32:	eb02 0383 	add.w	r3, r2, r3, lsl #2
   ddb36:	4293      	cmp	r3, r2
   ddb38:	d803      	bhi.n	ddb42 <__any_on+0x36>
   ddb3a:	2000      	movs	r0, #0
   ddb3c:	bd10      	pop	{r4, pc}
   ddb3e:	4603      	mov	r3, r0
   ddb40:	e7f7      	b.n	ddb32 <__any_on+0x26>
   ddb42:	f853 1d04 	ldr.w	r1, [r3, #-4]!
   ddb46:	2900      	cmp	r1, #0
   ddb48:	d0f5      	beq.n	ddb36 <__any_on+0x2a>
   ddb4a:	2001      	movs	r0, #1
   ddb4c:	e7f6      	b.n	ddb3c <__any_on+0x30>

000ddb4e <_calloc_r>:
   ddb4e:	b513      	push	{r0, r1, r4, lr}
   ddb50:	434a      	muls	r2, r1
   ddb52:	4611      	mov	r1, r2
   ddb54:	9201      	str	r2, [sp, #4]
   ddb56:	f7fa f9a9 	bl	d7eac <_malloc_r>
   ddb5a:	4604      	mov	r4, r0
   ddb5c:	b118      	cbz	r0, ddb66 <_calloc_r+0x18>
   ddb5e:	9a01      	ldr	r2, [sp, #4]
   ddb60:	2100      	movs	r1, #0
   ddb62:	f7fe f88b 	bl	dbc7c <memset>
   ddb66:	4620      	mov	r0, r4
   ddb68:	b002      	add	sp, #8
   ddb6a:	bd10      	pop	{r4, pc}
   ddb6c:	0000      	movs	r0, r0
	...

000ddb70 <nan>:
   ddb70:	ed9f 0b01 	vldr	d0, [pc, #4]	; ddb78 <nan+0x8>
   ddb74:	4770      	bx	lr
   ddb76:	bf00      	nop
   ddb78:	00000000 	.word	0x00000000
   ddb7c:	7ff80000 	.word	0x7ff80000

000ddb80 <nanf>:
   ddb80:	ed9f 0a01 	vldr	s0, [pc, #4]	; ddb88 <nanf+0x8>
   ddb84:	4770      	bx	lr
   ddb86:	bf00      	nop
   ddb88:	7fc00000 	.word	0x7fc00000

000ddb8c <__ascii_wctomb>:
   ddb8c:	b149      	cbz	r1, ddba2 <__ascii_wctomb+0x16>
   ddb8e:	2aff      	cmp	r2, #255	; 0xff
   ddb90:	bf85      	ittet	hi
   ddb92:	238a      	movhi	r3, #138	; 0x8a
   ddb94:	6003      	strhi	r3, [r0, #0]
   ddb96:	700a      	strbls	r2, [r1, #0]
   ddb98:	f04f 30ff 	movhi.w	r0, #4294967295	; 0xffffffff
   ddb9c:	bf98      	it	ls
   ddb9e:	2001      	movls	r0, #1
   ddba0:	4770      	bx	lr
   ddba2:	4608      	mov	r0, r1
   ddba4:	4770      	bx	lr
	...

000ddba8 <__aeabi_d2lz>:
   ddba8:	b538      	push	{r3, r4, r5, lr}
   ddbaa:	2200      	movs	r2, #0
   ddbac:	2300      	movs	r3, #0
   ddbae:	4604      	mov	r4, r0
   ddbb0:	460d      	mov	r5, r1
   ddbb2:	f7fd fec9 	bl	db948 <__aeabi_dcmplt>
   ddbb6:	b928      	cbnz	r0, ddbc4 <__aeabi_d2lz+0x1c>
   ddbb8:	4620      	mov	r0, r4
   ddbba:	4629      	mov	r1, r5
   ddbbc:	e8bd 4038 	ldmia.w	sp!, {r3, r4, r5, lr}
   ddbc0:	f7fd bfcc 	b.w	dbb5c <__aeabi_d2ulz>
   ddbc4:	4620      	mov	r0, r4
   ddbc6:	f105 4100 	add.w	r1, r5, #2147483648	; 0x80000000
   ddbca:	f7fd ffc7 	bl	dbb5c <__aeabi_d2ulz>
   ddbce:	4240      	negs	r0, r0
   ddbd0:	eb61 0141 	sbc.w	r1, r1, r1, lsl #1
   ddbd4:	bd38      	pop	{r3, r4, r5, pc}
   ddbd6:	bf00      	nop

000ddbd8 <dynalib_user>:
   ddbd8:	4021 000d 405d 000d 4085 000d 4089 000d     !@..]@...@...@..
   ddbe8:	0000 0000 6e55 6e6b 776f 006e 6f4e 656e     ....Unknown.None
   ddbf8:	5700 4669 0069 5347 004d 4d55 5354 4300     .WiFi.GSM.UMTS.C
   ddc08:	4d44 0041 544c 0045 4549 4545 3038 3132     DMA.LTE.IEEE8021
   ddc18:	3435 4c00 4554 435f 5441 4d5f 0031 544c     54.LTE_CAT_M1.LT
   ddc28:	5f45 4143 5f54 424e 0031 6f4e 2074 6843     E_CAT_NB1.Not Ch
   ddc38:	7261 6967 676e 4300 6168 6772 6465 4400     arging.Charged.D
   ddc48:	7369 6863 7261 6967 676e 4600 7561 746c     ischarging.Fault
   ddc58:	4400 6369 6e6f 656e 7463 6465 4e00 206f     .Diconnected.No 
   ddc68:	6144 6174 5200 7365 6f70 736e 2065 6552     Data.Response Re
   ddc78:	6563 7669 6465 5500 6b6e 6f6e 6e77 7220     ceived.Unknown r
   ddc88:	7365 6f70 736e 2065 6572 6563 6976 6465     esponse recevied
   ddc98:	2520 0069 6255 6469 746f 2073 6f48 6b6f      %i.Ubidots Hook
   ddca8:	4800 7261 2064 6552 6573 2074 6e69 3220     .Hard Reset in 2
   ddcb8:	7320 6365 6e6f 7364 5300 7465 5620 7265      seconds.Set Ver
   ddcc8:	6f62 6573 4d20 646f 0065 6c43 6165 6572     bose Mode.Cleare
   ddcd8:	2064 6556 6272 736f 2065 6f4d 6564 4f00     d Verbose Mode.O
   ddce8:	6570 206e 6974 656d 7320 7465 7420 206f     pen time set to 
   ddcf8:	6925 4c00 776f 5020 776f 7265 4d20 646f     %i.Low Power Mod
   ddd08:	0065 6f4e 6d72 6c61 4f20 6570 6172 6974     e.Normal Operati
   ddd18:	6e6f 0073 6f4e 2074 6f4c 2077 6f50 6577     ons.Not Low Powe
   ddd28:	0072 3225 312e 2066 2525 2500 2069 6573     r.%2.1f %%.%i se
   ddd38:	6f63 646e 0073 227b 6f73 6c69 6f4d 7369     conds.{"soilMois
   ddd48:	7574 6572 3a22 6925 202c 7722 7461 7265     ture":%i, "water
   ddd58:	6e69 2267 253a 2c69 2220 6162 7474 7265     ing":%i, "batter
   ddd68:	2279 253a 2c69 6b22 7965 2231 223a 7325     y":%i,"key1":"%s
   ddd78:	2c22 7422 6d65 2270 253a 2c69 2220 6572     ","temp":%i, "re
   ddd88:	6573 7374 3a22 6925 202c 6122 656c 7472     sets":%i, "alert
   ddd98:	2273 253a 2c69 2220 6f63 6e6e 6365 7474     s":%i, "connectt
   ddda8:	6d69 2265 253a 2c69 7422 6d69 7365 6174     ime":%i,"timesta
   dddb8:	706d 3a22 6c25 3075 3030 007d 6255 6469     mp":%lu000}.Ubid
   dddc8:	746f 2d73 7141 6175 614d 7473 7265 472d     ots-AquaMaster-G
   dddd8:	7261 6564 2d6e 3176 2500 2073 3a53 3225     arden-v1.%s S:%2
   ddde8:	302e 2566 2c25 5120 253a 2e32 6630 2525     .0f%%, Q:%2.0f%%
   dddf8:	0020 6553 2074 6f53 616c 2072 6f50 6577      .Set Solar Powe
   dde08:	6572 2064 6f4d 6564 4300 656c 7261 6465     red Mode.Cleared
   dde18:	5320 6c6f 7261 5020 776f 7265 6465 4d20      Solar Powered M
   dde28:	646f 0065 414e 2500 3a69 3030 4300 6f6c     ode.NA.%i:00.Clo
   dde38:	6973 676e 7420 6d69 2065 6573 2074 6f74     sing time set to
   dde48:	2520 0069 7246 6d6f 2520 2073 6f74 2520      %i.From %s to %
   dde58:	0073 7453 7461 2065 7254 6e61 6973 6974     s.State Transiti
   dde68:	6e6f 5200 6e75 696e 676e 4400 6961 796c     on.Running.Daily
   dde78:	4320 656c 6e61 7075 4c00 616f 6964 676e      Cleanup.Loading
   dde88:	5320 7379 6574 206d 6544 6166 6c75 7374      System Defaults
   dde98:	4c00 616f 6964 676e 7320 7379 6574 206d     .Loading system 
   ddea8:	6564 6166 6c75 7374 5300 696f 4d6c 696f     defaults.SoilMoi
   ddeb8:	7473 7275 0065 6953 6e67 6c61 5200 7365     sture.Signal.Res
   ddec8:	7465 6f43 6e75 0074 6554 706d 7265 7461     etCount.Temperat
   dded8:	7275 0065 6552 656c 7361 0065 7473 7461     ure.Release.stat
   ddee8:	4f65 4366 6768 6c00 776f 6f50 6577 4d72     eOfChg.lowPowerM
   ddef8:	646f 0065 6c43 736f 5465 6d69 0065 6c41     ode.CloseTime.Al
   ddf08:	7265 7374 5400 6d69 4f65 6666 6573 0074     erts.TimeOffset.
   ddf18:	6142 7474 7265 4379 6e6f 6574 7478 5700     BatteryContext.W
   ddf28:	7461 7265 6e69 5067 7463 5700 7461 7265     ateringPct.Water
   ddf38:	6e69 4467 7275 7461 6f69 006e 6572 6573     ingDuration.rese
   ddf48:	4374 756f 746e 0073 6148 6472 6552 6573     tCounts.HardRese
   ddf58:	0074 6553 646e 6f4e 0077 6f4c 5077 776f     t.SendNow.LowPow
   ddf68:	7265 6f4d 6564 5300 6c6f 7261 4d2d 646f     erMode.Solar-Mod
   ddf78:	0065 6556 6272 736f 2d65 6f4d 6564 5300     e.Verbose-Mode.S
   ddf88:	7465 542d 6d69 7a65 6e6f 0065 6553 2d74     et-Timezone.Set-
   ddf98:	5344 4f54 6666 6573 0074 6553 2d74 704f     DSTOffset.Set-Op
   ddfa8:	6e65 6954 656d 5300 7465 432d 6f6c 6573     enTime.Set-Close
   ddfb8:	5300 7465 6157 6574 5472 7268 7365 6f68     .SetWaterThresho
   ddfc8:	646c 5300 7465 6157 6574 4472 7275 7461     ld.SetWaterDurat
   ddfd8:	6f69 006e 3225 312e 2066 5455 0043 6c63     ion.%2.1f UTC.cl
   ddfe8:	756f 2064 6f63 6e6e 6365 6974 6e6f 7320     oud connection s
   ddff8:	6375 6563 7373 7566 006c 6c63 756f 2064     uccessful.cloud 
   de008:	6f63 6e6e 6365 6974 6e6f 7520 736e 6375     connection unsuc
   de018:	6563 7373 7566 006c 6f43 6e6e 6365 6574     cessful.Connecte
   de028:	2064 6e69 2520 2069 6573 7363 4300 6c65     d in %i secs.Cel
   de038:	756c 616c 0072 6f4e 7720 7461 7265 6e69     lular.No waterin
   de048:	2067 656e 6465 6465 6120 2074 6874 7369     g needed at this
   de058:	7420 6d69 0065 6157 6574 6972 676e 7b00      time.Watering.{
   de068:	6422 7275 7461 6f69 226e 253a 7d69 5200     "duration":%i}.R
   de078:	6361 6968 2d6f 6157 6574 4772 7261 6564     achio-WaterGarde
   de088:	006e 6166 6c69 6465 7420 206f 6f63 6e6e     n.failed to conn
   de098:	6365 2074 6f74 6320 6f6c 6475 202c 6f64     ect to cloud, do
   de0a8:	6e69 2067 6564 7065 7220 7365 7465 4500     ing deep reset.E
   de0b8:	7272 726f 5320 6174 6574 2d20 4620 6c75     rror State - Ful
   de0c8:	206c 6f4d 6564 206d 6552 6573 0074 7453     l Modem Reset.St
   de0d8:	7461 0065 7245 6f72 2072 7453 7461 2065     ate.Error State 
   de0e8:	202d 7953 7473 6d65 5220 7365 7465 4f00     - System Reset.O
   de0f8:	7475 6f20 2066 656d 6f6d 7972 6f20 6363     ut of memory occ
   de108:	7275 6572 2064 6973 657a 253d 0064 654d     urred size=%d.Me
   de118:	6f6d 7972 0000 0000                         mory....

000de120 <_ZTV5Timer>:
	...
   de128:	4319 000d 436d 000d 4165 000d               .C..mC..eA..

000de134 <_ZTVN5spark10LogHandlerE>:
	...
   de144:	40a5 000d 40c9 000d                         .@...@..

000de14c <_ZTVN5spark16SerialLogHandlerE>:
	...
   de154:	42b1 000d 42e5 000d 9c4d 000d 40cb 000d     .B...B..M....@..

000de164 <_ZTV8MB85RC64>:
	...
   de16c:	4199 000d 41ad 000d 6e81 000d 6f17 000d     .A...A...n...o..
   de17c:	6f99 000d                                   .o..

000de180 <_ZTV17PublishQueueAsync>:
	...
   de188:	4171 000d 4185 000d 74a9 000d 7271 000d     qA...A...t..qr..
   de198:	7219 000d 71f7 000d 7401 000d 7255 000d     .r...q...t..Ur..
   de1a8:	dbec 000d dbf4 000d dbf9 000d dbfe 000d     ................
   de1b8:	dc02 000d dc07 000d dc0c 000d dc10 000d     ................
   de1c8:	dc1b 000d dc26 000d                         ....&...

000de1d0 <_ZL17FRAMversionNumber>:
   de1d0:	0001 0000 6954 656d 7a20 6e6f 2065 666f     ....Time zone of
   de1e0:	7366 7465 2520 0069 5344 2054 666f 7366     fset %i.DST offs
   de1f0:	7465 2520 2e32 6631 6600 6961 656c 2064     et %2.1f.failed 
   de200:	6f74 7220 6165 2064 6572 4167 6464 3d72     to read regAddr=
   de210:	3025 7832 6320 756f 746e 253d 0075 6166     %02x count=%u.fa
   de220:	6c69 6465 7420 206f 6572 6461 7220 6765     iled to read reg
   de230:	6441 7264 253d 3230 2078 7473 7461 253d     Addr=%02x stat=%
   de240:	0064 4f46 5455 6420 6469 6e20 746f 6720     d.FOUT did not g
   de250:	206f 4948 4847 6e00 746f 6420 7465 6365     o HIGH.not detec
   de260:	6574 0064 6166 6c69 6465 7420 206f 7277     ted.failed to wr
   de270:	7469 2065 6572 4167 6464 3d72 3025 7832     ite regAddr=%02x
   de280:	7320 6174 3d74 6425 7300 7465 4457 2054      stat=%d.setWDT 
   de290:	6425 7700 7461 6863 6f64 2067 6c63 6165     %d.watchdog clea
   de2a0:	6572 2064 5262 7365 6c75 3d74 6425 7700     red bResult=%d.w
   de2b0:	7461 6863 6f64 2067 6573 2074 6f66 7275     atchdog set four
   de2c0:	6553 7363 253d 2064 5262 7365 6c75 3d74     Secs=%d bResult=
   de2d0:	6425 5700 5441 4843 4f44 0047 4544 5045     %d.WATCHDOG.DEEP
   de2e0:	505f 574f 5245 445f 574f 004e 4f43 4e55     _POWER_DOWN.COUN
   de2f0:	4454 574f 5f4e 4954 454d 0052 4c41 5241     TDOWN_TIMER.ALAR
   de300:	004d 6166 6c69 7275 2065 6e69 7520 6470     M.failure in upd
   de310:	7461 5765 6b61 5265 6165 6f73 206e 6425     ateWakeReason %d
   de320:	7700 6b61 2065 6572 7361 6e6f 3d20 2520     .wake reason = %
   de330:	0073 6166 6c69 7275 2065 6e69 7320 7465     s.failure in set
   de340:	6f43 6e75 6474 776f 546e 6d69 7265 2520     CountdownTimer %
   de350:	0064 6166 6c69 7275 2065 6e69 6420 6565     d.failure in dee
   de360:	5070 776f 7265 6f44 6e77 2520 0064 4552     pPowerDown %d.RE
   de370:	5f47 4c53 4545 5f50 5443 4c52 303d 2578     G_SLEEP_CTRL=0x%
   de380:	7832 6400 6469 276e 2074 6f70 6577 2072     2x.didn't power 
   de390:	6f64 6e77 2500 3430 2d64 3025 6432 252d     down.%04d-%02d-%
   de3a0:	3230 2064 3025 6432 253a 3230 3a64 3025     02d %02d:%02d:%0
   de3b0:	6432 6700 7465 7452 4163 5473 206d 7325     2d.getRtcAsTm %s
   de3c0:	7300 7465 7320 7379 6574 206d 6c63 636f     .set system cloc
   de3d0:	206b 7266 6d6f 5220 4354 2520 0073 6166     k from RTC %s.fa
   de3e0:	6c69 6465 7420 206f 6564 6574 7463 4120     iled to detect A
   de3f0:	3142 3038 0035 6573 5274 6374 7341 6d54     B1805.setRtcAsTm
   de400:	2520 0073 6166 6c69 7275 2065 6e69 7320      %s.failure in s
   de410:	7465 7452 4663 6f72 546d 206d 6425 7300     etRtcFromTm %d.s
   de420:	7465 5220 4354 6620 6f72 206d 6c63 756f     et RTC from clou
   de430:	2064 7325 6100 7070 612e 3162 3038 0035     d %s.app.ab1805.

000de440 <_ZTV6AB1805>:
	...
   de448:	62f5 000d 62f7 000d 6941 000d 69c7 000d     .b...b..Ai...i..
   de458:	7277 7469 4465 7461 2061 6166 6c69 6465     writeData failed
   de468:	6420 7275 6e69 2067 7265 7361 2065 7266      during erase fr
   de478:	6d61 6441 7264 253d 0075 0000               amAddr=%u...

000de484 <_ZTV6MB85RC>:
	...
   de48c:	6dd1 000d 6dd3 000d 6e81 000d 6f17 000d     .m...m...n...o..
   de49c:	6f99 000d 5953 5453 4d45 545f 5248 4145     .o..SYSTEM_THREA
   de4ac:	2844 4e45 4241 454c 2944 6920 2073 6572     D(ENABLED) is re
   de4bc:	7571 7269 6465 5000 6275 696c 6873 7551     quired.PublishQu
   de4cc:	7565 4165 7973 636e 6300 656c 7261 7645     eueAsync.clearEv
   de4dc:	6e65 7374 6e20 6d75 7645 6e65 7374 253d     ents numEvents=%
   de4ec:	2064 6973 657a 253d 0064 7571 7565 6965     d size=%d.queuei
   de4fc:	676e 6520 6576 746e 614e 656d 253d 2073     ng eventName=%s 
   de50c:	6164 6174 253d 2073 7474 3d6c 6425 6620     data=%s ttl=%d f
   de51c:	616c 7367 3d31 6425 6620 616c 7367 3d32     lags1=%d flags2=
   de52c:	6425 7320 7a69 3d65 6425 7300 7661 6e69     %d size=%d.savin
   de53c:	2067 7665 6e65 2074 7461 6e20 7865 4674     g event at nextF
   de54c:	6572 3d65 6425 6100 7466 7265 7320 7661     ree=%d.after sav
   de55c:	6e69 2067 756e 456d 6576 746e 3d73 6425     ing numEvents=%d
   de56c:	6e20 7865 4674 6572 3d65 6425 6520 646e      nextFree=%d end
   de57c:	253d 0064 6964 6373 7261 4f64 646c 7365     =%d.discardOldes
   de58c:	4574 6576 746e 7320 6365 6e6f 4564 6576     tEvent secondEve
   de59c:	746e 253d 2064 7473 7261 3d74 6425 6e20     nt=%d start=%d n
   de5ac:	7865 3d74 6425 6e20 7865 4674 6572 3d65     ext=%d nextFree=
   de5bc:	6425 6100 7466 7265 6420 7369 6163 6472     %d.after discard
   de5cc:	6c4f 6564 7473 7645 6e65 2074 756e 456d     OldestEvent numE
   de5dc:	6576 746e 3d73 6425 6e20 7865 4674 6572     vents=%d nextFre
   de5ec:	3d65 6425 7200 7465 6961 656e 2064 756e     e=%d.retained nu
   de5fc:	456d 6576 746e 3d73 6425 6100 2074 6e69     mEvents=%d.at in
   de60c:	7469 6e20 6d75 7645 6e65 7374 253d 2064     it numEvents=%d 
   de61c:	656e 7478 7246 6565 253d 0064 7570 6c62     nextFree=%d.publ
   de62c:	7369 6968 676e 2520 2073 7325 7420 6c74     ishing %s %s ttl
   de63c:	253d 2064 6c66 6761 3d73 7825 7000 6275     =%d flags=%x.pub
   de64c:	696c 6873 6320 6e61 6563 656c 0064 7570     lish canceled.pu
   de65c:	6c62 7369 6568 2064 7573 6363 7365 6673     blished successf
   de66c:	6c75 796c 7000 6275 696c 6873 6620 6961     ully.publish fai
   de67c:	656c 2c64 7720 6c69 206c 6572 7274 2079     led, will retry 
   de68c:	6e69 2520 756c 6d20 0073 7061 2e70 7570     in %lu ms.app.pu
   de69c:	7162 0000                                   bq..

000de6a0 <_ZTV21PublishQueueAsyncBase>:
	...
   de6b0:	70b1 000d 40a5 000d 40a5 000d 40a5 000d     .p...@...@...@..
   de6c0:	40a5 000d 40a5 000d                         .@...@..

000de6c8 <_ZTV25PublishQueueAsyncRetained>:
	...
   de6d0:	71b5 000d 71c9 000d 74a9 000d 7271 000d     .q...q...t..qr..
   de6e0:	7219 000d 71f7 000d 7401 000d 7255 000d     .r...q...t..Ur..

000de6f0 <_ZTVN5spark13CellularClassE>:
	...
   de6f8:	7feb 000d 7fe1 000d 7fd7 000d 7f99 000d     ................
   de708:	7fcb 000d 42f9 000d 9fa5 000d 9fad 000d     .....B..........
   de718:	7fbf 000d 7fb7 000d 7fad 000d 7fa3 000d     ................
   de728:	9fdd 000d                                   ....

000de72c <_ZTV14CellularSignal>:
	...
   de734:	8099 000d 809f 000d 809b 000d 80ad 000d     ................
   de744:	80e1 000d 810d 000d 8141 000d 8191 000d     ........A.......
   de754:	fffc ffff 0000 0000 81b7 000d               ............

000de760 <_ZTVSt15_Sp_counted_ptrIPN8particle6detail10FutureImplIbNS1_13FutureContextEEELN9__gnu_cxx12_Lock_policyE0EE>:
	...
   de768:	81d7 000d 81dd 000d 821b 000d 81eb 000d     ................
   de778:	81d9 000d                                   ....

000de77c <_ZTVN5spark13EthernetClassE>:
	...
   de784:	884b 000d 8841 000d 8837 000d 882d 000d     K...A...7...-...
   de794:	8821 000d 8815 000d 9fa5 000d 9fad 000d     !...............
   de7a4:	8809 000d 8801 000d 87f7 000d 87ed 000d     ................
   de7b4:	9fdd 000d                                   ....

000de7b8 <_ZTV7TwoWire>:
	...
   de7c0:	89fd 000d 8a47 000d 8a1f 000d 89ff 000d     ....G...........
   de7d0:	8a27 000d 8a2f 000d 8a37 000d 8a3f 000d     '.../...7...?...

000de7e0 <_ZTV9IPAddress>:
	...
   de7e8:	8b51 000d 8b41 000d 8b43 000d 2575 3430     Q...A...C...u%04
   de7f8:	0078 6162 6475 5300 7265 6169 006c 6553     x.baud.Serial.Se
   de808:	6972 6c61 0031 534a 4e4f 7453 6572 6d61     rial1.JSONStream
   de818:	6f4c 4867 6e61 6c64 7265 6100 7070 2500     LogHandler.app.%
   de828:	3130 7530 0020 205d 2c00 0020 2928 203a     010u .] ., .(): 
   de838:	2000 005b 6f63 6564 3d20 0020 6564 6174     . [.code = .deta
   de848:	6c69 2073 203d 0d00 000a 006d 6e6c 6600     ils = ....m.ln.f
   de858:	006e 6f63 6564 6400 7465 6961 006c 0000     n.code.detail...

000de868 <_ZTVN5spark16JSONStreamWriterE>:
	...
   de870:	900b 000d 9031 000d 8ff1 000d 8c51 000d     ....1.......Q...

000de880 <_ZTVN5spark16StreamLogHandlerE>:
	...
   de888:	9475 000d 948d 000d 9c4d 000d 40cb 000d     u.......M....@..

000de898 <_ZTVN5spark20JSONStreamLogHandlerE>:
	...
   de8a0:	94a1 000d 94b5 000d 9df1 000d 8ff9 000d     ................

000de8b0 <_ZTVN5spark24DefaultLogHandlerFactoryE>:
	...
   de8b8:	9009 000d 903f 000d 9b89 000d 8ffb 000d     ....?...........

000de8c8 <_ZTVN5spark26DefaultOutputStreamFactoryE>:
	...
   de8d0:	9007 000d 904d 000d 93bd 000d 9069 000d     ....M.......i...

000de8e0 <_ZTVN5spark12NetworkClassE>:
	...
   de8e8:	9f65 000d 9f6f 000d 9f79 000d 9f83 000d     e...o...y.......
   de8f8:	9f8d 000d 9f99 000d 9fa5 000d 9fad 000d     ................
   de908:	9fb5 000d 9fc1 000d 9fc9 000d 9fd3 000d     ................
   de918:	9fdd 000d 6977 6972 676e 5300 7379 6574     ....wiring.Syste
   de928:	206d 6c73 6565 2070 6f63 666e 6769 7275     m sleep configur
   de938:	7461 6f69 206e 7369 6920 766e 6c61 6469     ation is invalid
   de948:	002e 005a 2b25 3330 3a64 3025 7532 2500     ..Z.%+03d:%02u.%
   de958:	2d59 6d25 252d 5464 4825 253a 3a4d 5325     Y-%m-%dT%H:%M:%S
   de968:	7a25 6100 6373 6974 656d 0000               %z.asctime..

000de974 <_ZTV11USARTSerial>:
	...
   de97c:	ab31 000d ab9d 000d ab75 000d a223 000d     1.......u...#...
   de98c:	ab45 000d ab61 000d ab53 000d ab6f 000d     E...a...S...o...
   de99c:	ab33 000d ab37 000d                         3...7...

000de9a4 <_ZTV9USBSerial>:
	...
   de9ac:	ac45 000d acad 000d ac83 000d a223 000d     E...........#...
   de9bc:	ac75 000d ac47 000d ac57 000d aca7 000d     u...G...W.......
   de9cc:	ac67 000d ac41 000d                         g...A...

000de9d4 <_ZSt7nothrow>:
   de9d4:	2500 332e 2073 2e25 7333 3325 2064 2e25     .%.3s %.3s%3d %.
   de9e4:	6432 253a 322e 3a64 2e25 6432 2520 0a64     2d:%.2d:%.2d %d.
	...

000de9f5 <day_name.6145>:
   de9f5:	7553 4d6e 6e6f 7554 5765 6465 6854 4675     SunMonTueWedThuF
   dea05:	6972 6153                                    riSat

000dea0a <mon_name.6146>:
   dea0a:	614a 466e 6265 614d 4172 7270 614d 4a79     JanFebMarAprMayJ
   dea1a:	6e75 754a 416c 6775 6553 4f70 7463 6f4e     unJulAugSepOctNo
   dea2a:	4476 6365 666e 6900 696e 7974 6100 006e     vDecnf.inity.an.
	...

000dea3c <fpi.7566>:
   dea3c:	0035 0000 fbce ffff 03cb 0000 0001 0000     5...............
   dea4c:	0000 0000                                   ....

000dea50 <fpinan.7602>:
   dea50:	0034 0000 fbce ffff 03cb 0000 0001 0000     4...............
	...

000dea68 <tinytens>:
   dea68:	89bc 97d8 d2b2 3c9c a733 d5a8 f623 3949     .......<3...#.I9
   dea78:	a73d 44f4 0ffd 32a5 979d cf8c ba08 255b     =..D...2......[%
   dea88:	6f43 64ac 0628 1168                         Co.d(.h.

000dea90 <_ctype_>:
   dea90:	2000 2020 2020 2020 2020 2828 2828 2028     .         ((((( 
   deaa0:	2020 2020 2020 2020 2020 2020 2020 2020                     
   deab0:	8820 1010 1010 1010 1010 1010 1010 1010      ...............
   deac0:	0410 0404 0404 0404 0404 1004 1010 1010     ................
   dead0:	1010 4141 4141 4141 0101 0101 0101 0101     ..AAAAAA........
   deae0:	0101 0101 0101 0101 0101 0101 1010 1010     ................
   deaf0:	1010 4242 4242 4242 0202 0202 0202 0202     ..BBBBBB........
   deb00:	0202 0202 0202 0202 0202 0202 1010 1010     ................
   deb10:	0020 0000 0000 0000 0000 0000 0000 0000      ...............
	...

000deb94 <_C_numeric_locale>:
   deb94:	e948 000d e851 000d e24c 2003 4f50 4953     H...Q...L.. POSI
   deba4:	0058 0000                                   X...

000deba8 <__mprec_bigtens>:
   deba8:	8000 37e0 c379 4341 6e17 b505 b8b5 4693     ...7y.AC.n.....F
   debb8:	f9f5 e93f 4f03 4d38 1d32 f930 7748 5a82     ..?..O8M2.0.Hw.Z
   debc8:	bf3c 7f73 4fdd 7515                         <.s..O.u

000debd0 <__mprec_tens>:
   debd0:	0000 0000 0000 3ff0 0000 0000 0000 4024     .......?......$@
   debe0:	0000 0000 0000 4059 0000 0000 4000 408f     ......Y@.....@.@
   debf0:	0000 0000 8800 40c3 0000 0000 6a00 40f8     .......@.....j.@
   dec00:	0000 0000 8480 412e 0000 0000 12d0 4163     .......A......cA
   dec10:	0000 0000 d784 4197 0000 0000 cd65 41cd     .......A....e..A
   dec20:	0000 2000 a05f 4202 0000 e800 4876 4237     ... _..B....vH7B
   dec30:	0000 a200 1a94 426d 0000 e540 309c 42a2     ......mB..@..0.B
   dec40:	0000 1e90 bcc4 42d6 0000 2634 6bf5 430c     .......B..4&.k.C
   dec50:	8000 37e0 c379 4341 a000 85d8 3457 4376     ...7y.AC....W4vC
   dec60:	c800 674e c16d 43ab 3d00 6091 58e4 43e1     ..Ngm..C.=.`.X.C
   dec70:	8c40 78b5 af1d 4415 ef50 d6e2 1ae4 444b     @..x...DP.....KD
   dec80:	d592 064d f0cf 4480 4af6 c7e1 2d02 44b5     ..M....D.J...-.D
   dec90:	9db4 79d9 7843 44ea                         ...yCx.D

000dec98 <p05.7490>:
   dec98:	0005 0000 0019 0000 007d 0000               ........}...

000deca4 <link_const_variable_data_end>:
   deca4:	000d5645 	.word	0x000d5645
   deca8:	000d62e9 	.word	0x000d62e9
   decac:	000d6dc1 	.word	0x000d6dc1
   decb0:	000d76e5 	.word	0x000d76e5
   decb4:	000d7f71 	.word	0x000d7f71
   decb8:	000d8069 	.word	0x000d8069
   decbc:	000d8855 	.word	0x000d8855
   decc0:	000d9c3d 	.word	0x000d9c3d
   decc4:	000da0b1 	.word	0x000da0b1
   decc8:	000da33d 	.word	0x000da33d
   deccc:	000da6b1 	.word	0x000da6b1
   decd0:	000dab1d 	.word	0x000dab1d

000decd4 <link_constructors_end>:
	...
